
O2.s:     file format elf32-littleriscv


Disassembly of section .text:

00010094 <.text>:
   10094:	ff010113          	add	sp,sp,-16
   10098:	00000593          	li	a1,0
   1009c:	00812423          	sw	s0,8(sp)
   100a0:	00112623          	sw	ra,12(sp)
   100a4:	00050413          	mv	s0,a0
   100a8:	03c010ef          	jal	0x110e4
   100ac:	f4c1a783          	lw	a5,-180(gp)
   100b0:	00078463          	beqz	a5,0x100b8
   100b4:	000780e7          	jalr	a5
   100b8:	00040513          	mv	a0,s0
   100bc:	6d10d0ef          	jal	0x1df8c
   100c0:	fb010113          	add	sp,sp,-80
   100c4:	04112623          	sw	ra,76(sp)
   100c8:	04812423          	sw	s0,72(sp)
   100cc:	04912223          	sw	s1,68(sp)
   100d0:	05212023          	sw	s2,64(sp)
   100d4:	03312e23          	sw	s3,60(sp)
   100d8:	03412c23          	sw	s4,56(sp)
   100dc:	03512a23          	sw	s5,52(sp)
   100e0:	03612823          	sw	s6,48(sp)
   100e4:	03712623          	sw	s7,44(sp)
   100e8:	03812423          	sw	s8,40(sp)
   100ec:	03912223          	sw	s9,36(sp)
   100f0:	c0002b73          	rdcycle	s6
   100f4:	000227b7          	lui	a5,0x22
   100f8:	f3878793          	add	a5,a5,-200 # 0x21f38
   100fc:	0007a503          	lw	a0,0(a5)
   10100:	0047a583          	lw	a1,4(a5)
   10104:	0087a603          	lw	a2,8(a5)
   10108:	00c7a683          	lw	a3,12(a5)
   1010c:	0107a703          	lw	a4,16(a5)
   10110:	0147a783          	lw	a5,20(a5)
   10114:	00810993          	add	s3,sp,8
   10118:	00a12423          	sw	a0,8(sp)
   1011c:	00b12623          	sw	a1,12(sp)
   10120:	00c12823          	sw	a2,16(sp)
   10124:	00d12a23          	sw	a3,20(sp)
   10128:	00e12c23          	sw	a4,24(sp)
   1012c:	00f12e23          	sw	a5,28(sp)
   10130:	02010913          	add	s2,sp,32
   10134:	00098413          	mv	s0,s3
   10138:	000224b7          	lui	s1,0x22
   1013c:	00042603          	lw	a2,0(s0)
   10140:	00442683          	lw	a3,4(s0)
   10144:	bb048513          	add	a0,s1,-1104 # 0x21bb0
   10148:	00840413          	add	s0,s0,8
   1014c:	0d9000ef          	jal	0x10a24
   10150:	ff2416e3          	bne	s0,s2,0x1013c
   10154:	00022537          	lui	a0,0x22
   10158:	0c000593          	li	a1,192
   1015c:	bb850513          	add	a0,a0,-1096 # 0x21bb8
   10160:	0c5000ef          	jal	0x10a24
   10164:	00000913          	li	s2,0
   10168:	00000a13          	li	s4,0
   1016c:	00000493          	li	s1,0
   10170:	00022c37          	lui	s8,0x22
   10174:	02f00b93          	li	s7,47
   10178:	01f00c93          	li	s9,31
   1017c:	00300a93          	li	s5,3
   10180:	0049a583          	lw	a1,4(s3)
   10184:	0009a503          	lw	a0,0(s3)
   10188:	194000ef          	jal	0x1031c
   1018c:	00050613          	mv	a2,a0
   10190:	00050413          	mv	s0,a0
   10194:	00090593          	mv	a1,s2
   10198:	bd4c0513          	add	a0,s8,-1068 # 0x21bd4
   1019c:	089000ef          	jal	0x10a24
   101a0:	01048713          	add	a4,s1,16
   101a4:	030a0793          	add	a5,s4,48
   101a8:	088bea63          	bltu	s7,s0,0x1023c
   101ac:	02048713          	add	a4,s1,32
   101b0:	020a0793          	add	a5,s4,32
   101b4:	04048493          	add	s1,s1,64
   101b8:	088ce263          	bltu	s9,s0,0x1023c
   101bc:	01049493          	sll	s1,s1,0x10
   101c0:	0104d493          	srl	s1,s1,0x10
   101c4:	00190913          	add	s2,s2,1
   101c8:	00898993          	add	s3,s3,8
   101cc:	fb591ae3          	bne	s2,s5,0x10180
   101d0:	00022537          	lui	a0,0x22
   101d4:	00048593          	mv	a1,s1
   101d8:	bfc50513          	add	a0,a0,-1028 # 0x21bfc
   101dc:	049000ef          	jal	0x10a24
   101e0:	00022537          	lui	a0,0x22
   101e4:	000a0593          	mv	a1,s4
   101e8:	c2050513          	add	a0,a0,-992 # 0x21c20
   101ec:	039000ef          	jal	0x10a24
   101f0:	c00025f3          	rdcycle	a1
   101f4:	00022537          	lui	a0,0x22
   101f8:	416585b3          	sub	a1,a1,s6
   101fc:	c4450513          	add	a0,a0,-956 # 0x21c44
   10200:	025000ef          	jal	0x10a24
   10204:	04c12083          	lw	ra,76(sp)
   10208:	04812403          	lw	s0,72(sp)
   1020c:	04412483          	lw	s1,68(sp)
   10210:	04012903          	lw	s2,64(sp)
   10214:	03c12983          	lw	s3,60(sp)
   10218:	03812a03          	lw	s4,56(sp)
   1021c:	03412a83          	lw	s5,52(sp)
   10220:	03012b03          	lw	s6,48(sp)
   10224:	02c12b83          	lw	s7,44(sp)
   10228:	02812c03          	lw	s8,40(sp)
   1022c:	02412c83          	lw	s9,36(sp)
   10230:	00000513          	li	a0,0
   10234:	05010113          	add	sp,sp,80
   10238:	00008067          	ret
   1023c:	01071493          	sll	s1,a4,0x10
   10240:	01079a13          	sll	s4,a5,0x10
   10244:	0104d493          	srl	s1,s1,0x10
   10248:	010a5a13          	srl	s4,s4,0x10
   1024c:	f79ff06f          	j	0x101c4
   10250:	00000793          	li	a5,0
   10254:	00078863          	beqz	a5,0x10264
   10258:	00001517          	auipc	a0,0x1
   1025c:	c4050513          	add	a0,a0,-960 # 0x10e98
   10260:	23c0006f          	j	0x1049c
   10264:	00008067          	ret
   10268:	00013197          	auipc	gp,0x13
   1026c:	76818193          	add	gp,gp,1896 # 0x239d0
   10270:	f4818513          	add	a0,gp,-184
   10274:	54018613          	add	a2,gp,1344
   10278:	40a60633          	sub	a2,a2,a0
   1027c:	00000593          	li	a1,0
   10280:	4a5000ef          	jal	0x10f24
   10284:	00001517          	auipc	a0,0x1
   10288:	c1450513          	add	a0,a0,-1004 # 0x10e98
   1028c:	210000ef          	jal	0x1049c
   10290:	375000ef          	jal	0x10e04
   10294:	00012503          	lw	a0,0(sp)
   10298:	00410593          	add	a1,sp,4
   1029c:	00000613          	li	a2,0
   102a0:	e21ff0ef          	jal	0x100c0
   102a4:	df1ff06f          	j	0x10094
   102a8:	ff010113          	add	sp,sp,-16
   102ac:	00812423          	sw	s0,8(sp)
   102b0:	f4818413          	add	s0,gp,-184
   102b4:	00044783          	lbu	a5,0(s0)
   102b8:	00112623          	sw	ra,12(sp)
   102bc:	02079263          	bnez	a5,0x102e0
   102c0:	00000793          	li	a5,0
   102c4:	00078a63          	beqz	a5,0x102d8
   102c8:	00013517          	auipc	a0,0x13
   102cc:	d3850513          	add	a0,a0,-712 # 0x23000
   102d0:	00000097          	auipc	ra,0x0
   102d4:	000000e7          	jalr	zero # 0x0
   102d8:	00100793          	li	a5,1
   102dc:	00f40023          	sb	a5,0(s0)
   102e0:	00c12083          	lw	ra,12(sp)
   102e4:	00812403          	lw	s0,8(sp)
   102e8:	01010113          	add	sp,sp,16
   102ec:	00008067          	ret
   102f0:	00000793          	li	a5,0
   102f4:	00078c63          	beqz	a5,0x1030c
   102f8:	f9018593          	add	a1,gp,-112
   102fc:	00013517          	auipc	a0,0x13
   10300:	d0450513          	add	a0,a0,-764 # 0x23000
   10304:	00000317          	auipc	t1,0x0
   10308:	00000067          	jr	zero # 0x0
   1030c:	00008067          	ret
   10310:	c0002573          	rdcycle	a0
   10314:	00000593          	li	a1,0
   10318:	00008067          	ret
   1031c:	01f59713          	sll	a4,a1,0x1f
   10320:	00155793          	srl	a5,a0,0x1
   10324:	00f767b3          	or	a5,a4,a5
   10328:	0015d713          	srl	a4,a1,0x1
   1032c:	00b765b3          	or	a1,a4,a1
   10330:	00a7e533          	or	a0,a5,a0
   10334:	01e59713          	sll	a4,a1,0x1e
   10338:	00255793          	srl	a5,a0,0x2
   1033c:	00f767b3          	or	a5,a4,a5
   10340:	0025d713          	srl	a4,a1,0x2
   10344:	00b76733          	or	a4,a4,a1
   10348:	00a7e533          	or	a0,a5,a0
   1034c:	01c71693          	sll	a3,a4,0x1c
   10350:	00455793          	srl	a5,a0,0x4
   10354:	00f6e7b3          	or	a5,a3,a5
   10358:	00475693          	srl	a3,a4,0x4
   1035c:	00e6e6b3          	or	a3,a3,a4
   10360:	00a7e733          	or	a4,a5,a0
   10364:	01869613          	sll	a2,a3,0x18
   10368:	00875793          	srl	a5,a4,0x8
   1036c:	00f667b3          	or	a5,a2,a5
   10370:	0086d613          	srl	a2,a3,0x8
   10374:	00d66633          	or	a2,a2,a3
   10378:	00e7e7b3          	or	a5,a5,a4
   1037c:	0107d693          	srl	a3,a5,0x10
   10380:	01061713          	sll	a4,a2,0x10
   10384:	00d766b3          	or	a3,a4,a3
   10388:	01065713          	srl	a4,a2,0x10
   1038c:	00c76733          	or	a4,a4,a2
   10390:	00f6e6b3          	or	a3,a3,a5
   10394:	00d766b3          	or	a3,a4,a3
   10398:	01f71593          	sll	a1,a4,0x1f
   1039c:	0016d793          	srl	a5,a3,0x1
   103a0:	55555637          	lui	a2,0x55555
   103a4:	55560613          	add	a2,a2,1365 # 0x55555555
   103a8:	00f5e7b3          	or	a5,a1,a5
   103ac:	00c7f7b3          	and	a5,a5,a2
   103b0:	00175593          	srl	a1,a4,0x1
   103b4:	40f687b3          	sub	a5,a3,a5
   103b8:	00c5f633          	and	a2,a1,a2
   103bc:	00f6b6b3          	sltu	a3,a3,a5
   103c0:	40c70733          	sub	a4,a4,a2
   103c4:	40d70733          	sub	a4,a4,a3
   103c8:	01e71593          	sll	a1,a4,0x1e
   103cc:	0027d693          	srl	a3,a5,0x2
   103d0:	33333637          	lui	a2,0x33333
   103d4:	33360613          	add	a2,a2,819 # 0x33333333
   103d8:	00d5e6b3          	or	a3,a1,a3
   103dc:	00c6f6b3          	and	a3,a3,a2
   103e0:	00275593          	srl	a1,a4,0x2
   103e4:	00c7f7b3          	and	a5,a5,a2
   103e8:	00f687b3          	add	a5,a3,a5
   103ec:	00c5f5b3          	and	a1,a1,a2
   103f0:	00c77733          	and	a4,a4,a2
   103f4:	00e58733          	add	a4,a1,a4
   103f8:	00d7b6b3          	sltu	a3,a5,a3
   103fc:	00e686b3          	add	a3,a3,a4
   10400:	01c69613          	sll	a2,a3,0x1c
   10404:	0047d713          	srl	a4,a5,0x4
   10408:	00e66733          	or	a4,a2,a4
   1040c:	00f707b3          	add	a5,a4,a5
   10410:	0046d613          	srl	a2,a3,0x4
   10414:	00d60633          	add	a2,a2,a3
   10418:	00e7b733          	sltu	a4,a5,a4
   1041c:	0f0f16b7          	lui	a3,0xf0f1
   10420:	f0f68693          	add	a3,a3,-241 # 0xf0f0f0f
   10424:	00c70733          	add	a4,a4,a2
   10428:	00d77733          	and	a4,a4,a3
   1042c:	00d7f7b3          	and	a5,a5,a3
   10430:	01871613          	sll	a2,a4,0x18
   10434:	0087d693          	srl	a3,a5,0x8
   10438:	00d666b3          	or	a3,a2,a3
   1043c:	00f687b3          	add	a5,a3,a5
   10440:	00875613          	srl	a2,a4,0x8
   10444:	00e60733          	add	a4,a2,a4
   10448:	00d7b6b3          	sltu	a3,a5,a3
   1044c:	00e686b3          	add	a3,a3,a4
   10450:	01069613          	sll	a2,a3,0x10
   10454:	0107d713          	srl	a4,a5,0x10
   10458:	00e66733          	or	a4,a2,a4
   1045c:	00f707b3          	add	a5,a4,a5
   10460:	0106d613          	srl	a2,a3,0x10
   10464:	00e7b733          	sltu	a4,a5,a4
   10468:	00d606b3          	add	a3,a2,a3
   1046c:	00d70733          	add	a4,a4,a3
   10470:	00f70733          	add	a4,a4,a5
   10474:	07f77713          	and	a4,a4,127
   10478:	04000513          	li	a0,64
   1047c:	40e50533          	sub	a0,a0,a4
   10480:	01051513          	sll	a0,a0,0x10
   10484:	01055513          	srl	a0,a0,0x10
   10488:	00008067          	ret
   1048c:	00008067          	ret
   10490:	01051513          	sll	a0,a0,0x10
   10494:	01055513          	srl	a0,a0,0x10
   10498:	00008067          	ret
   1049c:	00050593          	mv	a1,a0
   104a0:	00000693          	li	a3,0
   104a4:	00000613          	li	a2,0
   104a8:	00000513          	li	a0,0
   104ac:	3550006f          	j	0x11000
   104b0:	00013617          	auipc	a2,0x13
   104b4:	d2060613          	add	a2,a2,-736 # 0x231d0
   104b8:	00006597          	auipc	a1,0x6
   104bc:	13458593          	add	a1,a1,308 # 0x165ec
   104c0:	00013517          	auipc	a0,0x13
   104c4:	d2050513          	add	a0,a0,-736 # 0x231e0
   104c8:	4680006f          	j	0x10930
   104cc:	00452583          	lw	a1,4(a0)
   104d0:	ff010113          	add	sp,sp,-16
   104d4:	00812423          	sw	s0,8(sp)
   104d8:	00112623          	sw	ra,12(sp)
   104dc:	fa818793          	add	a5,gp,-88
   104e0:	00050413          	mv	s0,a0
   104e4:	00f58463          	beq	a1,a5,0x104ec
   104e8:	104060ef          	jal	0x165ec
   104ec:	00842583          	lw	a1,8(s0)
   104f0:	01018793          	add	a5,gp,16
   104f4:	00f58663          	beq	a1,a5,0x10500
   104f8:	00040513          	mv	a0,s0
   104fc:	0f0060ef          	jal	0x165ec
   10500:	00c42583          	lw	a1,12(s0)
   10504:	07818793          	add	a5,gp,120
   10508:	00f58c63          	beq	a1,a5,0x10520
   1050c:	00040513          	mv	a0,s0
   10510:	00812403          	lw	s0,8(sp)
   10514:	00c12083          	lw	ra,12(sp)
   10518:	01010113          	add	sp,sp,16
   1051c:	0d00606f          	j	0x165ec
   10520:	00c12083          	lw	ra,12(sp)
   10524:	00812403          	lw	s0,8(sp)
   10528:	01010113          	add	sp,sp,16
   1052c:	00008067          	ret
   10530:	0645a783          	lw	a5,100(a1)
   10534:	0017f793          	and	a5,a5,1
   10538:	00079863          	bnez	a5,0x10548
   1053c:	00c5d783          	lhu	a5,12(a1)
   10540:	2007f793          	and	a5,a5,512
   10544:	00078663          	beqz	a5,0x10550
   10548:	00000513          	li	a0,0
   1054c:	00008067          	ret
   10550:	0585a503          	lw	a0,88(a1)
   10554:	ff010113          	add	sp,sp,-16
   10558:	00112623          	sw	ra,12(sp)
   1055c:	1ad000ef          	jal	0x10f08
   10560:	00c12083          	lw	ra,12(sp)
   10564:	00000513          	li	a0,0
   10568:	01010113          	add	sp,sp,16
   1056c:	00008067          	ret
   10570:	0645a783          	lw	a5,100(a1)
   10574:	0017f793          	and	a5,a5,1
   10578:	00079863          	bnez	a5,0x10588
   1057c:	00c5d783          	lhu	a5,12(a1)
   10580:	2007f793          	and	a5,a5,512
   10584:	00078663          	beqz	a5,0x10590
   10588:	00000513          	li	a0,0
   1058c:	00008067          	ret
   10590:	0585a503          	lw	a0,88(a1)
   10594:	ff010113          	add	sp,sp,-16
   10598:	00112623          	sw	ra,12(sp)
   1059c:	185000ef          	jal	0x10f20
   105a0:	00c12083          	lw	ra,12(sp)
   105a4:	00000513          	li	a0,0
   105a8:	01010113          	add	sp,sp,16
   105ac:	00008067          	ret
   105b0:	fe010113          	add	sp,sp,-32
   105b4:	00000797          	auipc	a5,0x0
   105b8:	efc78793          	add	a5,a5,-260 # 0x104b0
   105bc:	00112e23          	sw	ra,28(sp)
   105c0:	00812c23          	sw	s0,24(sp)
   105c4:	00912a23          	sw	s1,20(sp)
   105c8:	fa818413          	add	s0,gp,-88
   105cc:	01212823          	sw	s2,16(sp)
   105d0:	01312623          	sw	s3,12(sp)
   105d4:	01412423          	sw	s4,8(sp)
   105d8:	00800613          	li	a2,8
   105dc:	00000593          	li	a1,0
   105e0:	f4f1a623          	sw	a5,-180(gp)
   105e4:	00418513          	add	a0,gp,4
   105e8:	00400793          	li	a5,4
   105ec:	00f42623          	sw	a5,12(s0)
   105f0:	00042023          	sw	zero,0(s0)
   105f4:	00042223          	sw	zero,4(s0)
   105f8:	00042423          	sw	zero,8(s0)
   105fc:	06042223          	sw	zero,100(s0)
   10600:	00042823          	sw	zero,16(s0)
   10604:	00042a23          	sw	zero,20(s0)
   10608:	00042c23          	sw	zero,24(s0)
   1060c:	119000ef          	jal	0x10f24
   10610:	00000a17          	auipc	s4,0x0
   10614:	460a0a13          	add	s4,s4,1120 # 0x10a70
   10618:	00000997          	auipc	s3,0x0
   1061c:	4bc98993          	add	s3,s3,1212 # 0x10ad4
   10620:	00000917          	auipc	s2,0x0
   10624:	53c90913          	add	s2,s2,1340 # 0x10b5c
   10628:	00000497          	auipc	s1,0x0
   1062c:	5ac48493          	add	s1,s1,1452 # 0x10bd4
   10630:	00018513          	mv	a0,gp
   10634:	03442023          	sw	s4,32(s0)
   10638:	03342223          	sw	s3,36(s0)
   1063c:	03242423          	sw	s2,40(s0)
   10640:	02942623          	sw	s1,44(s0)
   10644:	00842e23          	sw	s0,28(s0)
   10648:	0b1000ef          	jal	0x10ef8
   1064c:	000107b7          	lui	a5,0x10
   10650:	00978793          	add	a5,a5,9 # 0x10009
   10654:	00800613          	li	a2,8
   10658:	00000593          	li	a1,0
   1065c:	06c18513          	add	a0,gp,108
   10660:	06f42a23          	sw	a5,116(s0)
   10664:	06042423          	sw	zero,104(s0)
   10668:	06042623          	sw	zero,108(s0)
   1066c:	06042823          	sw	zero,112(s0)
   10670:	0c042623          	sw	zero,204(s0)
   10674:	06042c23          	sw	zero,120(s0)
   10678:	06042e23          	sw	zero,124(s0)
   1067c:	08042023          	sw	zero,128(s0)
   10680:	0a5000ef          	jal	0x10f24
   10684:	01018793          	add	a5,gp,16
   10688:	06818513          	add	a0,gp,104
   1068c:	08f42223          	sw	a5,132(s0)
   10690:	09442423          	sw	s4,136(s0)
   10694:	09342623          	sw	s3,140(s0)
   10698:	09242823          	sw	s2,144(s0)
   1069c:	08942a23          	sw	s1,148(s0)
   106a0:	059000ef          	jal	0x10ef8
   106a4:	000207b7          	lui	a5,0x20
   106a8:	01278793          	add	a5,a5,18 # 0x20012
   106ac:	00800613          	li	a2,8
   106b0:	00000593          	li	a1,0
   106b4:	0d418513          	add	a0,gp,212
   106b8:	0cf42e23          	sw	a5,220(s0)
   106bc:	0c042823          	sw	zero,208(s0)
   106c0:	0c042a23          	sw	zero,212(s0)
   106c4:	0c042c23          	sw	zero,216(s0)
   106c8:	12042a23          	sw	zero,308(s0)
   106cc:	0e042023          	sw	zero,224(s0)
   106d0:	0e042223          	sw	zero,228(s0)
   106d4:	0e042423          	sw	zero,232(s0)
   106d8:	04d000ef          	jal	0x10f24
   106dc:	07818793          	add	a5,gp,120
   106e0:	0f442823          	sw	s4,240(s0)
   106e4:	0f342a23          	sw	s3,244(s0)
   106e8:	0f242c23          	sw	s2,248(s0)
   106ec:	0e942e23          	sw	s1,252(s0)
   106f0:	0ef42623          	sw	a5,236(s0)
   106f4:	01812403          	lw	s0,24(sp)
   106f8:	01c12083          	lw	ra,28(sp)
   106fc:	01412483          	lw	s1,20(sp)
   10700:	01012903          	lw	s2,16(sp)
   10704:	00c12983          	lw	s3,12(sp)
   10708:	00812a03          	lw	s4,8(sp)
   1070c:	0d018513          	add	a0,gp,208
   10710:	02010113          	add	sp,sp,32
   10714:	7e40006f          	j	0x10ef8
   10718:	fe010113          	add	sp,sp,-32
   1071c:	01312623          	sw	s3,12(sp)
   10720:	00050993          	mv	s3,a0
   10724:	f7018513          	add	a0,gp,-144
   10728:	00112e23          	sw	ra,28(sp)
   1072c:	00812c23          	sw	s0,24(sp)
   10730:	00912a23          	sw	s1,20(sp)
   10734:	01212823          	sw	s2,16(sp)
   10738:	7d0000ef          	jal	0x10f08
   1073c:	f4c1a783          	lw	a5,-180(gp)
   10740:	10078063          	beqz	a5,0x10840
   10744:	00013917          	auipc	s2,0x13
   10748:	a8c90913          	add	s2,s2,-1396 # 0x231d0
   1074c:	fff00493          	li	s1,-1
   10750:	00492783          	lw	a5,4(s2)
   10754:	00892403          	lw	s0,8(s2)
   10758:	fff78793          	add	a5,a5,-1
   1075c:	0007d863          	bgez	a5,0x1076c
   10760:	0900006f          	j	0x107f0
   10764:	06840413          	add	s0,s0,104
   10768:	08978463          	beq	a5,s1,0x107f0
   1076c:	00c41703          	lh	a4,12(s0)
   10770:	fff78793          	add	a5,a5,-1
   10774:	fe0718e3          	bnez	a4,0x10764
   10778:	ffff07b7          	lui	a5,0xffff0
   1077c:	00178793          	add	a5,a5,1 # 0xffff0001
   10780:	00f42623          	sw	a5,12(s0)
   10784:	05840513          	add	a0,s0,88
   10788:	06042223          	sw	zero,100(s0)
   1078c:	76c000ef          	jal	0x10ef8
   10790:	f7018513          	add	a0,gp,-144
   10794:	78c000ef          	jal	0x10f20
   10798:	00800613          	li	a2,8
   1079c:	00042023          	sw	zero,0(s0)
   107a0:	00042423          	sw	zero,8(s0)
   107a4:	00042223          	sw	zero,4(s0)
   107a8:	00042823          	sw	zero,16(s0)
   107ac:	00042a23          	sw	zero,20(s0)
   107b0:	00042c23          	sw	zero,24(s0)
   107b4:	00000593          	li	a1,0
   107b8:	05c40513          	add	a0,s0,92
   107bc:	768000ef          	jal	0x10f24
   107c0:	02042823          	sw	zero,48(s0)
   107c4:	02042a23          	sw	zero,52(s0)
   107c8:	04042223          	sw	zero,68(s0)
   107cc:	04042423          	sw	zero,72(s0)
   107d0:	01c12083          	lw	ra,28(sp)
   107d4:	00040513          	mv	a0,s0
   107d8:	01812403          	lw	s0,24(sp)
   107dc:	01412483          	lw	s1,20(sp)
   107e0:	01012903          	lw	s2,16(sp)
   107e4:	00c12983          	lw	s3,12(sp)
   107e8:	02010113          	add	sp,sp,32
   107ec:	00008067          	ret
   107f0:	00092403          	lw	s0,0(s2)
   107f4:	00040663          	beqz	s0,0x10800
   107f8:	00040913          	mv	s2,s0
   107fc:	f55ff06f          	j	0x10750
   10800:	1ac00593          	li	a1,428
   10804:	00098513          	mv	a0,s3
   10808:	669000ef          	jal	0x11670
   1080c:	00050413          	mv	s0,a0
   10810:	02050c63          	beqz	a0,0x10848
   10814:	00c50513          	add	a0,a0,12
   10818:	00400793          	li	a5,4
   1081c:	00042023          	sw	zero,0(s0)
   10820:	00f42223          	sw	a5,4(s0)
   10824:	00a42423          	sw	a0,8(s0)
   10828:	1a000613          	li	a2,416
   1082c:	00000593          	li	a1,0
   10830:	6f4000ef          	jal	0x10f24
   10834:	00892023          	sw	s0,0(s2)
   10838:	00040913          	mv	s2,s0
   1083c:	f15ff06f          	j	0x10750
   10840:	d71ff0ef          	jal	0x105b0
   10844:	f01ff06f          	j	0x10744
   10848:	00092023          	sw	zero,0(s2)
   1084c:	f7018513          	add	a0,gp,-144
   10850:	6d0000ef          	jal	0x10f20
   10854:	00c00793          	li	a5,12
   10858:	00f9a023          	sw	a5,0(s3)
   1085c:	f75ff06f          	j	0x107d0
   10860:	ff010113          	add	sp,sp,-16
   10864:	00812423          	sw	s0,8(sp)
   10868:	00050413          	mv	s0,a0
   1086c:	f7018513          	add	a0,gp,-144
   10870:	00112623          	sw	ra,12(sp)
   10874:	694000ef          	jal	0x10f08
   10878:	03442783          	lw	a5,52(s0)
   1087c:	00079c63          	bnez	a5,0x10894
   10880:	00000797          	auipc	a5,0x0
   10884:	c4c78793          	add	a5,a5,-948 # 0x104cc
   10888:	02f42a23          	sw	a5,52(s0)
   1088c:	f4c1a783          	lw	a5,-180(gp)
   10890:	00078c63          	beqz	a5,0x108a8
   10894:	00812403          	lw	s0,8(sp)
   10898:	00c12083          	lw	ra,12(sp)
   1089c:	f7018513          	add	a0,gp,-144
   108a0:	01010113          	add	sp,sp,16
   108a4:	67c0006f          	j	0x10f20
   108a8:	d09ff0ef          	jal	0x105b0
   108ac:	00812403          	lw	s0,8(sp)
   108b0:	00c12083          	lw	ra,12(sp)
   108b4:	f7018513          	add	a0,gp,-144
   108b8:	01010113          	add	sp,sp,16
   108bc:	6640006f          	j	0x10f20
   108c0:	f7018513          	add	a0,gp,-144
   108c4:	6440006f          	j	0x10f08
   108c8:	f7018513          	add	a0,gp,-144
   108cc:	6540006f          	j	0x10f20
   108d0:	ff010113          	add	sp,sp,-16
   108d4:	f7018513          	add	a0,gp,-144
   108d8:	00112623          	sw	ra,12(sp)
   108dc:	62c000ef          	jal	0x10f08
   108e0:	00c12083          	lw	ra,12(sp)
   108e4:	00013617          	auipc	a2,0x13
   108e8:	8ec60613          	add	a2,a2,-1812 # 0x231d0
   108ec:	00000597          	auipc	a1,0x0
   108f0:	c4458593          	add	a1,a1,-956 # 0x10530
   108f4:	00000513          	li	a0,0
   108f8:	01010113          	add	sp,sp,16
   108fc:	0340006f          	j	0x10930
   10900:	ff010113          	add	sp,sp,-16
   10904:	00013617          	auipc	a2,0x13
   10908:	8cc60613          	add	a2,a2,-1844 # 0x231d0
   1090c:	00000597          	auipc	a1,0x0
   10910:	c6458593          	add	a1,a1,-924 # 0x10570
   10914:	00000513          	li	a0,0
   10918:	00112623          	sw	ra,12(sp)
   1091c:	014000ef          	jal	0x10930
   10920:	00c12083          	lw	ra,12(sp)
   10924:	f7018513          	add	a0,gp,-144
   10928:	01010113          	add	sp,sp,16
   1092c:	5f40006f          	j	0x10f20
   10930:	fd010113          	add	sp,sp,-48
   10934:	03212023          	sw	s2,32(sp)
   10938:	01312e23          	sw	s3,28(sp)
   1093c:	01412c23          	sw	s4,24(sp)
   10940:	01512a23          	sw	s5,20(sp)
   10944:	01612823          	sw	s6,16(sp)
   10948:	01712623          	sw	s7,12(sp)
   1094c:	02112623          	sw	ra,44(sp)
   10950:	02812423          	sw	s0,40(sp)
   10954:	02912223          	sw	s1,36(sp)
   10958:	00050b13          	mv	s6,a0
   1095c:	00058b93          	mv	s7,a1
   10960:	00060a93          	mv	s5,a2
   10964:	00000a13          	li	s4,0
   10968:	00100993          	li	s3,1
   1096c:	fff00913          	li	s2,-1
   10970:	004aa483          	lw	s1,4(s5)
   10974:	008aa403          	lw	s0,8(s5)
   10978:	fff48493          	add	s1,s1,-1
   1097c:	0204c863          	bltz	s1,0x109ac
   10980:	00c45783          	lhu	a5,12(s0)
   10984:	00f9fe63          	bgeu	s3,a5,0x109a0
   10988:	00e41783          	lh	a5,14(s0)
   1098c:	00040593          	mv	a1,s0
   10990:	000b0513          	mv	a0,s6
   10994:	01278663          	beq	a5,s2,0x109a0
   10998:	000b80e7          	jalr	s7
   1099c:	00aa6a33          	or	s4,s4,a0
   109a0:	fff48493          	add	s1,s1,-1
   109a4:	06840413          	add	s0,s0,104
   109a8:	fd249ce3          	bne	s1,s2,0x10980
   109ac:	000aaa83          	lw	s5,0(s5)
   109b0:	fc0a90e3          	bnez	s5,0x10970
   109b4:	02c12083          	lw	ra,44(sp)
   109b8:	02812403          	lw	s0,40(sp)
   109bc:	02412483          	lw	s1,36(sp)
   109c0:	02012903          	lw	s2,32(sp)
   109c4:	01c12983          	lw	s3,28(sp)
   109c8:	01412a83          	lw	s5,20(sp)
   109cc:	01012b03          	lw	s6,16(sp)
   109d0:	00c12b83          	lw	s7,12(sp)
   109d4:	000a0513          	mv	a0,s4
   109d8:	01812a03          	lw	s4,24(sp)
   109dc:	03010113          	add	sp,sp,48
   109e0:	00008067          	ret
   109e4:	fc010113          	add	sp,sp,-64
   109e8:	02c12423          	sw	a2,40(sp)
   109ec:	02d12623          	sw	a3,44(sp)
   109f0:	02e12823          	sw	a4,48(sp)
   109f4:	02f12a23          	sw	a5,52(sp)
   109f8:	03012c23          	sw	a6,56(sp)
   109fc:	03112e23          	sw	a7,60(sp)
   10a00:	00058613          	mv	a2,a1
   10a04:	00852583          	lw	a1,8(a0)
   10a08:	02810693          	add	a3,sp,40
   10a0c:	00112e23          	sw	ra,28(sp)
   10a10:	00d12623          	sw	a3,12(sp)
   10a14:	434010ef          	jal	0x11e48
   10a18:	01c12083          	lw	ra,28(sp)
   10a1c:	04010113          	add	sp,sp,64
   10a20:	00008067          	ret
   10a24:	fc010113          	add	sp,sp,-64
   10a28:	02c12423          	sw	a2,40(sp)
   10a2c:	02d12623          	sw	a3,44(sp)
   10a30:	f341a303          	lw	t1,-204(gp)
   10a34:	02b12223          	sw	a1,36(sp)
   10a38:	02e12823          	sw	a4,48(sp)
   10a3c:	02f12a23          	sw	a5,52(sp)
   10a40:	03012c23          	sw	a6,56(sp)
   10a44:	03112e23          	sw	a7,60(sp)
   10a48:	00832583          	lw	a1,8(t1) # 0x1030c
   10a4c:	02410693          	add	a3,sp,36
   10a50:	00050613          	mv	a2,a0
   10a54:	00030513          	mv	a0,t1
   10a58:	00112e23          	sw	ra,28(sp)
   10a5c:	00d12623          	sw	a3,12(sp)
   10a60:	3e8010ef          	jal	0x11e48
   10a64:	01c12083          	lw	ra,28(sp)
   10a68:	04010113          	add	sp,sp,64
   10a6c:	00008067          	ret
   10a70:	ff010113          	add	sp,sp,-16
   10a74:	00812423          	sw	s0,8(sp)
   10a78:	00058413          	mv	s0,a1
   10a7c:	00e59583          	lh	a1,14(a1)
   10a80:	00112623          	sw	ra,12(sp)
   10a84:	2c8000ef          	jal	0x10d4c
   10a88:	02054063          	bltz	a0,0x10aa8
   10a8c:	05042783          	lw	a5,80(s0)
   10a90:	00c12083          	lw	ra,12(sp)
   10a94:	00a787b3          	add	a5,a5,a0
   10a98:	04f42823          	sw	a5,80(s0)
   10a9c:	00812403          	lw	s0,8(sp)
   10aa0:	01010113          	add	sp,sp,16
   10aa4:	00008067          	ret
   10aa8:	00c45783          	lhu	a5,12(s0)
   10aac:	fffff737          	lui	a4,0xfffff
   10ab0:	fff70713          	add	a4,a4,-1 # 0xffffefff
   10ab4:	00e7f7b3          	and	a5,a5,a4
   10ab8:	00c12083          	lw	ra,12(sp)
   10abc:	00f41623          	sh	a5,12(s0)
   10ac0:	00812403          	lw	s0,8(sp)
   10ac4:	01010113          	add	sp,sp,16
   10ac8:	00008067          	ret
   10acc:	00000513          	li	a0,0
   10ad0:	00008067          	ret
   10ad4:	00c59783          	lh	a5,12(a1)
   10ad8:	fe010113          	add	sp,sp,-32
   10adc:	00812c23          	sw	s0,24(sp)
   10ae0:	00912a23          	sw	s1,20(sp)
   10ae4:	01212823          	sw	s2,16(sp)
   10ae8:	01312623          	sw	s3,12(sp)
   10aec:	00112e23          	sw	ra,28(sp)
   10af0:	1007f713          	and	a4,a5,256
   10af4:	00058413          	mv	s0,a1
   10af8:	00050493          	mv	s1,a0
   10afc:	00060913          	mv	s2,a2
   10b00:	00068993          	mv	s3,a3
   10b04:	04071063          	bnez	a4,0x10b44
   10b08:	fffff737          	lui	a4,0xfffff
   10b0c:	fff70713          	add	a4,a4,-1 # 0xffffefff
   10b10:	00e7f7b3          	and	a5,a5,a4
   10b14:	00e41583          	lh	a1,14(s0)
   10b18:	00f41623          	sh	a5,12(s0)
   10b1c:	01812403          	lw	s0,24(sp)
   10b20:	01c12083          	lw	ra,28(sp)
   10b24:	00098693          	mv	a3,s3
   10b28:	00090613          	mv	a2,s2
   10b2c:	00c12983          	lw	s3,12(sp)
   10b30:	01012903          	lw	s2,16(sp)
   10b34:	00048513          	mv	a0,s1
   10b38:	01412483          	lw	s1,20(sp)
   10b3c:	02010113          	add	sp,sp,32
   10b40:	2680006f          	j	0x10da8
   10b44:	00e59583          	lh	a1,14(a1)
   10b48:	00200693          	li	a3,2
   10b4c:	00000613          	li	a2,0
   10b50:	1a0000ef          	jal	0x10cf0
   10b54:	00c41783          	lh	a5,12(s0)
   10b58:	fb1ff06f          	j	0x10b08
   10b5c:	ff010113          	add	sp,sp,-16
   10b60:	00812423          	sw	s0,8(sp)
   10b64:	00058413          	mv	s0,a1
   10b68:	00e59583          	lh	a1,14(a1)
   10b6c:	00112623          	sw	ra,12(sp)
   10b70:	180000ef          	jal	0x10cf0
   10b74:	fff00793          	li	a5,-1
   10b78:	02f50863          	beq	a0,a5,0x10ba8
   10b7c:	00c45783          	lhu	a5,12(s0)
   10b80:	00001737          	lui	a4,0x1
   10b84:	00c12083          	lw	ra,12(sp)
   10b88:	00e7e7b3          	or	a5,a5,a4
   10b8c:	01079793          	sll	a5,a5,0x10
   10b90:	4107d793          	sra	a5,a5,0x10
   10b94:	04a42823          	sw	a0,80(s0)
   10b98:	00f41623          	sh	a5,12(s0)
   10b9c:	00812403          	lw	s0,8(sp)
   10ba0:	01010113          	add	sp,sp,16
   10ba4:	00008067          	ret
   10ba8:	00c45783          	lhu	a5,12(s0)
   10bac:	fffff737          	lui	a4,0xfffff
   10bb0:	fff70713          	add	a4,a4,-1 # 0xffffefff
   10bb4:	00e7f7b3          	and	a5,a5,a4
   10bb8:	01079793          	sll	a5,a5,0x10
   10bbc:	4107d793          	sra	a5,a5,0x10
   10bc0:	00c12083          	lw	ra,12(sp)
   10bc4:	00f41623          	sh	a5,12(s0)
   10bc8:	00812403          	lw	s0,8(sp)
   10bcc:	01010113          	add	sp,sp,16
   10bd0:	00008067          	ret
   10bd4:	00e59583          	lh	a1,14(a1)
   10bd8:	0040006f          	j	0x10bdc
   10bdc:	ff010113          	add	sp,sp,-16
   10be0:	00812423          	sw	s0,8(sp)
   10be4:	00050413          	mv	s0,a0
   10be8:	00058513          	mv	a0,a1
   10bec:	f401a823          	sw	zero,-176(gp)
   10bf0:	00112623          	sw	ra,12(sp)
   10bf4:	3540d0ef          	jal	0x1df48
   10bf8:	fff00793          	li	a5,-1
   10bfc:	00f50a63          	beq	a0,a5,0x10c10
   10c00:	00c12083          	lw	ra,12(sp)
   10c04:	00812403          	lw	s0,8(sp)
   10c08:	01010113          	add	sp,sp,16
   10c0c:	00008067          	ret
   10c10:	f501a783          	lw	a5,-176(gp)
   10c14:	fe0786e3          	beqz	a5,0x10c00
   10c18:	00c12083          	lw	ra,12(sp)
   10c1c:	00f42023          	sw	a5,0(s0)
   10c20:	00812403          	lw	s0,8(sp)
   10c24:	01010113          	add	sp,sp,16
   10c28:	00008067          	ret
   10c2c:	f341a783          	lw	a5,-204(gp)
   10c30:	0aa78e63          	beq	a5,a0,0x10cec
   10c34:	04452583          	lw	a1,68(a0)
   10c38:	fe010113          	add	sp,sp,-32
   10c3c:	00912a23          	sw	s1,20(sp)
   10c40:	00112e23          	sw	ra,28(sp)
   10c44:	00050493          	mv	s1,a0
   10c48:	04058c63          	beqz	a1,0x10ca0
   10c4c:	01212823          	sw	s2,16(sp)
   10c50:	01312623          	sw	s3,12(sp)
   10c54:	00812c23          	sw	s0,24(sp)
   10c58:	00000913          	li	s2,0
   10c5c:	08000993          	li	s3,128
   10c60:	012587b3          	add	a5,a1,s2
   10c64:	0007a403          	lw	s0,0(a5)
   10c68:	00040e63          	beqz	s0,0x10c84
   10c6c:	00040593          	mv	a1,s0
   10c70:	00042403          	lw	s0,0(s0)
   10c74:	00048513          	mv	a0,s1
   10c78:	6f4000ef          	jal	0x1136c
   10c7c:	fe0418e3          	bnez	s0,0x10c6c
   10c80:	0444a583          	lw	a1,68(s1)
   10c84:	00490913          	add	s2,s2,4
   10c88:	fd391ce3          	bne	s2,s3,0x10c60
   10c8c:	00048513          	mv	a0,s1
   10c90:	6dc000ef          	jal	0x1136c
   10c94:	01812403          	lw	s0,24(sp)
   10c98:	01012903          	lw	s2,16(sp)
   10c9c:	00c12983          	lw	s3,12(sp)
   10ca0:	0384a583          	lw	a1,56(s1)
   10ca4:	00058663          	beqz	a1,0x10cb0
   10ca8:	00048513          	mv	a0,s1
   10cac:	6c0000ef          	jal	0x1136c
   10cb0:	04c4a583          	lw	a1,76(s1)
   10cb4:	00058663          	beqz	a1,0x10cc0
   10cb8:	00048513          	mv	a0,s1
   10cbc:	6b0000ef          	jal	0x1136c
   10cc0:	0344a783          	lw	a5,52(s1)
   10cc4:	00078c63          	beqz	a5,0x10cdc
   10cc8:	01c12083          	lw	ra,28(sp)
   10ccc:	00048513          	mv	a0,s1
   10cd0:	01412483          	lw	s1,20(sp)
   10cd4:	02010113          	add	sp,sp,32
   10cd8:	00078067          	jr	a5
   10cdc:	01c12083          	lw	ra,28(sp)
   10ce0:	01412483          	lw	s1,20(sp)
   10ce4:	02010113          	add	sp,sp,32
   10ce8:	00008067          	ret
   10cec:	00008067          	ret
   10cf0:	ff010113          	add	sp,sp,-16
   10cf4:	00058713          	mv	a4,a1
   10cf8:	00812423          	sw	s0,8(sp)
   10cfc:	00060593          	mv	a1,a2
   10d00:	00050413          	mv	s0,a0
   10d04:	00068613          	mv	a2,a3
   10d08:	00070513          	mv	a0,a4
   10d0c:	f401a823          	sw	zero,-176(gp)
   10d10:	00112623          	sw	ra,12(sp)
   10d14:	3740d0ef          	jal	0x1e088
   10d18:	fff00793          	li	a5,-1
   10d1c:	00f50a63          	beq	a0,a5,0x10d30
   10d20:	00c12083          	lw	ra,12(sp)
   10d24:	00812403          	lw	s0,8(sp)
   10d28:	01010113          	add	sp,sp,16
   10d2c:	00008067          	ret
   10d30:	f501a783          	lw	a5,-176(gp)
   10d34:	fe0786e3          	beqz	a5,0x10d20
   10d38:	00c12083          	lw	ra,12(sp)
   10d3c:	00f42023          	sw	a5,0(s0)
   10d40:	00812403          	lw	s0,8(sp)
   10d44:	01010113          	add	sp,sp,16
   10d48:	00008067          	ret
   10d4c:	ff010113          	add	sp,sp,-16
   10d50:	00058713          	mv	a4,a1
   10d54:	00812423          	sw	s0,8(sp)
   10d58:	00060593          	mv	a1,a2
   10d5c:	00050413          	mv	s0,a0
   10d60:	00068613          	mv	a2,a3
   10d64:	00070513          	mv	a0,a4
   10d68:	f401a823          	sw	zero,-176(gp)
   10d6c:	00112623          	sw	ra,12(sp)
   10d70:	35c0d0ef          	jal	0x1e0cc
   10d74:	fff00793          	li	a5,-1
   10d78:	00f50a63          	beq	a0,a5,0x10d8c
   10d7c:	00c12083          	lw	ra,12(sp)
   10d80:	00812403          	lw	s0,8(sp)
   10d84:	01010113          	add	sp,sp,16
   10d88:	00008067          	ret
   10d8c:	f501a783          	lw	a5,-176(gp)
   10d90:	fe0786e3          	beqz	a5,0x10d7c
   10d94:	00c12083          	lw	ra,12(sp)
   10d98:	00f42023          	sw	a5,0(s0)
   10d9c:	00812403          	lw	s0,8(sp)
   10da0:	01010113          	add	sp,sp,16
   10da4:	00008067          	ret
   10da8:	ff010113          	add	sp,sp,-16
   10dac:	00058713          	mv	a4,a1
   10db0:	00812423          	sw	s0,8(sp)
   10db4:	00060593          	mv	a1,a2
   10db8:	00050413          	mv	s0,a0
   10dbc:	00068613          	mv	a2,a3
   10dc0:	00070513          	mv	a0,a4
   10dc4:	f401a823          	sw	zero,-176(gp)
   10dc8:	00112623          	sw	ra,12(sp)
   10dcc:	3c00d0ef          	jal	0x1e18c
   10dd0:	fff00793          	li	a5,-1
   10dd4:	00f50a63          	beq	a0,a5,0x10de8
   10dd8:	00c12083          	lw	ra,12(sp)
   10ddc:	00812403          	lw	s0,8(sp)
   10de0:	01010113          	add	sp,sp,16
   10de4:	00008067          	ret
   10de8:	f501a783          	lw	a5,-176(gp)
   10dec:	fe0786e3          	beqz	a5,0x10dd8
   10df0:	00c12083          	lw	ra,12(sp)
   10df4:	00f42023          	sw	a5,0(s0)
   10df8:	00812403          	lw	s0,8(sp)
   10dfc:	01010113          	add	sp,sp,16
   10e00:	00008067          	ret
   10e04:	ff010113          	add	sp,sp,-16
   10e08:	00812423          	sw	s0,8(sp)
   10e0c:	01212023          	sw	s2,0(sp)
   10e10:	00012797          	auipc	a5,0x12
   10e14:	3b078793          	add	a5,a5,944 # 0x231c0
   10e18:	00012417          	auipc	s0,0x12
   10e1c:	3a840413          	add	s0,s0,936 # 0x231c0
   10e20:	00112623          	sw	ra,12(sp)
   10e24:	00912223          	sw	s1,4(sp)
   10e28:	40878933          	sub	s2,a5,s0
   10e2c:	02878063          	beq	a5,s0,0x10e4c
   10e30:	40295913          	sra	s2,s2,0x2
   10e34:	00000493          	li	s1,0
   10e38:	00042783          	lw	a5,0(s0)
   10e3c:	00148493          	add	s1,s1,1
   10e40:	00440413          	add	s0,s0,4
   10e44:	000780e7          	jalr	a5
   10e48:	ff24e8e3          	bltu	s1,s2,0x10e38
   10e4c:	00012797          	auipc	a5,0x12
   10e50:	37c78793          	add	a5,a5,892 # 0x231c8
   10e54:	00012417          	auipc	s0,0x12
   10e58:	36c40413          	add	s0,s0,876 # 0x231c0
   10e5c:	40878933          	sub	s2,a5,s0
   10e60:	40295913          	sra	s2,s2,0x2
   10e64:	00878e63          	beq	a5,s0,0x10e80
   10e68:	00000493          	li	s1,0
   10e6c:	00042783          	lw	a5,0(s0)
   10e70:	00148493          	add	s1,s1,1
   10e74:	00440413          	add	s0,s0,4
   10e78:	000780e7          	jalr	a5
   10e7c:	ff24e8e3          	bltu	s1,s2,0x10e6c
   10e80:	00c12083          	lw	ra,12(sp)
   10e84:	00812403          	lw	s0,8(sp)
   10e88:	00412483          	lw	s1,4(sp)
   10e8c:	00012903          	lw	s2,0(sp)
   10e90:	01010113          	add	sp,sp,16
   10e94:	00008067          	ret
   10e98:	ff010113          	add	sp,sp,-16
   10e9c:	00812423          	sw	s0,8(sp)
   10ea0:	00012797          	auipc	a5,0x12
   10ea4:	32878793          	add	a5,a5,808 # 0x231c8
   10ea8:	00012417          	auipc	s0,0x12
   10eac:	32440413          	add	s0,s0,804 # 0x231cc
   10eb0:	40f40433          	sub	s0,s0,a5
   10eb4:	00912223          	sw	s1,4(sp)
   10eb8:	00112623          	sw	ra,12(sp)
   10ebc:	40245493          	sra	s1,s0,0x2
   10ec0:	02048063          	beqz	s1,0x10ee0
   10ec4:	ffc40413          	add	s0,s0,-4
   10ec8:	00f40433          	add	s0,s0,a5
   10ecc:	00042783          	lw	a5,0(s0)
   10ed0:	fff48493          	add	s1,s1,-1
   10ed4:	ffc40413          	add	s0,s0,-4
   10ed8:	000780e7          	jalr	a5
   10edc:	fe0498e3          	bnez	s1,0x10ecc
   10ee0:	00c12083          	lw	ra,12(sp)
   10ee4:	00812403          	lw	s0,8(sp)
   10ee8:	00412483          	lw	s1,4(sp)
   10eec:	01010113          	add	sp,sp,16
   10ef0:	00008067          	ret
   10ef4:	00008067          	ret
   10ef8:	00008067          	ret
   10efc:	00008067          	ret
   10f00:	00008067          	ret
   10f04:	00008067          	ret
   10f08:	00008067          	ret
   10f0c:	00100513          	li	a0,1
   10f10:	00008067          	ret
   10f14:	00100513          	li	a0,1
   10f18:	00008067          	ret
   10f1c:	00008067          	ret
   10f20:	00008067          	ret
   10f24:	00f00313          	li	t1,15
   10f28:	00050713          	mv	a4,a0
   10f2c:	02c37e63          	bgeu	t1,a2,0x10f68
   10f30:	00f77793          	and	a5,a4,15
   10f34:	0a079063          	bnez	a5,0x10fd4
   10f38:	08059263          	bnez	a1,0x10fbc
   10f3c:	ff067693          	and	a3,a2,-16
   10f40:	00f67613          	and	a2,a2,15
   10f44:	00e686b3          	add	a3,a3,a4
   10f48:	00b72023          	sw	a1,0(a4)
   10f4c:	00b72223          	sw	a1,4(a4)
   10f50:	00b72423          	sw	a1,8(a4)
   10f54:	00b72623          	sw	a1,12(a4)
   10f58:	01070713          	add	a4,a4,16
   10f5c:	fed766e3          	bltu	a4,a3,0x10f48
   10f60:	00061463          	bnez	a2,0x10f68
   10f64:	00008067          	ret
   10f68:	40c306b3          	sub	a3,t1,a2
   10f6c:	00269693          	sll	a3,a3,0x2
   10f70:	00000297          	auipc	t0,0x0
   10f74:	005686b3          	add	a3,a3,t0
   10f78:	00c68067          	jr	12(a3)
   10f7c:	00b70723          	sb	a1,14(a4)
   10f80:	00b706a3          	sb	a1,13(a4)
   10f84:	00b70623          	sb	a1,12(a4)
   10f88:	00b705a3          	sb	a1,11(a4)
   10f8c:	00b70523          	sb	a1,10(a4)
   10f90:	00b704a3          	sb	a1,9(a4)
   10f94:	00b70423          	sb	a1,8(a4)
   10f98:	00b703a3          	sb	a1,7(a4)
   10f9c:	00b70323          	sb	a1,6(a4)
   10fa0:	00b702a3          	sb	a1,5(a4)
   10fa4:	00b70223          	sb	a1,4(a4)
   10fa8:	00b701a3          	sb	a1,3(a4)
   10fac:	00b70123          	sb	a1,2(a4)
   10fb0:	00b700a3          	sb	a1,1(a4)
   10fb4:	00b70023          	sb	a1,0(a4)
   10fb8:	00008067          	ret
   10fbc:	0ff5f593          	zext.b	a1,a1
   10fc0:	00859693          	sll	a3,a1,0x8
   10fc4:	00d5e5b3          	or	a1,a1,a3
   10fc8:	01059693          	sll	a3,a1,0x10
   10fcc:	00d5e5b3          	or	a1,a1,a3
   10fd0:	f6dff06f          	j	0x10f3c
   10fd4:	00279693          	sll	a3,a5,0x2
   10fd8:	00000297          	auipc	t0,0x0
   10fdc:	005686b3          	add	a3,a3,t0
   10fe0:	00008293          	mv	t0,ra
   10fe4:	fa0680e7          	jalr	-96(a3)
   10fe8:	00028093          	mv	ra,t0
   10fec:	ff078793          	add	a5,a5,-16
   10ff0:	40f70733          	sub	a4,a4,a5
   10ff4:	00f60633          	add	a2,a2,a5
   10ff8:	f6c378e3          	bgeu	t1,a2,0x10f68
   10ffc:	f3dff06f          	j	0x10f38
   11000:	fe010113          	add	sp,sp,-32
   11004:	01212823          	sw	s2,16(sp)
   11008:	f3818913          	add	s2,gp,-200
   1100c:	00812c23          	sw	s0,24(sp)
   11010:	00050413          	mv	s0,a0
   11014:	00092503          	lw	a0,0(s2)
   11018:	00912a23          	sw	s1,20(sp)
   1101c:	01312623          	sw	s3,12(sp)
   11020:	01412423          	sw	s4,8(sp)
   11024:	00112e23          	sw	ra,28(sp)
   11028:	00058493          	mv	s1,a1
   1102c:	00060a13          	mv	s4,a2
   11030:	00068993          	mv	s3,a3
   11034:	ed5ff0ef          	jal	0x10f08
   11038:	f7418713          	add	a4,gp,-140
   1103c:	00072783          	lw	a5,0(a4)
   11040:	08078663          	beqz	a5,0x110cc
   11044:	0047a703          	lw	a4,4(a5)
   11048:	01f00593          	li	a1,31
   1104c:	00092503          	lw	a0,0(s2)
   11050:	08e5c463          	blt	a1,a4,0x110d8
   11054:	00271593          	sll	a1,a4,0x2
   11058:	02041e63          	bnez	s0,0x11094
   1105c:	00170713          	add	a4,a4,1
   11060:	00e7a223          	sw	a4,4(a5)
   11064:	00b787b3          	add	a5,a5,a1
   11068:	0097a423          	sw	s1,8(a5)
   1106c:	eb5ff0ef          	jal	0x10f20
   11070:	00000513          	li	a0,0
   11074:	01c12083          	lw	ra,28(sp)
   11078:	01812403          	lw	s0,24(sp)
   1107c:	01412483          	lw	s1,20(sp)
   11080:	01012903          	lw	s2,16(sp)
   11084:	00c12983          	lw	s3,12(sp)
   11088:	00812a03          	lw	s4,8(sp)
   1108c:	02010113          	add	sp,sp,32
   11090:	00008067          	ret
   11094:	00b78833          	add	a6,a5,a1
   11098:	09482423          	sw	s4,136(a6)
   1109c:	1887a683          	lw	a3,392(a5)
   110a0:	00100613          	li	a2,1
   110a4:	00e61633          	sll	a2,a2,a4
   110a8:	00c6e6b3          	or	a3,a3,a2
   110ac:	18d7a423          	sw	a3,392(a5)
   110b0:	11382423          	sw	s3,264(a6)
   110b4:	00200693          	li	a3,2
   110b8:	fad412e3          	bne	s0,a3,0x1105c
   110bc:	18c7a683          	lw	a3,396(a5)
   110c0:	00c6e6b3          	or	a3,a3,a2
   110c4:	18d7a623          	sw	a3,396(a5)
   110c8:	f95ff06f          	j	0x1105c
   110cc:	0e018793          	add	a5,gp,224
   110d0:	00f72023          	sw	a5,0(a4)
   110d4:	f71ff06f          	j	0x11044
   110d8:	e49ff0ef          	jal	0x10f20
   110dc:	fff00513          	li	a0,-1
   110e0:	f95ff06f          	j	0x11074
   110e4:	fd010113          	add	sp,sp,-48
   110e8:	01712623          	sw	s7,12(sp)
   110ec:	f3818b93          	add	s7,gp,-200
   110f0:	01612823          	sw	s6,16(sp)
   110f4:	00050b13          	mv	s6,a0
   110f8:	000ba503          	lw	a0,0(s7)
   110fc:	01412c23          	sw	s4,24(sp)
   11100:	f7418a13          	add	s4,gp,-140
   11104:	03212023          	sw	s2,32(sp)
   11108:	01812423          	sw	s8,8(sp)
   1110c:	02112623          	sw	ra,44(sp)
   11110:	00058c13          	mv	s8,a1
   11114:	df5ff0ef          	jal	0x10f08
   11118:	000a2903          	lw	s2,0(s4)
   1111c:	08090c63          	beqz	s2,0x111b4
   11120:	01312e23          	sw	s3,28(sp)
   11124:	01512a23          	sw	s5,20(sp)
   11128:	02812423          	sw	s0,40(sp)
   1112c:	02912223          	sw	s1,36(sp)
   11130:	01912223          	sw	s9,4(sp)
   11134:	fff00993          	li	s3,-1
   11138:	00100a93          	li	s5,1
   1113c:	00492483          	lw	s1,4(s2)
   11140:	fff48413          	add	s0,s1,-1
   11144:	04044e63          	bltz	s0,0x111a0
   11148:	00249493          	sll	s1,s1,0x2
   1114c:	009904b3          	add	s1,s2,s1
   11150:	080c1463          	bnez	s8,0x111d8
   11154:	00492783          	lw	a5,4(s2)
   11158:	0044a683          	lw	a3,4(s1)
   1115c:	fff78793          	add	a5,a5,-1
   11160:	0c878063          	beq	a5,s0,0x11220
   11164:	0004a223          	sw	zero,4(s1)
   11168:	02068663          	beqz	a3,0x11194
   1116c:	18892783          	lw	a5,392(s2)
   11170:	008a9733          	sll	a4,s5,s0
   11174:	00492c83          	lw	s9,4(s2)
   11178:	00f777b3          	and	a5,a4,a5
   1117c:	06079a63          	bnez	a5,0x111f0
   11180:	000680e7          	jalr	a3
   11184:	00492703          	lw	a4,4(s2)
   11188:	000a2783          	lw	a5,0(s4)
   1118c:	09971463          	bne	a4,s9,0x11214
   11190:	09279263          	bne	a5,s2,0x11214
   11194:	fff40413          	add	s0,s0,-1
   11198:	ffc48493          	add	s1,s1,-4
   1119c:	fb341ae3          	bne	s0,s3,0x11150
   111a0:	02812403          	lw	s0,40(sp)
   111a4:	02412483          	lw	s1,36(sp)
   111a8:	01c12983          	lw	s3,28(sp)
   111ac:	01412a83          	lw	s5,20(sp)
   111b0:	00412c83          	lw	s9,4(sp)
   111b4:	000ba503          	lw	a0,0(s7)
   111b8:	02c12083          	lw	ra,44(sp)
   111bc:	02012903          	lw	s2,32(sp)
   111c0:	01812a03          	lw	s4,24(sp)
   111c4:	01012b03          	lw	s6,16(sp)
   111c8:	00c12b83          	lw	s7,12(sp)
   111cc:	00812c03          	lw	s8,8(sp)
   111d0:	03010113          	add	sp,sp,48
   111d4:	d4dff06f          	j	0x10f20
   111d8:	1044a783          	lw	a5,260(s1)
   111dc:	f7878ce3          	beq	a5,s8,0x11154
   111e0:	fff40413          	add	s0,s0,-1
   111e4:	ffc48493          	add	s1,s1,-4
   111e8:	ff3418e3          	bne	s0,s3,0x111d8
   111ec:	fb5ff06f          	j	0x111a0
   111f0:	18c92783          	lw	a5,396(s2)
   111f4:	0844a583          	lw	a1,132(s1)
   111f8:	00f77733          	and	a4,a4,a5
   111fc:	02071663          	bnez	a4,0x11228
   11200:	000b0513          	mv	a0,s6
   11204:	000680e7          	jalr	a3
   11208:	00492703          	lw	a4,4(s2)
   1120c:	000a2783          	lw	a5,0(s4)
   11210:	f99700e3          	beq	a4,s9,0x11190
   11214:	f80786e3          	beqz	a5,0x111a0
   11218:	00078913          	mv	s2,a5
   1121c:	f21ff06f          	j	0x1113c
   11220:	00892223          	sw	s0,4(s2)
   11224:	f45ff06f          	j	0x11168
   11228:	00058513          	mv	a0,a1
   1122c:	000680e7          	jalr	a3
   11230:	f55ff06f          	j	0x11184
   11234:	fe010113          	add	sp,sp,-32
   11238:	00812c23          	sw	s0,24(sp)
   1123c:	00912a23          	sw	s1,20(sp)
   11240:	01212823          	sw	s2,16(sp)
   11244:	01312623          	sw	s3,12(sp)
   11248:	01412423          	sw	s4,8(sp)
   1124c:	00058993          	mv	s3,a1
   11250:	00112e23          	sw	ra,28(sp)
   11254:	00050913          	mv	s2,a0
   11258:	00012a17          	auipc	s4,0x12
   1125c:	0a8a0a13          	add	s4,s4,168 # 0x23300
   11260:	3d9000ef          	jal	0x11e38
   11264:	008a2703          	lw	a4,8(s4)
   11268:	000017b7          	lui	a5,0x1
   1126c:	fef78793          	add	a5,a5,-17 # 0xfef
   11270:	00472483          	lw	s1,4(a4)
   11274:	00001737          	lui	a4,0x1
   11278:	ffc4f493          	and	s1,s1,-4
   1127c:	00f48433          	add	s0,s1,a5
   11280:	41340433          	sub	s0,s0,s3
   11284:	00c45413          	srl	s0,s0,0xc
   11288:	fff40413          	add	s0,s0,-1
   1128c:	00c41413          	sll	s0,s0,0xc
   11290:	00e44e63          	blt	s0,a4,0x112ac
   11294:	00000593          	li	a1,0
   11298:	00090513          	mv	a0,s2
   1129c:	0e8070ef          	jal	0x18384
   112a0:	008a2783          	lw	a5,8(s4)
   112a4:	009787b3          	add	a5,a5,s1
   112a8:	02f50863          	beq	a0,a5,0x112d8
   112ac:	00090513          	mv	a0,s2
   112b0:	391000ef          	jal	0x11e40
   112b4:	01c12083          	lw	ra,28(sp)
   112b8:	01812403          	lw	s0,24(sp)
   112bc:	01412483          	lw	s1,20(sp)
   112c0:	01012903          	lw	s2,16(sp)
   112c4:	00c12983          	lw	s3,12(sp)
   112c8:	00812a03          	lw	s4,8(sp)
   112cc:	00000513          	li	a0,0
   112d0:	02010113          	add	sp,sp,32
   112d4:	00008067          	ret
   112d8:	408005b3          	neg	a1,s0
   112dc:	00090513          	mv	a0,s2
   112e0:	0a4070ef          	jal	0x18384
   112e4:	fff00793          	li	a5,-1
   112e8:	04f50863          	beq	a0,a5,0x11338
   112ec:	27018713          	add	a4,gp,624
   112f0:	00072783          	lw	a5,0(a4) # 0x1000
   112f4:	008a2683          	lw	a3,8(s4)
   112f8:	408484b3          	sub	s1,s1,s0
   112fc:	0014e493          	or	s1,s1,1
   11300:	408787b3          	sub	a5,a5,s0
   11304:	00090513          	mv	a0,s2
   11308:	0096a223          	sw	s1,4(a3)
   1130c:	00f72023          	sw	a5,0(a4)
   11310:	331000ef          	jal	0x11e40
   11314:	01c12083          	lw	ra,28(sp)
   11318:	01812403          	lw	s0,24(sp)
   1131c:	01412483          	lw	s1,20(sp)
   11320:	01012903          	lw	s2,16(sp)
   11324:	00c12983          	lw	s3,12(sp)
   11328:	00812a03          	lw	s4,8(sp)
   1132c:	00100513          	li	a0,1
   11330:	02010113          	add	sp,sp,32
   11334:	00008067          	ret
   11338:	00000593          	li	a1,0
   1133c:	00090513          	mv	a0,s2
   11340:	044070ef          	jal	0x18384
   11344:	008a2703          	lw	a4,8(s4)
   11348:	00f00693          	li	a3,15
   1134c:	40e507b3          	sub	a5,a0,a4
   11350:	f4f6dee3          	bge	a3,a5,0x112ac
   11354:	f3c1a683          	lw	a3,-196(gp)
   11358:	40d50533          	sub	a0,a0,a3
   1135c:	0017e793          	or	a5,a5,1
   11360:	26a1a823          	sw	a0,624(gp)
   11364:	00f72223          	sw	a5,4(a4)
   11368:	f45ff06f          	j	0x112ac
   1136c:	18058263          	beqz	a1,0x114f0
   11370:	ff010113          	add	sp,sp,-16
   11374:	00812423          	sw	s0,8(sp)
   11378:	00912223          	sw	s1,4(sp)
   1137c:	00058413          	mv	s0,a1
   11380:	00050493          	mv	s1,a0
   11384:	00112623          	sw	ra,12(sp)
   11388:	2b1000ef          	jal	0x11e38
   1138c:	ffc42583          	lw	a1,-4(s0)
   11390:	ff840713          	add	a4,s0,-8
   11394:	00012517          	auipc	a0,0x12
   11398:	f6c50513          	add	a0,a0,-148 # 0x23300
   1139c:	ffe5f793          	and	a5,a1,-2
   113a0:	00f70633          	add	a2,a4,a5
   113a4:	00462683          	lw	a3,4(a2)
   113a8:	00852803          	lw	a6,8(a0)
   113ac:	ffc6f693          	and	a3,a3,-4
   113b0:	1ac80263          	beq	a6,a2,0x11554
   113b4:	00d62223          	sw	a3,4(a2)
   113b8:	0015f593          	and	a1,a1,1
   113bc:	00d60833          	add	a6,a2,a3
   113c0:	0a059063          	bnez	a1,0x11460
   113c4:	ff842303          	lw	t1,-8(s0)
   113c8:	00482583          	lw	a1,4(a6)
   113cc:	00012897          	auipc	a7,0x12
   113d0:	f3c88893          	add	a7,a7,-196 # 0x23308
   113d4:	40670733          	sub	a4,a4,t1
   113d8:	00872803          	lw	a6,8(a4)
   113dc:	006787b3          	add	a5,a5,t1
   113e0:	0015f593          	and	a1,a1,1
   113e4:	15180263          	beq	a6,a7,0x11528
   113e8:	00c72303          	lw	t1,12(a4)
   113ec:	00682623          	sw	t1,12(a6)
   113f0:	01032423          	sw	a6,8(t1)
   113f4:	1a058663          	beqz	a1,0x115a0
   113f8:	0017e693          	or	a3,a5,1
   113fc:	00d72223          	sw	a3,4(a4)
   11400:	00f62023          	sw	a5,0(a2)
   11404:	1ff00693          	li	a3,511
   11408:	06f6ec63          	bltu	a3,a5,0x11480
   1140c:	ff87f693          	and	a3,a5,-8
   11410:	00868693          	add	a3,a3,8
   11414:	00452583          	lw	a1,4(a0)
   11418:	00d506b3          	add	a3,a0,a3
   1141c:	0006a603          	lw	a2,0(a3)
   11420:	0057d813          	srl	a6,a5,0x5
   11424:	00100793          	li	a5,1
   11428:	010797b3          	sll	a5,a5,a6
   1142c:	00b7e7b3          	or	a5,a5,a1
   11430:	ff868593          	add	a1,a3,-8
   11434:	00b72623          	sw	a1,12(a4)
   11438:	00c72423          	sw	a2,8(a4)
   1143c:	00f52223          	sw	a5,4(a0)
   11440:	00e6a023          	sw	a4,0(a3)
   11444:	00e62623          	sw	a4,12(a2)
   11448:	00812403          	lw	s0,8(sp)
   1144c:	00c12083          	lw	ra,12(sp)
   11450:	00048513          	mv	a0,s1
   11454:	00412483          	lw	s1,4(sp)
   11458:	01010113          	add	sp,sp,16
   1145c:	1e50006f          	j	0x11e40
   11460:	00482583          	lw	a1,4(a6)
   11464:	0015f593          	and	a1,a1,1
   11468:	08058663          	beqz	a1,0x114f4
   1146c:	0017e693          	or	a3,a5,1
   11470:	fed42e23          	sw	a3,-4(s0)
   11474:	00f62023          	sw	a5,0(a2)
   11478:	1ff00693          	li	a3,511
   1147c:	f8f6f8e3          	bgeu	a3,a5,0x1140c
   11480:	0097d693          	srl	a3,a5,0x9
   11484:	00400613          	li	a2,4
   11488:	12d66063          	bltu	a2,a3,0x115a8
   1148c:	0067d693          	srl	a3,a5,0x6
   11490:	03968593          	add	a1,a3,57
   11494:	03868613          	add	a2,a3,56
   11498:	00359593          	sll	a1,a1,0x3
   1149c:	00b505b3          	add	a1,a0,a1
   114a0:	0005a683          	lw	a3,0(a1)
   114a4:	ff858593          	add	a1,a1,-8
   114a8:	00d59863          	bne	a1,a3,0x114b8
   114ac:	1540006f          	j	0x11600
   114b0:	0086a683          	lw	a3,8(a3)
   114b4:	00d58863          	beq	a1,a3,0x114c4
   114b8:	0046a603          	lw	a2,4(a3)
   114bc:	ffc67613          	and	a2,a2,-4
   114c0:	fec7e8e3          	bltu	a5,a2,0x114b0
   114c4:	00c6a583          	lw	a1,12(a3)
   114c8:	00b72623          	sw	a1,12(a4)
   114cc:	00d72423          	sw	a3,8(a4)
   114d0:	00812403          	lw	s0,8(sp)
   114d4:	00c12083          	lw	ra,12(sp)
   114d8:	00e5a423          	sw	a4,8(a1)
   114dc:	00048513          	mv	a0,s1
   114e0:	00412483          	lw	s1,4(sp)
   114e4:	00e6a623          	sw	a4,12(a3)
   114e8:	01010113          	add	sp,sp,16
   114ec:	1550006f          	j	0x11e40
   114f0:	00008067          	ret
   114f4:	00d787b3          	add	a5,a5,a3
   114f8:	00012897          	auipc	a7,0x12
   114fc:	e1088893          	add	a7,a7,-496 # 0x23308
   11500:	00862683          	lw	a3,8(a2)
   11504:	0d168c63          	beq	a3,a7,0x115dc
   11508:	00c62803          	lw	a6,12(a2)
   1150c:	0017e593          	or	a1,a5,1
   11510:	00f70633          	add	a2,a4,a5
   11514:	0106a623          	sw	a6,12(a3)
   11518:	00d82423          	sw	a3,8(a6)
   1151c:	00b72223          	sw	a1,4(a4)
   11520:	00f62023          	sw	a5,0(a2)
   11524:	ee1ff06f          	j	0x11404
   11528:	12059c63          	bnez	a1,0x11660
   1152c:	00862583          	lw	a1,8(a2)
   11530:	00c62603          	lw	a2,12(a2)
   11534:	00f686b3          	add	a3,a3,a5
   11538:	0016e793          	or	a5,a3,1
   1153c:	00c5a623          	sw	a2,12(a1)
   11540:	00b62423          	sw	a1,8(a2)
   11544:	00f72223          	sw	a5,4(a4)
   11548:	00d70733          	add	a4,a4,a3
   1154c:	00d72023          	sw	a3,0(a4)
   11550:	ef9ff06f          	j	0x11448
   11554:	0015f593          	and	a1,a1,1
   11558:	00d786b3          	add	a3,a5,a3
   1155c:	02059063          	bnez	a1,0x1157c
   11560:	ff842583          	lw	a1,-8(s0)
   11564:	40b70733          	sub	a4,a4,a1
   11568:	00c72783          	lw	a5,12(a4)
   1156c:	00872603          	lw	a2,8(a4)
   11570:	00b686b3          	add	a3,a3,a1
   11574:	00f62623          	sw	a5,12(a2)
   11578:	00c7a423          	sw	a2,8(a5)
   1157c:	0016e793          	or	a5,a3,1
   11580:	00f72223          	sw	a5,4(a4)
   11584:	00e52423          	sw	a4,8(a0)
   11588:	f401a783          	lw	a5,-192(gp)
   1158c:	eaf6eee3          	bltu	a3,a5,0x11448
   11590:	f801a583          	lw	a1,-128(gp)
   11594:	00048513          	mv	a0,s1
   11598:	c9dff0ef          	jal	0x11234
   1159c:	eadff06f          	j	0x11448
   115a0:	00d787b3          	add	a5,a5,a3
   115a4:	f5dff06f          	j	0x11500
   115a8:	01400613          	li	a2,20
   115ac:	02d67063          	bgeu	a2,a3,0x115cc
   115b0:	05400613          	li	a2,84
   115b4:	06d66463          	bltu	a2,a3,0x1161c
   115b8:	00c7d693          	srl	a3,a5,0xc
   115bc:	06f68593          	add	a1,a3,111
   115c0:	06e68613          	add	a2,a3,110
   115c4:	00359593          	sll	a1,a1,0x3
   115c8:	ed5ff06f          	j	0x1149c
   115cc:	05c68593          	add	a1,a3,92
   115d0:	05b68613          	add	a2,a3,91
   115d4:	00359593          	sll	a1,a1,0x3
   115d8:	ec5ff06f          	j	0x1149c
   115dc:	00e52a23          	sw	a4,20(a0)
   115e0:	00e52823          	sw	a4,16(a0)
   115e4:	0017e693          	or	a3,a5,1
   115e8:	01172623          	sw	a7,12(a4)
   115ec:	01172423          	sw	a7,8(a4)
   115f0:	00d72223          	sw	a3,4(a4)
   115f4:	00f70733          	add	a4,a4,a5
   115f8:	00f72023          	sw	a5,0(a4)
   115fc:	e4dff06f          	j	0x11448
   11600:	00452803          	lw	a6,4(a0)
   11604:	40265613          	sra	a2,a2,0x2
   11608:	00100793          	li	a5,1
   1160c:	00c797b3          	sll	a5,a5,a2
   11610:	0107e7b3          	or	a5,a5,a6
   11614:	00f52223          	sw	a5,4(a0)
   11618:	eb1ff06f          	j	0x114c8
   1161c:	15400613          	li	a2,340
   11620:	00d66c63          	bltu	a2,a3,0x11638
   11624:	00f7d693          	srl	a3,a5,0xf
   11628:	07868593          	add	a1,a3,120
   1162c:	07768613          	add	a2,a3,119
   11630:	00359593          	sll	a1,a1,0x3
   11634:	e69ff06f          	j	0x1149c
   11638:	55400613          	li	a2,1364
   1163c:	00d66c63          	bltu	a2,a3,0x11654
   11640:	0127d693          	srl	a3,a5,0x12
   11644:	07d68593          	add	a1,a3,125
   11648:	07c68613          	add	a2,a3,124
   1164c:	00359593          	sll	a1,a1,0x3
   11650:	e4dff06f          	j	0x1149c
   11654:	3f800593          	li	a1,1016
   11658:	07e00613          	li	a2,126
   1165c:	e41ff06f          	j	0x1149c
   11660:	0017e693          	or	a3,a5,1
   11664:	00d72223          	sw	a3,4(a4)
   11668:	00f62023          	sw	a5,0(a2)
   1166c:	dddff06f          	j	0x11448
   11670:	fd010113          	add	sp,sp,-48
   11674:	03212023          	sw	s2,32(sp)
   11678:	02112623          	sw	ra,44(sp)
   1167c:	02812423          	sw	s0,40(sp)
   11680:	02912223          	sw	s1,36(sp)
   11684:	01312e23          	sw	s3,28(sp)
   11688:	00b58793          	add	a5,a1,11
   1168c:	01600713          	li	a4,22
   11690:	00050913          	mv	s2,a0
   11694:	08f76263          	bltu	a4,a5,0x11718
   11698:	01000793          	li	a5,16
   1169c:	20b7e663          	bltu	a5,a1,0x118a8
   116a0:	798000ef          	jal	0x11e38
   116a4:	01800793          	li	a5,24
   116a8:	00200593          	li	a1,2
   116ac:	01000493          	li	s1,16
   116b0:	00012997          	auipc	s3,0x12
   116b4:	c5098993          	add	s3,s3,-944 # 0x23300
   116b8:	00f987b3          	add	a5,s3,a5
   116bc:	0047a403          	lw	s0,4(a5)
   116c0:	ff878713          	add	a4,a5,-8
   116c4:	34e40a63          	beq	s0,a4,0x11a18
   116c8:	00442783          	lw	a5,4(s0)
   116cc:	00c42683          	lw	a3,12(s0)
   116d0:	00842603          	lw	a2,8(s0)
   116d4:	ffc7f793          	and	a5,a5,-4
   116d8:	00f407b3          	add	a5,s0,a5
   116dc:	0047a703          	lw	a4,4(a5)
   116e0:	00d62623          	sw	a3,12(a2)
   116e4:	00c6a423          	sw	a2,8(a3)
   116e8:	00176713          	or	a4,a4,1
   116ec:	00090513          	mv	a0,s2
   116f0:	00e7a223          	sw	a4,4(a5)
   116f4:	74c000ef          	jal	0x11e40
   116f8:	00840513          	add	a0,s0,8
   116fc:	02c12083          	lw	ra,44(sp)
   11700:	02812403          	lw	s0,40(sp)
   11704:	02412483          	lw	s1,36(sp)
   11708:	02012903          	lw	s2,32(sp)
   1170c:	01c12983          	lw	s3,28(sp)
   11710:	03010113          	add	sp,sp,48
   11714:	00008067          	ret
   11718:	ff87f493          	and	s1,a5,-8
   1171c:	1807c663          	bltz	a5,0x118a8
   11720:	18b4e463          	bltu	s1,a1,0x118a8
   11724:	714000ef          	jal	0x11e38
   11728:	1f700793          	li	a5,503
   1172c:	4097f063          	bgeu	a5,s1,0x11b2c
   11730:	0094d793          	srl	a5,s1,0x9
   11734:	18078263          	beqz	a5,0x118b8
   11738:	00400713          	li	a4,4
   1173c:	34f76663          	bltu	a4,a5,0x11a88
   11740:	0064d793          	srl	a5,s1,0x6
   11744:	03978593          	add	a1,a5,57
   11748:	03878813          	add	a6,a5,56
   1174c:	00359613          	sll	a2,a1,0x3
   11750:	00012997          	auipc	s3,0x12
   11754:	bb098993          	add	s3,s3,-1104 # 0x23300
   11758:	00c98633          	add	a2,s3,a2
   1175c:	00462403          	lw	s0,4(a2)
   11760:	ff860613          	add	a2,a2,-8
   11764:	02860863          	beq	a2,s0,0x11794
   11768:	00f00513          	li	a0,15
   1176c:	0140006f          	j	0x11780
   11770:	00c42683          	lw	a3,12(s0)
   11774:	28075e63          	bgez	a4,0x11a10
   11778:	00d60e63          	beq	a2,a3,0x11794
   1177c:	00068413          	mv	s0,a3
   11780:	00442783          	lw	a5,4(s0)
   11784:	ffc7f793          	and	a5,a5,-4
   11788:	40978733          	sub	a4,a5,s1
   1178c:	fee552e3          	bge	a0,a4,0x11770
   11790:	00080593          	mv	a1,a6
   11794:	0109a403          	lw	s0,16(s3)
   11798:	00012897          	auipc	a7,0x12
   1179c:	b7088893          	add	a7,a7,-1168 # 0x23308
   117a0:	27140463          	beq	s0,a7,0x11a08
   117a4:	00442783          	lw	a5,4(s0)
   117a8:	00f00693          	li	a3,15
   117ac:	ffc7f793          	and	a5,a5,-4
   117b0:	40978733          	sub	a4,a5,s1
   117b4:	38e6c263          	blt	a3,a4,0x11b38
   117b8:	0119aa23          	sw	a7,20(s3)
   117bc:	0119a823          	sw	a7,16(s3)
   117c0:	34075663          	bgez	a4,0x11b0c
   117c4:	1ff00713          	li	a4,511
   117c8:	0049a503          	lw	a0,4(s3)
   117cc:	24f76e63          	bltu	a4,a5,0x11a28
   117d0:	ff87f713          	and	a4,a5,-8
   117d4:	00870713          	add	a4,a4,8
   117d8:	00e98733          	add	a4,s3,a4
   117dc:	00072683          	lw	a3,0(a4)
   117e0:	0057d613          	srl	a2,a5,0x5
   117e4:	00100793          	li	a5,1
   117e8:	00c797b3          	sll	a5,a5,a2
   117ec:	00f56533          	or	a0,a0,a5
   117f0:	ff870793          	add	a5,a4,-8
   117f4:	00f42623          	sw	a5,12(s0)
   117f8:	00d42423          	sw	a3,8(s0)
   117fc:	00a9a223          	sw	a0,4(s3)
   11800:	00872023          	sw	s0,0(a4)
   11804:	0086a623          	sw	s0,12(a3)
   11808:	4025d793          	sra	a5,a1,0x2
   1180c:	00100613          	li	a2,1
   11810:	00f61633          	sll	a2,a2,a5
   11814:	0ac56a63          	bltu	a0,a2,0x118c8
   11818:	00a677b3          	and	a5,a2,a0
   1181c:	02079463          	bnez	a5,0x11844
   11820:	00161613          	sll	a2,a2,0x1
   11824:	ffc5f593          	and	a1,a1,-4
   11828:	00a677b3          	and	a5,a2,a0
   1182c:	00458593          	add	a1,a1,4
   11830:	00079a63          	bnez	a5,0x11844
   11834:	00161613          	sll	a2,a2,0x1
   11838:	00a677b3          	and	a5,a2,a0
   1183c:	00458593          	add	a1,a1,4
   11840:	fe078ae3          	beqz	a5,0x11834
   11844:	00f00813          	li	a6,15
   11848:	00359313          	sll	t1,a1,0x3
   1184c:	00698333          	add	t1,s3,t1
   11850:	00030513          	mv	a0,t1
   11854:	00c52783          	lw	a5,12(a0)
   11858:	00058e13          	mv	t3,a1
   1185c:	24f50863          	beq	a0,a5,0x11aac
   11860:	0047a703          	lw	a4,4(a5)
   11864:	00078413          	mv	s0,a5
   11868:	00c7a783          	lw	a5,12(a5)
   1186c:	ffc77713          	and	a4,a4,-4
   11870:	409706b3          	sub	a3,a4,s1
   11874:	24d84863          	blt	a6,a3,0x11ac4
   11878:	fe06c2e3          	bltz	a3,0x1185c
   1187c:	00e40733          	add	a4,s0,a4
   11880:	00472683          	lw	a3,4(a4)
   11884:	00842603          	lw	a2,8(s0)
   11888:	00090513          	mv	a0,s2
   1188c:	0016e693          	or	a3,a3,1
   11890:	00d72223          	sw	a3,4(a4)
   11894:	00f62623          	sw	a5,12(a2)
   11898:	00c7a423          	sw	a2,8(a5)
   1189c:	5a4000ef          	jal	0x11e40
   118a0:	00840513          	add	a0,s0,8
   118a4:	e59ff06f          	j	0x116fc
   118a8:	00c00793          	li	a5,12
   118ac:	00f92023          	sw	a5,0(s2)
   118b0:	00000513          	li	a0,0
   118b4:	e49ff06f          	j	0x116fc
   118b8:	20000613          	li	a2,512
   118bc:	04000593          	li	a1,64
   118c0:	03f00813          	li	a6,63
   118c4:	e8dff06f          	j	0x11750
   118c8:	0089a403          	lw	s0,8(s3)
   118cc:	01612823          	sw	s6,16(sp)
   118d0:	00442783          	lw	a5,4(s0)
   118d4:	ffc7fb13          	and	s6,a5,-4
   118d8:	009b6863          	bltu	s6,s1,0x118e8
   118dc:	409b0733          	sub	a4,s6,s1
   118e0:	00f00793          	li	a5,15
   118e4:	0ee7c063          	blt	a5,a4,0x119c4
   118e8:	01912223          	sw	s9,4(sp)
   118ec:	f3c18c93          	add	s9,gp,-196
   118f0:	000ca703          	lw	a4,0(s9)
   118f4:	01412c23          	sw	s4,24(sp)
   118f8:	01512a23          	sw	s5,20(sp)
   118fc:	01712623          	sw	s7,12(sp)
   11900:	f801aa83          	lw	s5,-128(gp)
   11904:	fff00793          	li	a5,-1
   11908:	01640a33          	add	s4,s0,s6
   1190c:	01548ab3          	add	s5,s1,s5
   11910:	3cf70a63          	beq	a4,a5,0x11ce4
   11914:	000017b7          	lui	a5,0x1
   11918:	00f78793          	add	a5,a5,15 # 0x100f
   1191c:	00fa8ab3          	add	s5,s5,a5
   11920:	fffff7b7          	lui	a5,0xfffff
   11924:	00fafab3          	and	s5,s5,a5
   11928:	000a8593          	mv	a1,s5
   1192c:	00090513          	mv	a0,s2
   11930:	255060ef          	jal	0x18384
   11934:	fff00793          	li	a5,-1
   11938:	00050b93          	mv	s7,a0
   1193c:	44f50e63          	beq	a0,a5,0x11d98
   11940:	01812423          	sw	s8,8(sp)
   11944:	25456263          	bltu	a0,s4,0x11b88
   11948:	27018c13          	add	s8,gp,624
   1194c:	000c2583          	lw	a1,0(s8)
   11950:	00ba85b3          	add	a1,s5,a1
   11954:	00bc2023          	sw	a1,0(s8)
   11958:	00058713          	mv	a4,a1
   1195c:	2aaa1a63          	bne	s4,a0,0x11c10
   11960:	01451793          	sll	a5,a0,0x14
   11964:	2a079663          	bnez	a5,0x11c10
   11968:	0089ab83          	lw	s7,8(s3)
   1196c:	015b07b3          	add	a5,s6,s5
   11970:	0017e793          	or	a5,a5,1
   11974:	00fba223          	sw	a5,4(s7)
   11978:	f7c18713          	add	a4,gp,-132
   1197c:	00072683          	lw	a3,0(a4)
   11980:	00b6f463          	bgeu	a3,a1,0x11988
   11984:	00b72023          	sw	a1,0(a4)
   11988:	f7818713          	add	a4,gp,-136
   1198c:	00072683          	lw	a3,0(a4)
   11990:	00b6f463          	bgeu	a3,a1,0x11998
   11994:	00b72023          	sw	a1,0(a4)
   11998:	00812c03          	lw	s8,8(sp)
   1199c:	000b8413          	mv	s0,s7
   119a0:	ffc7f793          	and	a5,a5,-4
   119a4:	40978733          	sub	a4,a5,s1
   119a8:	3897ea63          	bltu	a5,s1,0x11d3c
   119ac:	00f00793          	li	a5,15
   119b0:	38e7d663          	bge	a5,a4,0x11d3c
   119b4:	01812a03          	lw	s4,24(sp)
   119b8:	01412a83          	lw	s5,20(sp)
   119bc:	00c12b83          	lw	s7,12(sp)
   119c0:	00412c83          	lw	s9,4(sp)
   119c4:	0014e793          	or	a5,s1,1
   119c8:	00f42223          	sw	a5,4(s0)
   119cc:	009404b3          	add	s1,s0,s1
   119d0:	0099a423          	sw	s1,8(s3)
   119d4:	00176713          	or	a4,a4,1
   119d8:	00090513          	mv	a0,s2
   119dc:	00e4a223          	sw	a4,4(s1)
   119e0:	460000ef          	jal	0x11e40
   119e4:	02c12083          	lw	ra,44(sp)
   119e8:	00840513          	add	a0,s0,8
   119ec:	02812403          	lw	s0,40(sp)
   119f0:	01012b03          	lw	s6,16(sp)
   119f4:	02412483          	lw	s1,36(sp)
   119f8:	02012903          	lw	s2,32(sp)
   119fc:	01c12983          	lw	s3,28(sp)
   11a00:	03010113          	add	sp,sp,48
   11a04:	00008067          	ret
   11a08:	0049a503          	lw	a0,4(s3)
   11a0c:	dfdff06f          	j	0x11808
   11a10:	00842603          	lw	a2,8(s0)
   11a14:	cc5ff06f          	j	0x116d8
   11a18:	00c7a403          	lw	s0,12(a5) # 0xfffff00c
   11a1c:	00258593          	add	a1,a1,2
   11a20:	d6878ae3          	beq	a5,s0,0x11794
   11a24:	ca5ff06f          	j	0x116c8
   11a28:	0097d713          	srl	a4,a5,0x9
   11a2c:	00400693          	li	a3,4
   11a30:	14e6f263          	bgeu	a3,a4,0x11b74
   11a34:	01400693          	li	a3,20
   11a38:	32e6e463          	bltu	a3,a4,0x11d60
   11a3c:	05c70613          	add	a2,a4,92
   11a40:	05b70693          	add	a3,a4,91
   11a44:	00361613          	sll	a2,a2,0x3
   11a48:	00c98633          	add	a2,s3,a2
   11a4c:	00062703          	lw	a4,0(a2)
   11a50:	ff860613          	add	a2,a2,-8
   11a54:	00e61863          	bne	a2,a4,0x11a64
   11a58:	2940006f          	j	0x11cec
   11a5c:	00872703          	lw	a4,8(a4)
   11a60:	00e60863          	beq	a2,a4,0x11a70
   11a64:	00472683          	lw	a3,4(a4)
   11a68:	ffc6f693          	and	a3,a3,-4
   11a6c:	fed7e8e3          	bltu	a5,a3,0x11a5c
   11a70:	00c72603          	lw	a2,12(a4)
   11a74:	00c42623          	sw	a2,12(s0)
   11a78:	00e42423          	sw	a4,8(s0)
   11a7c:	00862423          	sw	s0,8(a2)
   11a80:	00872623          	sw	s0,12(a4)
   11a84:	d85ff06f          	j	0x11808
   11a88:	01400713          	li	a4,20
   11a8c:	10f77863          	bgeu	a4,a5,0x11b9c
   11a90:	05400713          	li	a4,84
   11a94:	2ef76463          	bltu	a4,a5,0x11d7c
   11a98:	00c4d793          	srl	a5,s1,0xc
   11a9c:	06f78593          	add	a1,a5,111
   11aa0:	06e78813          	add	a6,a5,110
   11aa4:	00359613          	sll	a2,a1,0x3
   11aa8:	ca9ff06f          	j	0x11750
   11aac:	001e0e13          	add	t3,t3,1
   11ab0:	003e7793          	and	a5,t3,3
   11ab4:	00850513          	add	a0,a0,8
   11ab8:	10078063          	beqz	a5,0x11bb8
   11abc:	00c52783          	lw	a5,12(a0)
   11ac0:	d9dff06f          	j	0x1185c
   11ac4:	00842603          	lw	a2,8(s0)
   11ac8:	0014e593          	or	a1,s1,1
   11acc:	00b42223          	sw	a1,4(s0)
   11ad0:	00f62623          	sw	a5,12(a2)
   11ad4:	00c7a423          	sw	a2,8(a5)
   11ad8:	009404b3          	add	s1,s0,s1
   11adc:	0099aa23          	sw	s1,20(s3)
   11ae0:	0099a823          	sw	s1,16(s3)
   11ae4:	0016e793          	or	a5,a3,1
   11ae8:	0114a623          	sw	a7,12(s1)
   11aec:	0114a423          	sw	a7,8(s1)
   11af0:	00f4a223          	sw	a5,4(s1)
   11af4:	00e40733          	add	a4,s0,a4
   11af8:	00090513          	mv	a0,s2
   11afc:	00d72023          	sw	a3,0(a4)
   11b00:	340000ef          	jal	0x11e40
   11b04:	00840513          	add	a0,s0,8
   11b08:	bf5ff06f          	j	0x116fc
   11b0c:	00f407b3          	add	a5,s0,a5
   11b10:	0047a703          	lw	a4,4(a5)
   11b14:	00090513          	mv	a0,s2
   11b18:	00176713          	or	a4,a4,1
   11b1c:	00e7a223          	sw	a4,4(a5)
   11b20:	320000ef          	jal	0x11e40
   11b24:	00840513          	add	a0,s0,8
   11b28:	bd5ff06f          	j	0x116fc
   11b2c:	0034d593          	srl	a1,s1,0x3
   11b30:	00848793          	add	a5,s1,8
   11b34:	b7dff06f          	j	0x116b0
   11b38:	0014e693          	or	a3,s1,1
   11b3c:	00d42223          	sw	a3,4(s0)
   11b40:	009404b3          	add	s1,s0,s1
   11b44:	0099aa23          	sw	s1,20(s3)
   11b48:	0099a823          	sw	s1,16(s3)
   11b4c:	00176693          	or	a3,a4,1
   11b50:	0114a623          	sw	a7,12(s1)
   11b54:	0114a423          	sw	a7,8(s1)
   11b58:	00d4a223          	sw	a3,4(s1)
   11b5c:	00f407b3          	add	a5,s0,a5
   11b60:	00090513          	mv	a0,s2
   11b64:	00e7a023          	sw	a4,0(a5)
   11b68:	2d8000ef          	jal	0x11e40
   11b6c:	00840513          	add	a0,s0,8
   11b70:	b8dff06f          	j	0x116fc
   11b74:	0067d713          	srl	a4,a5,0x6
   11b78:	03970613          	add	a2,a4,57
   11b7c:	03870693          	add	a3,a4,56
   11b80:	00361613          	sll	a2,a2,0x3
   11b84:	ec5ff06f          	j	0x11a48
   11b88:	07340c63          	beq	s0,s3,0x11c00
   11b8c:	0089a403          	lw	s0,8(s3)
   11b90:	00812c03          	lw	s8,8(sp)
   11b94:	00442783          	lw	a5,4(s0)
   11b98:	e09ff06f          	j	0x119a0
   11b9c:	05c78593          	add	a1,a5,92
   11ba0:	05b78813          	add	a6,a5,91
   11ba4:	00359613          	sll	a2,a1,0x3
   11ba8:	ba9ff06f          	j	0x11750
   11bac:	00832783          	lw	a5,8(t1)
   11bb0:	fff58593          	add	a1,a1,-1
   11bb4:	26679e63          	bne	a5,t1,0x11e30
   11bb8:	0035f793          	and	a5,a1,3
   11bbc:	ff830313          	add	t1,t1,-8
   11bc0:	fe0796e3          	bnez	a5,0x11bac
   11bc4:	0049a703          	lw	a4,4(s3)
   11bc8:	fff64793          	not	a5,a2
   11bcc:	00e7f7b3          	and	a5,a5,a4
   11bd0:	00f9a223          	sw	a5,4(s3)
   11bd4:	00161613          	sll	a2,a2,0x1
   11bd8:	cec7e8e3          	bltu	a5,a2,0x118c8
   11bdc:	ce0606e3          	beqz	a2,0x118c8
   11be0:	00f67733          	and	a4,a2,a5
   11be4:	00071a63          	bnez	a4,0x11bf8
   11be8:	00161613          	sll	a2,a2,0x1
   11bec:	00f67733          	and	a4,a2,a5
   11bf0:	004e0e13          	add	t3,t3,4
   11bf4:	fe070ae3          	beqz	a4,0x11be8
   11bf8:	000e0593          	mv	a1,t3
   11bfc:	c4dff06f          	j	0x11848
   11c00:	27018c13          	add	s8,gp,624
   11c04:	000c2703          	lw	a4,0(s8)
   11c08:	00ea8733          	add	a4,s5,a4
   11c0c:	00ec2023          	sw	a4,0(s8)
   11c10:	000ca683          	lw	a3,0(s9)
   11c14:	fff00793          	li	a5,-1
   11c18:	18f68663          	beq	a3,a5,0x11da4
   11c1c:	414b87b3          	sub	a5,s7,s4
   11c20:	00e787b3          	add	a5,a5,a4
   11c24:	00fc2023          	sw	a5,0(s8)
   11c28:	007bfc93          	and	s9,s7,7
   11c2c:	0c0c8c63          	beqz	s9,0x11d04
   11c30:	419b8bb3          	sub	s7,s7,s9
   11c34:	000017b7          	lui	a5,0x1
   11c38:	00878793          	add	a5,a5,8 # 0x1008
   11c3c:	008b8b93          	add	s7,s7,8
   11c40:	419785b3          	sub	a1,a5,s9
   11c44:	015b8ab3          	add	s5,s7,s5
   11c48:	415585b3          	sub	a1,a1,s5
   11c4c:	01459593          	sll	a1,a1,0x14
   11c50:	0145da13          	srl	s4,a1,0x14
   11c54:	000a0593          	mv	a1,s4
   11c58:	00090513          	mv	a0,s2
   11c5c:	728060ef          	jal	0x18384
   11c60:	fff00793          	li	a5,-1
   11c64:	18f50063          	beq	a0,a5,0x11de4
   11c68:	41750533          	sub	a0,a0,s7
   11c6c:	01450ab3          	add	s5,a0,s4
   11c70:	000c2703          	lw	a4,0(s8)
   11c74:	0179a423          	sw	s7,8(s3)
   11c78:	001ae793          	or	a5,s5,1
   11c7c:	00ea05b3          	add	a1,s4,a4
   11c80:	00bc2023          	sw	a1,0(s8)
   11c84:	00fba223          	sw	a5,4(s7)
   11c88:	cf3408e3          	beq	s0,s3,0x11978
   11c8c:	00f00693          	li	a3,15
   11c90:	0b66f063          	bgeu	a3,s6,0x11d30
   11c94:	00442703          	lw	a4,4(s0)
   11c98:	ff4b0793          	add	a5,s6,-12
   11c9c:	ff87f793          	and	a5,a5,-8
   11ca0:	00177713          	and	a4,a4,1
   11ca4:	00f76733          	or	a4,a4,a5
   11ca8:	00e42223          	sw	a4,4(s0)
   11cac:	00500613          	li	a2,5
   11cb0:	00f40733          	add	a4,s0,a5
   11cb4:	00c72223          	sw	a2,4(a4)
   11cb8:	00c72423          	sw	a2,8(a4)
   11cbc:	00f6e663          	bltu	a3,a5,0x11cc8
   11cc0:	004ba783          	lw	a5,4(s7)
   11cc4:	cb5ff06f          	j	0x11978
   11cc8:	00840593          	add	a1,s0,8
   11ccc:	00090513          	mv	a0,s2
   11cd0:	e9cff0ef          	jal	0x1136c
   11cd4:	0089ab83          	lw	s7,8(s3)
   11cd8:	000c2583          	lw	a1,0(s8)
   11cdc:	004ba783          	lw	a5,4(s7)
   11ce0:	c99ff06f          	j	0x11978
   11ce4:	010a8a93          	add	s5,s5,16
   11ce8:	c41ff06f          	j	0x11928
   11cec:	4026d693          	sra	a3,a3,0x2
   11cf0:	00100793          	li	a5,1
   11cf4:	00d797b3          	sll	a5,a5,a3
   11cf8:	00f56533          	or	a0,a0,a5
   11cfc:	00a9a223          	sw	a0,4(s3)
   11d00:	d75ff06f          	j	0x11a74
   11d04:	015b85b3          	add	a1,s7,s5
   11d08:	40b005b3          	neg	a1,a1
   11d0c:	01459593          	sll	a1,a1,0x14
   11d10:	0145da13          	srl	s4,a1,0x14
   11d14:	000a0593          	mv	a1,s4
   11d18:	00090513          	mv	a0,s2
   11d1c:	668060ef          	jal	0x18384
   11d20:	fff00793          	li	a5,-1
   11d24:	f4f512e3          	bne	a0,a5,0x11c68
   11d28:	00000a13          	li	s4,0
   11d2c:	f45ff06f          	j	0x11c70
   11d30:	00812c03          	lw	s8,8(sp)
   11d34:	00100793          	li	a5,1
   11d38:	00fba223          	sw	a5,4(s7)
   11d3c:	00090513          	mv	a0,s2
   11d40:	100000ef          	jal	0x11e40
   11d44:	00000513          	li	a0,0
   11d48:	01812a03          	lw	s4,24(sp)
   11d4c:	01412a83          	lw	s5,20(sp)
   11d50:	01012b03          	lw	s6,16(sp)
   11d54:	00c12b83          	lw	s7,12(sp)
   11d58:	00412c83          	lw	s9,4(sp)
   11d5c:	9a1ff06f          	j	0x116fc
   11d60:	05400693          	li	a3,84
   11d64:	04e6e463          	bltu	a3,a4,0x11dac
   11d68:	00c7d713          	srl	a4,a5,0xc
   11d6c:	06f70613          	add	a2,a4,111
   11d70:	06e70693          	add	a3,a4,110
   11d74:	00361613          	sll	a2,a2,0x3
   11d78:	cd1ff06f          	j	0x11a48
   11d7c:	15400713          	li	a4,340
   11d80:	04f76463          	bltu	a4,a5,0x11dc8
   11d84:	00f4d793          	srl	a5,s1,0xf
   11d88:	07878593          	add	a1,a5,120
   11d8c:	07778813          	add	a6,a5,119
   11d90:	00359613          	sll	a2,a1,0x3
   11d94:	9bdff06f          	j	0x11750
   11d98:	0089a403          	lw	s0,8(s3)
   11d9c:	00442783          	lw	a5,4(s0)
   11da0:	c01ff06f          	j	0x119a0
   11da4:	017ca023          	sw	s7,0(s9)
   11da8:	e81ff06f          	j	0x11c28
   11dac:	15400693          	li	a3,340
   11db0:	04e6e463          	bltu	a3,a4,0x11df8
   11db4:	00f7d713          	srl	a4,a5,0xf
   11db8:	07870613          	add	a2,a4,120
   11dbc:	07770693          	add	a3,a4,119
   11dc0:	00361613          	sll	a2,a2,0x3
   11dc4:	c85ff06f          	j	0x11a48
   11dc8:	55400713          	li	a4,1364
   11dcc:	04f76463          	bltu	a4,a5,0x11e14
   11dd0:	0124d793          	srl	a5,s1,0x12
   11dd4:	07d78593          	add	a1,a5,125
   11dd8:	07c78813          	add	a6,a5,124
   11ddc:	00359613          	sll	a2,a1,0x3
   11de0:	971ff06f          	j	0x11750
   11de4:	ff8c8c93          	add	s9,s9,-8
   11de8:	019a8ab3          	add	s5,s5,s9
   11dec:	417a8ab3          	sub	s5,s5,s7
   11df0:	00000a13          	li	s4,0
   11df4:	e7dff06f          	j	0x11c70
   11df8:	55400693          	li	a3,1364
   11dfc:	02e6e463          	bltu	a3,a4,0x11e24
   11e00:	0127d713          	srl	a4,a5,0x12
   11e04:	07d70613          	add	a2,a4,125
   11e08:	07c70693          	add	a3,a4,124
   11e0c:	00361613          	sll	a2,a2,0x3
   11e10:	c39ff06f          	j	0x11a48
   11e14:	3f800613          	li	a2,1016
   11e18:	07f00593          	li	a1,127
   11e1c:	07e00813          	li	a6,126
   11e20:	931ff06f          	j	0x11750
   11e24:	3f800613          	li	a2,1016
   11e28:	07e00693          	li	a3,126
   11e2c:	c1dff06f          	j	0x11a48
   11e30:	0049a783          	lw	a5,4(s3)
   11e34:	da1ff06f          	j	0x11bd4
   11e38:	f6418513          	add	a0,gp,-156
   11e3c:	8ccff06f          	j	0x10f08
   11e40:	f6418513          	add	a0,gp,-156
   11e44:	8dcff06f          	j	0x10f20
   11e48:	e7010113          	add	sp,sp,-400
   11e4c:	18112623          	sw	ra,396(sp)
   11e50:	00b12423          	sw	a1,8(sp)
   11e54:	00c12623          	sw	a2,12(sp)
   11e58:	00d12a23          	sw	a3,20(sp)
   11e5c:	17312e23          	sw	s3,380(sp)
   11e60:	18812423          	sw	s0,392(sp)
   11e64:	00050993          	mv	s3,a0
   11e68:	50c060ef          	jal	0x18374
   11e6c:	00052783          	lw	a5,0(a0)
   11e70:	00078513          	mv	a0,a5
   11e74:	02f12a23          	sw	a5,52(sp)
   11e78:	00d060ef          	jal	0x18684
   11e7c:	00050713          	mv	a4,a0
   11e80:	00800613          	li	a2,8
   11e84:	00000593          	li	a1,0
   11e88:	09010513          	add	a0,sp,144
   11e8c:	02e12823          	sw	a4,48(sp)
   11e90:	894ff0ef          	jal	0x10f24
   11e94:	00c12783          	lw	a5,12(sp)
   11e98:	00098863          	beqz	s3,0x11ea8
   11e9c:	0349a703          	lw	a4,52(s3)
   11ea0:	00071463          	bnez	a4,0x11ea8
   11ea4:	2990106f          	j	0x1393c
   11ea8:	00812703          	lw	a4,8(sp)
   11eac:	06472683          	lw	a3,100(a4)
   11eb0:	00c71703          	lh	a4,12(a4)
   11eb4:	0016f693          	and	a3,a3,1
   11eb8:	00069863          	bnez	a3,0x11ec8
   11ebc:	20077693          	and	a3,a4,512
   11ec0:	00069463          	bnez	a3,0x11ec8
   11ec4:	3e80106f          	j	0x132ac
   11ec8:	01271693          	sll	a3,a4,0x12
   11ecc:	0206c863          	bltz	a3,0x11efc
   11ed0:	00812503          	lw	a0,8(sp)
   11ed4:	000025b7          	lui	a1,0x2
   11ed8:	ffffe637          	lui	a2,0xffffe
   11edc:	06452683          	lw	a3,100(a0)
   11ee0:	00b76733          	or	a4,a4,a1
   11ee4:	fff60613          	add	a2,a2,-1 # 0xffffdfff
   11ee8:	01071713          	sll	a4,a4,0x10
   11eec:	41075713          	sra	a4,a4,0x10
   11ef0:	00c6f6b3          	and	a3,a3,a2
   11ef4:	00e51623          	sh	a4,12(a0)
   11ef8:	06d52223          	sw	a3,100(a0)
   11efc:	00877693          	and	a3,a4,8
   11f00:	28068e63          	beqz	a3,0x1219c
   11f04:	00812683          	lw	a3,8(sp)
   11f08:	0106a683          	lw	a3,16(a3)
   11f0c:	28068863          	beqz	a3,0x1219c
   11f10:	01a77693          	and	a3,a4,26
   11f14:	00a00613          	li	a2,10
   11f18:	2ac68a63          	beq	a3,a2,0x121cc
   11f1c:	0ac10713          	add	a4,sp,172
   11f20:	17512a23          	sw	s5,372(sp)
   11f24:	17812423          	sw	s8,360(sp)
   11f28:	15b12e23          	sw	s11,348(sp)
   11f2c:	18912223          	sw	s1,388(sp)
   11f30:	19212023          	sw	s2,384(sp)
   11f34:	17412c23          	sw	s4,376(sp)
   11f38:	17612823          	sw	s6,368(sp)
   11f3c:	17712623          	sw	s7,364(sp)
   11f40:	17912223          	sw	s9,356(sp)
   11f44:	17a12023          	sw	s10,352(sp)
   11f48:	0ae12023          	sw	a4,160(sp)
   11f4c:	0a012423          	sw	zero,168(sp)
   11f50:	0a012223          	sw	zero,164(sp)
   11f54:	00012c23          	sw	zero,24(sp)
   11f58:	02012423          	sw	zero,40(sp)
   11f5c:	02012623          	sw	zero,44(sp)
   11f60:	00070413          	mv	s0,a4
   11f64:	02012c23          	sw	zero,56(sp)
   11f68:	04012023          	sw	zero,64(sp)
   11f6c:	02012e23          	sw	zero,60(sp)
   11f70:	04012623          	sw	zero,76(sp)
   11f74:	04012423          	sw	zero,72(sp)
   11f78:	00012623          	sw	zero,12(sp)
   11f7c:	d3818a93          	add	s5,gp,-712
   11f80:	02500d93          	li	s11,37
   11f84:	00078c13          	mv	s8,a5
   11f88:	000c0913          	mv	s2,s8
   11f8c:	0e4aa483          	lw	s1,228(s5)
   11f90:	3c4060ef          	jal	0x18354
   11f94:	00050693          	mv	a3,a0
   11f98:	09010713          	add	a4,sp,144
   11f9c:	00090613          	mv	a2,s2
   11fa0:	08010593          	add	a1,sp,128
   11fa4:	00098513          	mv	a0,s3
   11fa8:	000480e7          	jalr	s1
   11fac:	2c050a63          	beqz	a0,0x12280
   11fb0:	2a054a63          	bltz	a0,0x12264
   11fb4:	08012783          	lw	a5,128(sp)
   11fb8:	01b78663          	beq	a5,s11,0x11fc4
   11fbc:	00a90933          	add	s2,s2,a0
   11fc0:	fcdff06f          	j	0x11f8c
   11fc4:	00050493          	mv	s1,a0
   11fc8:	41890cb3          	sub	s9,s2,s8
   11fcc:	2d891063          	bne	s2,s8,0x1228c
   11fd0:	fff00313          	li	t1,-1
   11fd4:	00000e93          	li	t4,0
   11fd8:	00194e03          	lbu	t3,1(s2)
   11fdc:	06010ba3          	sb	zero,119(sp)
   11fe0:	00190913          	add	s2,s2,1
   11fe4:	00000b93          	li	s7,0
   11fe8:	05a00493          	li	s1,90
   11fec:	000e8a13          	mv	s4,t4
   11ff0:	00030b13          	mv	s6,t1
   11ff4:	00190913          	add	s2,s2,1
   11ff8:	fe0e0793          	add	a5,t3,-32
   11ffc:	04f4ea63          	bltu	s1,a5,0x12050
   12000:	00010717          	auipc	a4,0x10
   12004:	f5070713          	add	a4,a4,-176 # 0x21f50
   12008:	00279793          	sll	a5,a5,0x2
   1200c:	00e787b3          	add	a5,a5,a4
   12010:	0007a783          	lw	a5,0(a5)
   12014:	00e787b3          	add	a5,a5,a4
   12018:	00078067          	jr	a5
   1201c:	00000b93          	li	s7,0
   12020:	fd0e0713          	add	a4,t3,-48
   12024:	00900693          	li	a3,9
   12028:	00094e03          	lbu	t3,0(s2)
   1202c:	002b9793          	sll	a5,s7,0x2
   12030:	017787b3          	add	a5,a5,s7
   12034:	00179793          	sll	a5,a5,0x1
   12038:	00f70bb3          	add	s7,a4,a5
   1203c:	fd0e0713          	add	a4,t3,-48
   12040:	00190913          	add	s2,s2,1
   12044:	fee6f2e3          	bgeu	a3,a4,0x12028
   12048:	fe0e0793          	add	a5,t3,-32
   1204c:	faf4fae3          	bgeu	s1,a5,0x12000
   12050:	000a0e93          	mv	t4,s4
   12054:	260e0a63          	beqz	t3,0x122c8
   12058:	0fc10623          	sb	t3,236(sp)
   1205c:	06010ba3          	sb	zero,119(sp)
   12060:	00100c93          	li	s9,1
   12064:	00000613          	li	a2,0
   12068:	00012823          	sw	zero,16(sp)
   1206c:	00100d13          	li	s10,1
   12070:	00000313          	li	t1,0
   12074:	02012223          	sw	zero,36(sp)
   12078:	02012023          	sw	zero,32(sp)
   1207c:	00000a13          	li	s4,0
   12080:	0ec10c13          	add	s8,sp,236
   12084:	002ef293          	and	t0,t4,2
   12088:	00028463          	beqz	t0,0x12090
   1208c:	002c8c93          	add	s9,s9,2
   12090:	084eff93          	and	t6,t4,132
   12094:	0a812483          	lw	s1,168(sp)
   12098:	000f9663          	bnez	t6,0x120a4
   1209c:	419b8733          	sub	a4,s7,s9
   120a0:	40e04663          	bgtz	a4,0x124ac
   120a4:	02060a63          	beqz	a2,0x120d8
   120a8:	0a412703          	lw	a4,164(sp)
   120ac:	07710613          	add	a2,sp,119
   120b0:	00148493          	add	s1,s1,1
   120b4:	00170713          	add	a4,a4,1
   120b8:	00100793          	li	a5,1
   120bc:	00c42023          	sw	a2,0(s0)
   120c0:	00f42223          	sw	a5,4(s0)
   120c4:	0a912423          	sw	s1,168(sp)
   120c8:	0ae12223          	sw	a4,164(sp)
   120cc:	00700613          	li	a2,7
   120d0:	00840413          	add	s0,s0,8
   120d4:	4ce64863          	blt	a2,a4,0x125a4
   120d8:	02028a63          	beqz	t0,0x1210c
   120dc:	0a412703          	lw	a4,164(sp)
   120e0:	07810613          	add	a2,sp,120
   120e4:	00c42023          	sw	a2,0(s0)
   120e8:	00248493          	add	s1,s1,2
   120ec:	00200613          	li	a2,2
   120f0:	00170713          	add	a4,a4,1
   120f4:	00c42223          	sw	a2,4(s0)
   120f8:	0a912423          	sw	s1,168(sp)
   120fc:	0ae12223          	sw	a4,164(sp)
   12100:	00700613          	li	a2,7
   12104:	00840413          	add	s0,s0,8
   12108:	5ce644e3          	blt	a2,a4,0x12ed0
   1210c:	08000713          	li	a4,128
   12110:	3aef80e3          	beq	t6,a4,0x12cb0
   12114:	41a30b33          	sub	s6,t1,s10
   12118:	4b604ae3          	bgtz	s6,0x12dcc
   1211c:	100ef713          	and	a4,t4,256
   12120:	1a0710e3          	bnez	a4,0x12ac0
   12124:	0a412783          	lw	a5,164(sp)
   12128:	01a484b3          	add	s1,s1,s10
   1212c:	01842023          	sw	s8,0(s0)
   12130:	00178793          	add	a5,a5,1
   12134:	01a42223          	sw	s10,4(s0)
   12138:	0a912423          	sw	s1,168(sp)
   1213c:	0af12223          	sw	a5,164(sp)
   12140:	00700713          	li	a4,7
   12144:	58f74c63          	blt	a4,a5,0x126dc
   12148:	00840413          	add	s0,s0,8
   1214c:	004eff13          	and	t5,t4,4
   12150:	000f0663          	beqz	t5,0x1215c
   12154:	419b8d33          	sub	s10,s7,s9
   12158:	5ba04ce3          	bgtz	s10,0x12f10
   1215c:	000b8e93          	mv	t4,s7
   12160:	019bd463          	bge	s7,s9,0x12168
   12164:	000c8e93          	mv	t4,s9
   12168:	00c12783          	lw	a5,12(sp)
   1216c:	01d787b3          	add	a5,a5,t4
   12170:	00f12623          	sw	a5,12(sp)
   12174:	18049663          	bnez	s1,0x12300
   12178:	01012783          	lw	a5,16(sp)
   1217c:	0a012223          	sw	zero,164(sp)
   12180:	00078863          	beqz	a5,0x12190
   12184:	01012583          	lw	a1,16(sp)
   12188:	00098513          	mv	a0,s3
   1218c:	9e0ff0ef          	jal	0x1136c
   12190:	0ac10413          	add	s0,sp,172
   12194:	00090c13          	mv	s8,s2
   12198:	df1ff06f          	j	0x11f88
   1219c:	00812403          	lw	s0,8(sp)
   121a0:	00098513          	mv	a0,s3
   121a4:	00f12623          	sw	a5,12(sp)
   121a8:	00040593          	mv	a1,s0
   121ac:	6cd040ef          	jal	0x17078
   121b0:	00050463          	beqz	a0,0x121b8
   121b4:	5600206f          	j	0x14714
   121b8:	00c41703          	lh	a4,12(s0)
   121bc:	00a00613          	li	a2,10
   121c0:	00c12783          	lw	a5,12(sp)
   121c4:	01a77693          	and	a3,a4,26
   121c8:	d4c69ae3          	bne	a3,a2,0x11f1c
   121cc:	00812603          	lw	a2,8(sp)
   121d0:	00e61683          	lh	a3,14(a2)
   121d4:	d406c4e3          	bltz	a3,0x11f1c
   121d8:	06462683          	lw	a3,100(a2)
   121dc:	0016f693          	and	a3,a3,1
   121e0:	00069863          	bnez	a3,0x121f0
   121e4:	20077713          	and	a4,a4,512
   121e8:	00071463          	bnez	a4,0x121f0
   121ec:	53d0106f          	j	0x13f28
   121f0:	01412683          	lw	a3,20(sp)
   121f4:	00812583          	lw	a1,8(sp)
   121f8:	00098513          	mv	a0,s3
   121fc:	00078613          	mv	a2,a5
   12200:	0f9020ef          	jal	0x14af8
   12204:	18c12083          	lw	ra,396(sp)
   12208:	18812403          	lw	s0,392(sp)
   1220c:	00a12623          	sw	a0,12(sp)
   12210:	00c12503          	lw	a0,12(sp)
   12214:	17c12983          	lw	s3,380(sp)
   12218:	19010113          	add	sp,sp,400
   1221c:	00008067          	ret
   12220:	00098513          	mv	a0,s3
   12224:	150060ef          	jal	0x18374
   12228:	00452783          	lw	a5,4(a0)
   1222c:	00078513          	mv	a0,a5
   12230:	04f12423          	sw	a5,72(sp)
   12234:	450060ef          	jal	0x18684
   12238:	00050793          	mv	a5,a0
   1223c:	00098513          	mv	a0,s3
   12240:	00078c93          	mv	s9,a5
   12244:	04f12623          	sw	a5,76(sp)
   12248:	12c060ef          	jal	0x18374
   1224c:	00852703          	lw	a4,8(a0)
   12250:	02e12e23          	sw	a4,60(sp)
   12254:	000c8463          	beqz	s9,0x1225c
   12258:	1ec0106f          	j	0x13444
   1225c:	00094e03          	lbu	t3,0(s2)
   12260:	d95ff06f          	j	0x11ff4
   12264:	00800613          	li	a2,8
   12268:	00000593          	li	a1,0
   1226c:	09010513          	add	a0,sp,144
   12270:	cb5fe0ef          	jal	0x10f24
   12274:	00100513          	li	a0,1
   12278:	00a90933          	add	s2,s2,a0
   1227c:	d11ff06f          	j	0x11f8c
   12280:	00050493          	mv	s1,a0
   12284:	41890cb3          	sub	s9,s2,s8
   12288:	05890063          	beq	s2,s8,0x122c8
   1228c:	0a812683          	lw	a3,168(sp)
   12290:	0a412703          	lw	a4,164(sp)
   12294:	01842023          	sw	s8,0(s0)
   12298:	019686b3          	add	a3,a3,s9
   1229c:	00170713          	add	a4,a4,1
   122a0:	01942223          	sw	s9,4(s0)
   122a4:	0ad12423          	sw	a3,168(sp)
   122a8:	0ae12223          	sw	a4,164(sp)
   122ac:	00700693          	li	a3,7
   122b0:	00840413          	add	s0,s0,8
   122b4:	02e6c863          	blt	a3,a4,0x122e4
   122b8:	00c12783          	lw	a5,12(sp)
   122bc:	019787b3          	add	a5,a5,s9
   122c0:	00f12623          	sw	a5,12(sp)
   122c4:	d00496e3          	bnez	s1,0x11fd0
   122c8:	0a812783          	lw	a5,168(sp)
   122cc:	00078463          	beqz	a5,0x122d4
   122d0:	4090106f          	j	0x13ed8
   122d4:	00812783          	lw	a5,8(sp)
   122d8:	0a012223          	sw	zero,164(sp)
   122dc:	00c79783          	lh	a5,12(a5)
   122e0:	0500006f          	j	0x12330
   122e4:	00812583          	lw	a1,8(sp)
   122e8:	0a010613          	add	a2,sp,160
   122ec:	00098513          	mv	a0,s3
   122f0:	225020ef          	jal	0x14d14
   122f4:	02051a63          	bnez	a0,0x12328
   122f8:	0ac10413          	add	s0,sp,172
   122fc:	fbdff06f          	j	0x122b8
   12300:	00812583          	lw	a1,8(sp)
   12304:	0a010613          	add	a2,sp,160
   12308:	00098513          	mv	a0,s3
   1230c:	209020ef          	jal	0x14d14
   12310:	e60504e3          	beqz	a0,0x12178
   12314:	01012283          	lw	t0,16(sp)
   12318:	00028863          	beqz	t0,0x12328
   1231c:	00028593          	mv	a1,t0
   12320:	00098513          	mv	a0,s3
   12324:	848ff0ef          	jal	0x1136c
   12328:	00812783          	lw	a5,8(sp)
   1232c:	00c79783          	lh	a5,12(a5)
   12330:	00812703          	lw	a4,8(sp)
   12334:	06472703          	lw	a4,100(a4)
   12338:	00177713          	and	a4,a4,1
   1233c:	3c070463          	beqz	a4,0x12704
   12340:	0407f793          	and	a5,a5,64
   12344:	18412483          	lw	s1,388(sp)
   12348:	18012903          	lw	s2,384(sp)
   1234c:	17812a03          	lw	s4,376(sp)
   12350:	17412a83          	lw	s5,372(sp)
   12354:	17012b03          	lw	s6,368(sp)
   12358:	16c12b83          	lw	s7,364(sp)
   1235c:	16812c03          	lw	s8,360(sp)
   12360:	16412c83          	lw	s9,356(sp)
   12364:	16012d03          	lw	s10,352(sp)
   12368:	15c12d83          	lw	s11,348(sp)
   1236c:	00078463          	beqz	a5,0x12374
   12370:	3d00206f          	j	0x14740
   12374:	18c12083          	lw	ra,396(sp)
   12378:	18812403          	lw	s0,392(sp)
   1237c:	00c12503          	lw	a0,12(sp)
   12380:	17c12983          	lw	s3,380(sp)
   12384:	19010113          	add	sp,sp,400
   12388:	00008067          	ret
   1238c:	008a7713          	and	a4,s4,8
   12390:	000a0e93          	mv	t4,s4
   12394:	000b0313          	mv	t1,s6
   12398:	00070463          	beqz	a4,0x123a0
   1239c:	0200106f          	j	0x133bc
   123a0:	01412783          	lw	a5,20(sp)
   123a4:	00778b13          	add	s6,a5,7
   123a8:	ff8b7b13          	and	s6,s6,-8
   123ac:	000b2783          	lw	a5,0(s6)
   123b0:	02f12423          	sw	a5,40(sp)
   123b4:	004b2783          	lw	a5,4(s6)
   123b8:	02f12623          	sw	a5,44(sp)
   123bc:	008b0793          	add	a5,s6,8
   123c0:	00f12a23          	sw	a5,20(sp)
   123c4:	02c12a03          	lw	s4,44(sp)
   123c8:	00011717          	auipc	a4,0x11
   123cc:	4d070713          	add	a4,a4,1232 # 0x23898
   123d0:	00072c83          	lw	s9,0(a4)
   123d4:	00472d03          	lw	s10,4(a4)
   123d8:	02812b03          	lw	s6,40(sp)
   123dc:	001a1493          	sll	s1,s4,0x1
   123e0:	0014d493          	srl	s1,s1,0x1
   123e4:	000b0513          	mv	a0,s6
   123e8:	00048593          	mv	a1,s1
   123ec:	000c8613          	mv	a2,s9
   123f0:	000d0693          	mv	a3,s10
   123f4:	02612223          	sw	t1,36(sp)
   123f8:	03c12023          	sw	t3,32(sp)
   123fc:	01d12823          	sw	t4,16(sp)
   12400:	01c0f0ef          	jal	0x2141c
   12404:	01012e83          	lw	t4,16(sp)
   12408:	02012e03          	lw	t3,32(sp)
   1240c:	02412303          	lw	t1,36(sp)
   12410:	00050463          	beqz	a0,0x12418
   12414:	4080106f          	j	0x1381c
   12418:	000b0513          	mv	a0,s6
   1241c:	00048593          	mv	a1,s1
   12420:	000c8613          	mv	a2,s9
   12424:	000d0693          	mv	a3,s10
   12428:	6550d0ef          	jal	0x2027c
   1242c:	01012e83          	lw	t4,16(sp)
   12430:	02012e03          	lw	t3,32(sp)
   12434:	02412303          	lw	t1,36(sp)
   12438:	00a04463          	bgtz	a0,0x12440
   1243c:	3e00106f          	j	0x1381c
   12440:	000b0513          	mv	a0,s6
   12444:	000a0593          	mv	a1,s4
   12448:	00000613          	li	a2,0
   1244c:	00000693          	li	a3,0
   12450:	62d0d0ef          	jal	0x2027c
   12454:	01012e83          	lw	t4,16(sp)
   12458:	02012e03          	lw	t3,32(sp)
   1245c:	00055463          	bgez	a0,0x12464
   12460:	6650106f          	j	0x142c4
   12464:	07714603          	lbu	a2,119(sp)
   12468:	04700713          	li	a4,71
   1246c:	0000fc17          	auipc	s8,0xf
   12470:	7f0c0c13          	add	s8,s8,2032 # 0x21c5c
   12474:	01c74663          	blt	a4,t3,0x12480
   12478:	0000fc17          	auipc	s8,0xf
   1247c:	7e0c0c13          	add	s8,s8,2016 # 0x21c58
   12480:	00012823          	sw	zero,16(sp)
   12484:	02012223          	sw	zero,36(sp)
   12488:	02012023          	sw	zero,32(sp)
   1248c:	f7fefe93          	and	t4,t4,-129
   12490:	00300c93          	li	s9,3
   12494:	00300d13          	li	s10,3
   12498:	00000313          	li	t1,0
   1249c:	00000a13          	li	s4,0
   124a0:	be0602e3          	beqz	a2,0x12084
   124a4:	001c8c93          	add	s9,s9,1
   124a8:	bddff06f          	j	0x12084
   124ac:	01000593          	li	a1,16
   124b0:	0a412603          	lw	a2,164(sp)
   124b4:	00010b17          	auipc	s6,0x10
   124b8:	cb0b0b13          	add	s6,s6,-848 # 0x22164
   124bc:	0ae5dc63          	bge	a1,a4,0x12574
   124c0:	00040793          	mv	a5,s0
   124c4:	00048693          	mv	a3,s1
   124c8:	01000893          	li	a7,16
   124cc:	000b0493          	mv	s1,s6
   124d0:	00700393          	li	t2,7
   124d4:	000a0b13          	mv	s6,s4
   124d8:	04512223          	sw	t0,68(sp)
   124dc:	05f12823          	sw	t6,80(sp)
   124e0:	05d12a23          	sw	t4,84(sp)
   124e4:	05c12c23          	sw	t3,88(sp)
   124e8:	00070413          	mv	s0,a4
   124ec:	00030a13          	mv	s4,t1
   124f0:	00c0006f          	j	0x124fc
   124f4:	ff040413          	add	s0,s0,-16
   124f8:	0488da63          	bge	a7,s0,0x1254c
   124fc:	01068693          	add	a3,a3,16
   12500:	00160613          	add	a2,a2,1
   12504:	0097a023          	sw	s1,0(a5)
   12508:	0117a223          	sw	a7,4(a5)
   1250c:	0ad12423          	sw	a3,168(sp)
   12510:	0ac12223          	sw	a2,164(sp)
   12514:	00878793          	add	a5,a5,8
   12518:	fcc3dee3          	bge	t2,a2,0x124f4
   1251c:	00812583          	lw	a1,8(sp)
   12520:	0a010613          	add	a2,sp,160
   12524:	00098513          	mv	a0,s3
   12528:	7ec020ef          	jal	0x14d14
   1252c:	de0514e3          	bnez	a0,0x12314
   12530:	01000893          	li	a7,16
   12534:	ff040413          	add	s0,s0,-16
   12538:	0a812683          	lw	a3,168(sp)
   1253c:	0a412603          	lw	a2,164(sp)
   12540:	0ac10793          	add	a5,sp,172
   12544:	00700393          	li	t2,7
   12548:	fa88cae3          	blt	a7,s0,0x124fc
   1254c:	04412283          	lw	t0,68(sp)
   12550:	05012f83          	lw	t6,80(sp)
   12554:	05412e83          	lw	t4,84(sp)
   12558:	05812e03          	lw	t3,88(sp)
   1255c:	000a0313          	mv	t1,s4
   12560:	00040713          	mv	a4,s0
   12564:	000b0a13          	mv	s4,s6
   12568:	00078413          	mv	s0,a5
   1256c:	00048b13          	mv	s6,s1
   12570:	00068493          	mv	s1,a3
   12574:	00e484b3          	add	s1,s1,a4
   12578:	00160613          	add	a2,a2,1
   1257c:	00e42223          	sw	a4,4(s0)
   12580:	01642023          	sw	s6,0(s0)
   12584:	0a912423          	sw	s1,168(sp)
   12588:	0ac12223          	sw	a2,164(sp)
   1258c:	00700713          	li	a4,7
   12590:	00c75463          	bge	a4,a2,0x12598
   12594:	2380106f          	j	0x137cc
   12598:	07714603          	lbu	a2,119(sp)
   1259c:	00840413          	add	s0,s0,8
   125a0:	b05ff06f          	j	0x120a4
   125a4:	00812583          	lw	a1,8(sp)
   125a8:	0a010613          	add	a2,sp,160
   125ac:	00098513          	mv	a0,s3
   125b0:	04612e23          	sw	t1,92(sp)
   125b4:	05c12c23          	sw	t3,88(sp)
   125b8:	05d12a23          	sw	t4,84(sp)
   125bc:	05f12823          	sw	t6,80(sp)
   125c0:	04512223          	sw	t0,68(sp)
   125c4:	750020ef          	jal	0x14d14
   125c8:	d40516e3          	bnez	a0,0x12314
   125cc:	0a812483          	lw	s1,168(sp)
   125d0:	05c12303          	lw	t1,92(sp)
   125d4:	05812e03          	lw	t3,88(sp)
   125d8:	05412e83          	lw	t4,84(sp)
   125dc:	05012f83          	lw	t6,80(sp)
   125e0:	04412283          	lw	t0,68(sp)
   125e4:	0ac10413          	add	s0,sp,172
   125e8:	af1ff06f          	j	0x120d8
   125ec:	0a412d03          	lw	s10,164(sp)
   125f0:	01812783          	lw	a5,24(sp)
   125f4:	00100693          	li	a3,1
   125f8:	01842023          	sw	s8,0(s0)
   125fc:	00148493          	add	s1,s1,1
   12600:	001d0d13          	add	s10,s10,1
   12604:	00840b13          	add	s6,s0,8
   12608:	32f6d0e3          	bge	a3,a5,0x13128
   1260c:	00100693          	li	a3,1
   12610:	00d42223          	sw	a3,4(s0)
   12614:	0a912423          	sw	s1,168(sp)
   12618:	0ba12223          	sw	s10,164(sp)
   1261c:	00700693          	li	a3,7
   12620:	01a6d463          	bge	a3,s10,0x12628
   12624:	0680106f          	j	0x1368c
   12628:	03012783          	lw	a5,48(sp)
   1262c:	03412703          	lw	a4,52(sp)
   12630:	001d0d13          	add	s10,s10,1
   12634:	00f484b3          	add	s1,s1,a5
   12638:	00eb2023          	sw	a4,0(s6)
   1263c:	00fb2223          	sw	a5,4(s6)
   12640:	0a912423          	sw	s1,168(sp)
   12644:	0ba12223          	sw	s10,164(sp)
   12648:	00700693          	li	a3,7
   1264c:	008b0b13          	add	s6,s6,8
   12650:	01a6d463          	bge	a3,s10,0x12658
   12654:	0680106f          	j	0x136bc
   12658:	02812603          	lw	a2,40(sp)
   1265c:	02c12683          	lw	a3,44(sp)
   12660:	01812783          	lw	a5,24(sp)
   12664:	00060513          	mv	a0,a2
   12668:	00068593          	mv	a1,a3
   1266c:	00000613          	li	a2,0
   12670:	00000693          	li	a3,0
   12674:	03d12023          	sw	t4,32(sp)
   12678:	fff78413          	add	s0,a5,-1
   1267c:	2750d0ef          	jal	0x200f0
   12680:	02012e83          	lw	t4,32(sp)
   12684:	2e0506e3          	beqz	a0,0x13170
   12688:	001c0793          	add	a5,s8,1
   1268c:	001d0d13          	add	s10,s10,1
   12690:	008484b3          	add	s1,s1,s0
   12694:	00fb2023          	sw	a5,0(s6)
   12698:	008b2223          	sw	s0,4(s6)
   1269c:	0a912423          	sw	s1,168(sp)
   126a0:	0ba12223          	sw	s10,164(sp)
   126a4:	00700793          	li	a5,7
   126a8:	008b0b13          	add	s6,s6,8
   126ac:	29a7cce3          	blt	a5,s10,0x13144
   126b0:	04012703          	lw	a4,64(sp)
   126b4:	08810793          	add	a5,sp,136
   126b8:	001d0d13          	add	s10,s10,1
   126bc:	009704b3          	add	s1,a4,s1
   126c0:	00fb2023          	sw	a5,0(s6)
   126c4:	00eb2223          	sw	a4,4(s6)
   126c8:	0a912423          	sw	s1,168(sp)
   126cc:	0ba12223          	sw	s10,164(sp)
   126d0:	00700793          	li	a5,7
   126d4:	008b0413          	add	s0,s6,8
   126d8:	a7a7dae3          	bge	a5,s10,0x1214c
   126dc:	00812583          	lw	a1,8(sp)
   126e0:	0a010613          	add	a2,sp,160
   126e4:	00098513          	mv	a0,s3
   126e8:	03d12023          	sw	t4,32(sp)
   126ec:	628020ef          	jal	0x14d14
   126f0:	c20512e3          	bnez	a0,0x12314
   126f4:	0a812483          	lw	s1,168(sp)
   126f8:	02012e83          	lw	t4,32(sp)
   126fc:	0ac10413          	add	s0,sp,172
   12700:	a4dff06f          	j	0x1214c
   12704:	2007f713          	and	a4,a5,512
   12708:	c2071ce3          	bnez	a4,0x12340
   1270c:	00812403          	lw	s0,8(sp)
   12710:	05842503          	lw	a0,88(s0)
   12714:	80dfe0ef          	jal	0x10f20
   12718:	00c41783          	lh	a5,12(s0)
   1271c:	c25ff06f          	j	0x12340
   12720:	00094e03          	lbu	t3,0(s2)
   12724:	020a6a13          	or	s4,s4,32
   12728:	8cdff06f          	j	0x11ff4
   1272c:	01412703          	lw	a4,20(sp)
   12730:	04300793          	li	a5,67
   12734:	000a0e93          	mv	t4,s4
   12738:	00470493          	add	s1,a4,4
   1273c:	64fe08e3          	beq	t3,a5,0x1358c
   12740:	010a7793          	and	a5,s4,16
   12744:	640794e3          	bnez	a5,0x1358c
   12748:	01412783          	lw	a5,20(sp)
   1274c:	00100c93          	li	s9,1
   12750:	00100d13          	li	s10,1
   12754:	0007a783          	lw	a5,0(a5)
   12758:	0ec10c13          	add	s8,sp,236
   1275c:	0ef10623          	sb	a5,236(sp)
   12760:	06010ba3          	sb	zero,119(sp)
   12764:	00912a23          	sw	s1,20(sp)
   12768:	00000613          	li	a2,0
   1276c:	00012823          	sw	zero,16(sp)
   12770:	00000313          	li	t1,0
   12774:	02012223          	sw	zero,36(sp)
   12778:	02012023          	sw	zero,32(sp)
   1277c:	00000a13          	li	s4,0
   12780:	905ff06f          	j	0x12084
   12784:	01412783          	lw	a5,20(sp)
   12788:	06010ba3          	sb	zero,119(sp)
   1278c:	000b0313          	mv	t1,s6
   12790:	0007ac03          	lw	s8,0(a5)
   12794:	000a0e93          	mv	t4,s4
   12798:	00478b13          	add	s6,a5,4
   1279c:	5a0c0ce3          	beqz	s8,0x13554
   127a0:	05300713          	li	a4,83
   127a4:	00ee1463          	bne	t3,a4,0x127ac
   127a8:	1d00106f          	j	0x13978
   127ac:	010a7a13          	and	s4,s4,16
   127b0:	000a0463          	beqz	s4,0x127b8
   127b4:	1c40106f          	j	0x13978
   127b8:	00035463          	bgez	t1,0x127c0
   127bc:	6d40106f          	j	0x13e90
   127c0:	00030613          	mv	a2,t1
   127c4:	00000593          	li	a1,0
   127c8:	000c0513          	mv	a0,s8
   127cc:	03d12023          	sw	t4,32(sp)
   127d0:	00612a23          	sw	t1,20(sp)
   127d4:	501040ef          	jal	0x174d4
   127d8:	00a12823          	sw	a0,16(sp)
   127dc:	01412303          	lw	t1,20(sp)
   127e0:	02012e83          	lw	t4,32(sp)
   127e4:	00051463          	bnez	a0,0x127ec
   127e8:	1780206f          	j	0x14960
   127ec:	01012783          	lw	a5,16(sp)
   127f0:	07714603          	lbu	a2,119(sp)
   127f4:	01612a23          	sw	s6,20(sp)
   127f8:	41878d33          	sub	s10,a5,s8
   127fc:	fffd4813          	not	a6,s10
   12800:	41f85813          	sra	a6,a6,0x1f
   12804:	02012223          	sw	zero,36(sp)
   12808:	02012023          	sw	zero,32(sp)
   1280c:	00012823          	sw	zero,16(sp)
   12810:	010d7cb3          	and	s9,s10,a6
   12814:	00000313          	li	t1,0
   12818:	07300e13          	li	t3,115
   1281c:	860604e3          	beqz	a2,0x12084
   12820:	c85ff06f          	j	0x124a4
   12824:	01412783          	lw	a5,20(sp)
   12828:	0007ab83          	lw	s7,0(a5)
   1282c:	00478793          	add	a5,a5,4
   12830:	2a0bdae3          	bgez	s7,0x132e4
   12834:	41700bb3          	neg	s7,s7
   12838:	00f12a23          	sw	a5,20(sp)
   1283c:	00094e03          	lbu	t3,0(s2)
   12840:	004a6a13          	or	s4,s4,4
   12844:	fb0ff06f          	j	0x11ff4
   12848:	02b00793          	li	a5,43
   1284c:	00094e03          	lbu	t3,0(s2)
   12850:	06f10ba3          	sb	a5,119(sp)
   12854:	fa0ff06f          	j	0x11ff4
   12858:	000b0313          	mv	t1,s6
   1285c:	010a6613          	or	a2,s4,16
   12860:	02067793          	and	a5,a2,32
   12864:	1c0780e3          	beqz	a5,0x13224
   12868:	01412783          	lw	a5,20(sp)
   1286c:	00778b13          	add	s6,a5,7
   12870:	ff8b7b13          	and	s6,s6,-8
   12874:	000b2d03          	lw	s10,0(s6)
   12878:	004b2c83          	lw	s9,4(s6)
   1287c:	008b0793          	add	a5,s6,8
   12880:	00f12a23          	sw	a5,20(sp)
   12884:	00100793          	li	a5,1
   12888:	00000713          	li	a4,0
   1288c:	06e10ba3          	sb	a4,119(sp)
   12890:	34034c63          	bltz	t1,0x12be8
   12894:	019d6733          	or	a4,s10,s9
   12898:	f7f67e93          	and	t4,a2,-129
   1289c:	34071463          	bnez	a4,0x12be4
   128a0:	3a031a63          	bnez	t1,0x12c54
   128a4:	5c079ee3          	bnez	a5,0x13680
   128a8:	00167d13          	and	s10,a2,1
   128ac:	15010c13          	add	s8,sp,336
   128b0:	2c0d10e3          	bnez	s10,0x13370
   128b4:	07714603          	lbu	a2,119(sp)
   128b8:	00030c93          	mv	s9,t1
   128bc:	01a35463          	bge	t1,s10,0x128c4
   128c0:	000d0c93          	mv	s9,s10
   128c4:	00012823          	sw	zero,16(sp)
   128c8:	02012223          	sw	zero,36(sp)
   128cc:	02012023          	sw	zero,32(sp)
   128d0:	00000a13          	li	s4,0
   128d4:	fa060863          	beqz	a2,0x12084
   128d8:	bcdff06f          	j	0x124a4
   128dc:	00094e03          	lbu	t3,0(s2)
   128e0:	080a6a13          	or	s4,s4,128
   128e4:	f10ff06f          	j	0x11ff4
   128e8:	00094e03          	lbu	t3,0(s2)
   128ec:	02a00793          	li	a5,42
   128f0:	00190693          	add	a3,s2,1
   128f4:	00fe1463          	bne	t3,a5,0x128fc
   128f8:	1100206f          	j	0x14a08
   128fc:	fd0e0713          	add	a4,t3,-48
   12900:	00900793          	li	a5,9
   12904:	00000b13          	li	s6,0
   12908:	00900613          	li	a2,9
   1290c:	02e7e463          	bltu	a5,a4,0x12934
   12910:	0006ce03          	lbu	t3,0(a3)
   12914:	002b1793          	sll	a5,s6,0x2
   12918:	016787b3          	add	a5,a5,s6
   1291c:	00179793          	sll	a5,a5,0x1
   12920:	00e78b33          	add	s6,a5,a4
   12924:	fd0e0713          	add	a4,t3,-48
   12928:	00168693          	add	a3,a3,1
   1292c:	fee672e3          	bgeu	a2,a4,0x12910
   12930:	320b4ce3          	bltz	s6,0x13468
   12934:	00068913          	mv	s2,a3
   12938:	ec0ff06f          	j	0x11ff8
   1293c:	00094e03          	lbu	t3,0(s2)
   12940:	001a6a13          	or	s4,s4,1
   12944:	eb0ff06f          	j	0x11ff4
   12948:	07714783          	lbu	a5,119(sp)
   1294c:	00094e03          	lbu	t3,0(s2)
   12950:	ea079263          	bnez	a5,0x11ff4
   12954:	02000793          	li	a5,32
   12958:	06f10ba3          	sb	a5,119(sp)
   1295c:	e98ff06f          	j	0x11ff4
   12960:	00094e03          	lbu	t3,0(s2)
   12964:	06c00793          	li	a5,108
   12968:	3afe00e3          	beq	t3,a5,0x13508
   1296c:	010a6a13          	or	s4,s4,16
   12970:	e84ff06f          	j	0x11ff4
   12974:	00094e03          	lbu	t3,0(s2)
   12978:	008a6a13          	or	s4,s4,8
   1297c:	e78ff06f          	j	0x11ff4
   12980:	000b0313          	mv	t1,s6
   12984:	010a6e93          	or	t4,s4,16
   12988:	020ef793          	and	a5,t4,32
   1298c:	0c0786e3          	beqz	a5,0x13258
   12990:	01412783          	lw	a5,20(sp)
   12994:	00778b13          	add	s6,a5,7
   12998:	ff8b7b13          	and	s6,s6,-8
   1299c:	004b2783          	lw	a5,4(s6)
   129a0:	000b2d03          	lw	s10,0(s6)
   129a4:	008b0713          	add	a4,s6,8
   129a8:	00e12a23          	sw	a4,20(sp)
   129ac:	00078c93          	mv	s9,a5
   129b0:	0c07cee3          	bltz	a5,0x1328c
   129b4:	000e8613          	mv	a2,t4
   129b8:	02034263          	bltz	t1,0x129dc
   129bc:	019d67b3          	or	a5,s10,s9
   129c0:	f7fef613          	and	a2,t4,-129
   129c4:	00079c63          	bnez	a5,0x129dc
   129c8:	02031063          	bnez	t1,0x129e8
   129cc:	00000d13          	li	s10,0
   129d0:	00060e93          	mv	t4,a2
   129d4:	15010c13          	add	s8,sp,336
   129d8:	eddff06f          	j	0x128b4
   129dc:	520c90e3          	bnez	s9,0x136fc
   129e0:	00900793          	li	a5,9
   129e4:	51a7ece3          	bltu	a5,s10,0x136fc
   129e8:	030d0d13          	add	s10,s10,48
   129ec:	15a107a3          	sb	s10,335(sp)
   129f0:	00060e93          	mv	t4,a2
   129f4:	00100d13          	li	s10,1
   129f8:	14f10c13          	add	s8,sp,335
   129fc:	eb9ff06f          	j	0x128b4
   12a00:	000b0313          	mv	t1,s6
   12a04:	010a6e93          	or	t4,s4,16
   12a08:	020ef793          	and	a5,t4,32
   12a0c:	7e078463          	beqz	a5,0x131f4
   12a10:	01412783          	lw	a5,20(sp)
   12a14:	00778b13          	add	s6,a5,7
   12a18:	ff8b7b13          	and	s6,s6,-8
   12a1c:	000b2d03          	lw	s10,0(s6)
   12a20:	004b2c83          	lw	s9,4(s6)
   12a24:	008b0793          	add	a5,s6,8
   12a28:	00f12a23          	sw	a5,20(sp)
   12a2c:	bffef613          	and	a2,t4,-1025
   12a30:	00000793          	li	a5,0
   12a34:	e55ff06f          	j	0x12888
   12a38:	00094e03          	lbu	t3,0(s2)
   12a3c:	06800793          	li	a5,104
   12a40:	2cfe0ce3          	beq	t3,a5,0x13518
   12a44:	040a6a13          	or	s4,s4,64
   12a48:	dacff06f          	j	0x11ff4
   12a4c:	01412703          	lw	a4,20(sp)
   12a50:	000087b7          	lui	a5,0x8
   12a54:	83078793          	add	a5,a5,-2000 # 0x7830
   12a58:	06f11c23          	sh	a5,120(sp)
   12a5c:	00470793          	add	a5,a4,4
   12a60:	00f12a23          	sw	a5,20(sp)
   12a64:	0000f797          	auipc	a5,0xf
   12a68:	20478793          	add	a5,a5,516 # 0x21c68
   12a6c:	02f12c23          	sw	a5,56(sp)
   12a70:	00072d03          	lw	s10,0(a4)
   12a74:	000b0313          	mv	t1,s6
   12a78:	00000c93          	li	s9,0
   12a7c:	002a6613          	or	a2,s4,2
   12a80:	00200793          	li	a5,2
   12a84:	07800e13          	li	t3,120
   12a88:	e01ff06f          	j	0x12888
   12a8c:	020a7793          	and	a5,s4,32
   12a90:	180784e3          	beqz	a5,0x13418
   12a94:	01412783          	lw	a5,20(sp)
   12a98:	00c12683          	lw	a3,12(sp)
   12a9c:	0007a783          	lw	a5,0(a5)
   12aa0:	41f6d713          	sra	a4,a3,0x1f
   12aa4:	00d7a023          	sw	a3,0(a5)
   12aa8:	00e7a223          	sw	a4,4(a5)
   12aac:	01412783          	lw	a5,20(sp)
   12ab0:	00090c13          	mv	s8,s2
   12ab4:	00478793          	add	a5,a5,4
   12ab8:	00f12a23          	sw	a5,20(sp)
   12abc:	cccff06f          	j	0x11f88
   12ac0:	06500713          	li	a4,101
   12ac4:	b3c754e3          	bge	a4,t3,0x125ec
   12ac8:	02812683          	lw	a3,40(sp)
   12acc:	02c12703          	lw	a4,44(sp)
   12ad0:	00000613          	li	a2,0
   12ad4:	00068513          	mv	a0,a3
   12ad8:	00070593          	mv	a1,a4
   12adc:	00000693          	li	a3,0
   12ae0:	05d12223          	sw	t4,68(sp)
   12ae4:	60c0d0ef          	jal	0x200f0
   12ae8:	04412e83          	lw	t4,68(sp)
   12aec:	4e051463          	bnez	a0,0x12fd4
   12af0:	0a412783          	lw	a5,164(sp)
   12af4:	0000f717          	auipc	a4,0xf
   12af8:	1a470713          	add	a4,a4,420 # 0x21c98
   12afc:	00e42023          	sw	a4,0(s0)
   12b00:	00148493          	add	s1,s1,1
   12b04:	00100713          	li	a4,1
   12b08:	00178793          	add	a5,a5,1
   12b0c:	00e42223          	sw	a4,4(s0)
   12b10:	0a912423          	sw	s1,168(sp)
   12b14:	0af12223          	sw	a5,164(sp)
   12b18:	00700713          	li	a4,7
   12b1c:	00840413          	add	s0,s0,8
   12b20:	62f746e3          	blt	a4,a5,0x1394c
   12b24:	07c12783          	lw	a5,124(sp)
   12b28:	01812703          	lw	a4,24(sp)
   12b2c:	78e7de63          	bge	a5,a4,0x132c8
   12b30:	03412783          	lw	a5,52(sp)
   12b34:	03012703          	lw	a4,48(sp)
   12b38:	00840413          	add	s0,s0,8
   12b3c:	fef42c23          	sw	a5,-8(s0)
   12b40:	0a412783          	lw	a5,164(sp)
   12b44:	00e484b3          	add	s1,s1,a4
   12b48:	fee42e23          	sw	a4,-4(s0)
   12b4c:	00178793          	add	a5,a5,1
   12b50:	0a912423          	sw	s1,168(sp)
   12b54:	0af12223          	sw	a5,164(sp)
   12b58:	00700713          	li	a4,7
   12b5c:	1cf746e3          	blt	a4,a5,0x13528
   12b60:	01812783          	lw	a5,24(sp)
   12b64:	fff78d13          	add	s10,a5,-1
   12b68:	dfa05263          	blez	s10,0x1214c
   12b6c:	01000713          	li	a4,16
   12b70:	0a412783          	lw	a5,164(sp)
   12b74:	0000f297          	auipc	t0,0xf
   12b78:	5e028293          	add	t0,t0,1504 # 0x22154
   12b7c:	77a752e3          	bge	a4,s10,0x13ae0
   12b80:	00048713          	mv	a4,s1
   12b84:	01000c13          	li	s8,16
   12b88:	00700b13          	li	s6,7
   12b8c:	000e8493          	mv	s1,t4
   12b90:	00028a13          	mv	s4,t0
   12b94:	00c0006f          	j	0x12ba0
   12b98:	ff0d0d13          	add	s10,s10,-16
   12b9c:	73ac5ce3          	bge	s8,s10,0x13ad4
   12ba0:	01070713          	add	a4,a4,16
   12ba4:	00178793          	add	a5,a5,1
   12ba8:	01442023          	sw	s4,0(s0)
   12bac:	01842223          	sw	s8,4(s0)
   12bb0:	0ae12423          	sw	a4,168(sp)
   12bb4:	0af12223          	sw	a5,164(sp)
   12bb8:	00840413          	add	s0,s0,8
   12bbc:	fcfb5ee3          	bge	s6,a5,0x12b98
   12bc0:	00812583          	lw	a1,8(sp)
   12bc4:	0a010613          	add	a2,sp,160
   12bc8:	00098513          	mv	a0,s3
   12bcc:	148020ef          	jal	0x14d14
   12bd0:	f4051263          	bnez	a0,0x12314
   12bd4:	0a812703          	lw	a4,168(sp)
   12bd8:	0a412783          	lw	a5,164(sp)
   12bdc:	0ac10413          	add	s0,sp,172
   12be0:	fb9ff06f          	j	0x12b98
   12be4:	000e8613          	mv	a2,t4
   12be8:	00100713          	li	a4,1
   12bec:	dee788e3          	beq	a5,a4,0x129dc
   12bf0:	00200713          	li	a4,2
   12bf4:	06e78c63          	beq	a5,a4,0x12c6c
   12bf8:	15010c13          	add	s8,sp,336
   12bfc:	01dc9793          	sll	a5,s9,0x1d
   12c00:	007d7713          	and	a4,s10,7
   12c04:	003d5d13          	srl	s10,s10,0x3
   12c08:	03070713          	add	a4,a4,48
   12c0c:	01a7ed33          	or	s10,a5,s10
   12c10:	003cdc93          	srl	s9,s9,0x3
   12c14:	feec0fa3          	sb	a4,-1(s8)
   12c18:	019d67b3          	or	a5,s10,s9
   12c1c:	000c0593          	mv	a1,s8
   12c20:	fffc0c13          	add	s8,s8,-1
   12c24:	fc079ce3          	bnez	a5,0x12bfc
   12c28:	00167693          	and	a3,a2,1
   12c2c:	06068a63          	beqz	a3,0x12ca0
   12c30:	03000693          	li	a3,48
   12c34:	06d70663          	beq	a4,a3,0x12ca0
   12c38:	ffe58593          	add	a1,a1,-2 # 0x1ffe
   12c3c:	15010793          	add	a5,sp,336
   12c40:	fedc0fa3          	sb	a3,-1(s8)
   12c44:	40b78d33          	sub	s10,a5,a1
   12c48:	00060e93          	mv	t4,a2
   12c4c:	00058c13          	mv	s8,a1
   12c50:	c65ff06f          	j	0x128b4
   12c54:	00100713          	li	a4,1
   12c58:	00e79463          	bne	a5,a4,0x12c60
   12c5c:	2b10106f          	j	0x1470c
   12c60:	00200713          	li	a4,2
   12c64:	000e8613          	mv	a2,t4
   12c68:	f8e798e3          	bne	a5,a4,0x12bf8
   12c6c:	03812683          	lw	a3,56(sp)
   12c70:	15010c13          	add	s8,sp,336
   12c74:	00fd7793          	and	a5,s10,15
   12c78:	00f687b3          	add	a5,a3,a5
   12c7c:	0007c703          	lbu	a4,0(a5)
   12c80:	004d5d13          	srl	s10,s10,0x4
   12c84:	01cc9793          	sll	a5,s9,0x1c
   12c88:	01a7ed33          	or	s10,a5,s10
   12c8c:	004cdc93          	srl	s9,s9,0x4
   12c90:	feec0fa3          	sb	a4,-1(s8)
   12c94:	019d67b3          	or	a5,s10,s9
   12c98:	fffc0c13          	add	s8,s8,-1
   12c9c:	fc079ce3          	bnez	a5,0x12c74
   12ca0:	15010793          	add	a5,sp,336
   12ca4:	41878d33          	sub	s10,a5,s8
   12ca8:	00060e93          	mv	t4,a2
   12cac:	c09ff06f          	j	0x128b4
   12cb0:	419b8b33          	sub	s6,s7,s9
   12cb4:	c7605063          	blez	s6,0x12114
   12cb8:	01000593          	li	a1,16
   12cbc:	0a412603          	lw	a2,164(sp)
   12cc0:	0000f297          	auipc	t0,0xf
   12cc4:	49428293          	add	t0,t0,1172 # 0x22154
   12cc8:	0b65d463          	bge	a1,s6,0x12d70
   12ccc:	00040793          	mv	a5,s0
   12cd0:	00048713          	mv	a4,s1
   12cd4:	000b0413          	mv	s0,s6
   12cd8:	01000893          	li	a7,16
   12cdc:	000a0b13          	mv	s6,s4
   12ce0:	00700f93          	li	t6,7
   12ce4:	05d12223          	sw	t4,68(sp)
   12ce8:	05c12823          	sw	t3,80(sp)
   12cec:	00030a13          	mv	s4,t1
   12cf0:	00028493          	mv	s1,t0
   12cf4:	00c0006f          	j	0x12d00
   12cf8:	ff040413          	add	s0,s0,-16
   12cfc:	0488da63          	bge	a7,s0,0x12d50
   12d00:	01070713          	add	a4,a4,16
   12d04:	00160613          	add	a2,a2,1
   12d08:	0097a023          	sw	s1,0(a5)
   12d0c:	0117a223          	sw	a7,4(a5)
   12d10:	0ae12423          	sw	a4,168(sp)
   12d14:	0ac12223          	sw	a2,164(sp)
   12d18:	00878793          	add	a5,a5,8
   12d1c:	fccfdee3          	bge	t6,a2,0x12cf8
   12d20:	00812583          	lw	a1,8(sp)
   12d24:	0a010613          	add	a2,sp,160
   12d28:	00098513          	mv	a0,s3
   12d2c:	7e9010ef          	jal	0x14d14
   12d30:	de051263          	bnez	a0,0x12314
   12d34:	01000893          	li	a7,16
   12d38:	ff040413          	add	s0,s0,-16
   12d3c:	0a812703          	lw	a4,168(sp)
   12d40:	0a412603          	lw	a2,164(sp)
   12d44:	0ac10793          	add	a5,sp,172
   12d48:	00700f93          	li	t6,7
   12d4c:	fa88cae3          	blt	a7,s0,0x12d00
   12d50:	04412e83          	lw	t4,68(sp)
   12d54:	05012e03          	lw	t3,80(sp)
   12d58:	000a0313          	mv	t1,s4
   12d5c:	00048293          	mv	t0,s1
   12d60:	000b0a13          	mv	s4,s6
   12d64:	00070493          	mv	s1,a4
   12d68:	00040b13          	mv	s6,s0
   12d6c:	00078413          	mv	s0,a5
   12d70:	016484b3          	add	s1,s1,s6
   12d74:	00160613          	add	a2,a2,1
   12d78:	00542023          	sw	t0,0(s0)
   12d7c:	01642223          	sw	s6,4(s0)
   12d80:	0a912423          	sw	s1,168(sp)
   12d84:	0ac12223          	sw	a2,164(sp)
   12d88:	00700713          	li	a4,7
   12d8c:	00840413          	add	s0,s0,8
   12d90:	b8c75263          	bge	a4,a2,0x12114
   12d94:	00812583          	lw	a1,8(sp)
   12d98:	0a010613          	add	a2,sp,160
   12d9c:	00098513          	mv	a0,s3
   12da0:	04612a23          	sw	t1,84(sp)
   12da4:	05c12823          	sw	t3,80(sp)
   12da8:	05d12223          	sw	t4,68(sp)
   12dac:	769010ef          	jal	0x14d14
   12db0:	d6051263          	bnez	a0,0x12314
   12db4:	0a812483          	lw	s1,168(sp)
   12db8:	05412303          	lw	t1,84(sp)
   12dbc:	05012e03          	lw	t3,80(sp)
   12dc0:	04412e83          	lw	t4,68(sp)
   12dc4:	0ac10413          	add	s0,sp,172
   12dc8:	b4cff06f          	j	0x12114
   12dcc:	01000713          	li	a4,16
   12dd0:	0a412603          	lw	a2,164(sp)
   12dd4:	0000f297          	auipc	t0,0xf
   12dd8:	38028293          	add	t0,t0,896 # 0x22154
   12ddc:	0b675063          	bge	a4,s6,0x12e7c
   12de0:	00040793          	mv	a5,s0
   12de4:	00048693          	mv	a3,s1
   12de8:	000b0413          	mv	s0,s6
   12dec:	01000713          	li	a4,16
   12df0:	00700893          	li	a7,7
   12df4:	05d12223          	sw	t4,68(sp)
   12df8:	000e0493          	mv	s1,t3
   12dfc:	00028b13          	mv	s6,t0
   12e00:	00c0006f          	j	0x12e0c
   12e04:	ff040413          	add	s0,s0,-16
   12e08:	04875e63          	bge	a4,s0,0x12e64
   12e0c:	01068693          	add	a3,a3,16
   12e10:	00160613          	add	a2,a2,1
   12e14:	0000f597          	auipc	a1,0xf
   12e18:	34058593          	add	a1,a1,832 # 0x22154
   12e1c:	00b7a023          	sw	a1,0(a5)
   12e20:	00e7a223          	sw	a4,4(a5)
   12e24:	0ad12423          	sw	a3,168(sp)
   12e28:	0ac12223          	sw	a2,164(sp)
   12e2c:	00878793          	add	a5,a5,8
   12e30:	fcc8dae3          	bge	a7,a2,0x12e04
   12e34:	00812583          	lw	a1,8(sp)
   12e38:	0a010613          	add	a2,sp,160
   12e3c:	00098513          	mv	a0,s3
   12e40:	6d5010ef          	jal	0x14d14
   12e44:	cc051863          	bnez	a0,0x12314
   12e48:	01000713          	li	a4,16
   12e4c:	ff040413          	add	s0,s0,-16
   12e50:	0a812683          	lw	a3,168(sp)
   12e54:	0a412603          	lw	a2,164(sp)
   12e58:	0ac10793          	add	a5,sp,172
   12e5c:	00700893          	li	a7,7
   12e60:	fa8746e3          	blt	a4,s0,0x12e0c
   12e64:	04412e83          	lw	t4,68(sp)
   12e68:	00048e13          	mv	t3,s1
   12e6c:	000b0293          	mv	t0,s6
   12e70:	00068493          	mv	s1,a3
   12e74:	00040b13          	mv	s6,s0
   12e78:	00078413          	mv	s0,a5
   12e7c:	016484b3          	add	s1,s1,s6
   12e80:	00160613          	add	a2,a2,1
   12e84:	00542023          	sw	t0,0(s0)
   12e88:	01642223          	sw	s6,4(s0)
   12e8c:	0a912423          	sw	s1,168(sp)
   12e90:	0ac12223          	sw	a2,164(sp)
   12e94:	00700713          	li	a4,7
   12e98:	00840413          	add	s0,s0,8
   12e9c:	a8c75063          	bge	a4,a2,0x1211c
   12ea0:	00812583          	lw	a1,8(sp)
   12ea4:	0a010613          	add	a2,sp,160
   12ea8:	00098513          	mv	a0,s3
   12eac:	05c12823          	sw	t3,80(sp)
   12eb0:	05d12223          	sw	t4,68(sp)
   12eb4:	661010ef          	jal	0x14d14
   12eb8:	c4051e63          	bnez	a0,0x12314
   12ebc:	0a812483          	lw	s1,168(sp)
   12ec0:	05012e03          	lw	t3,80(sp)
   12ec4:	04412e83          	lw	t4,68(sp)
   12ec8:	0ac10413          	add	s0,sp,172
   12ecc:	a50ff06f          	j	0x1211c
   12ed0:	00812583          	lw	a1,8(sp)
   12ed4:	0a010613          	add	a2,sp,160
   12ed8:	00098513          	mv	a0,s3
   12edc:	04612c23          	sw	t1,88(sp)
   12ee0:	05c12a23          	sw	t3,84(sp)
   12ee4:	05d12823          	sw	t4,80(sp)
   12ee8:	05f12223          	sw	t6,68(sp)
   12eec:	629010ef          	jal	0x14d14
   12ef0:	c2051263          	bnez	a0,0x12314
   12ef4:	0a812483          	lw	s1,168(sp)
   12ef8:	05812303          	lw	t1,88(sp)
   12efc:	05412e03          	lw	t3,84(sp)
   12f00:	05012e83          	lw	t4,80(sp)
   12f04:	04412f83          	lw	t6,68(sp)
   12f08:	0ac10413          	add	s0,sp,172
   12f0c:	a00ff06f          	j	0x1210c
   12f10:	01000713          	li	a4,16
   12f14:	0a412783          	lw	a5,164(sp)
   12f18:	0000fb17          	auipc	s6,0xf
   12f1c:	24cb0b13          	add	s6,s6,588 # 0x22164
   12f20:	07a75c63          	bge	a4,s10,0x12f98
   12f24:	000b0713          	mv	a4,s6
   12f28:	01000c13          	li	s8,16
   12f2c:	00090b13          	mv	s6,s2
   12f30:	00700a13          	li	s4,7
   12f34:	00070913          	mv	s2,a4
   12f38:	00c0006f          	j	0x12f44
   12f3c:	ff0d0d13          	add	s10,s10,-16
   12f40:	05ac5663          	bge	s8,s10,0x12f8c
   12f44:	01048493          	add	s1,s1,16
   12f48:	00178793          	add	a5,a5,1
   12f4c:	01242023          	sw	s2,0(s0)
   12f50:	01842223          	sw	s8,4(s0)
   12f54:	0a912423          	sw	s1,168(sp)
   12f58:	0af12223          	sw	a5,164(sp)
   12f5c:	00840413          	add	s0,s0,8
   12f60:	fcfa5ee3          	bge	s4,a5,0x12f3c
   12f64:	00812583          	lw	a1,8(sp)
   12f68:	0a010613          	add	a2,sp,160
   12f6c:	00098513          	mv	a0,s3
   12f70:	5a5010ef          	jal	0x14d14
   12f74:	ba051063          	bnez	a0,0x12314
   12f78:	ff0d0d13          	add	s10,s10,-16
   12f7c:	0a812483          	lw	s1,168(sp)
   12f80:	0a412783          	lw	a5,164(sp)
   12f84:	0ac10413          	add	s0,sp,172
   12f88:	fbac4ee3          	blt	s8,s10,0x12f44
   12f8c:	00090713          	mv	a4,s2
   12f90:	000b0913          	mv	s2,s6
   12f94:	00070b13          	mv	s6,a4
   12f98:	01a484b3          	add	s1,s1,s10
   12f9c:	00178793          	add	a5,a5,1
   12fa0:	01642023          	sw	s6,0(s0)
   12fa4:	01a42223          	sw	s10,4(s0)
   12fa8:	0a912423          	sw	s1,168(sp)
   12fac:	0af12223          	sw	a5,164(sp)
   12fb0:	00700713          	li	a4,7
   12fb4:	9af75463          	bge	a4,a5,0x1215c
   12fb8:	00812583          	lw	a1,8(sp)
   12fbc:	0a010613          	add	a2,sp,160
   12fc0:	00098513          	mv	a0,s3
   12fc4:	551010ef          	jal	0x14d14
   12fc8:	b4051663          	bnez	a0,0x12314
   12fcc:	0a812483          	lw	s1,168(sp)
   12fd0:	98cff06f          	j	0x1215c
   12fd4:	07c12683          	lw	a3,124(sp)
   12fd8:	30d05c63          	blez	a3,0x132f0
   12fdc:	01812783          	lw	a5,24(sp)
   12fe0:	000a0b13          	mv	s6,s4
   12fe4:	0147d463          	bge	a5,s4,0x12fec
   12fe8:	00078b13          	mv	s6,a5
   12fec:	03605863          	blez	s6,0x1301c
   12ff0:	0a412683          	lw	a3,164(sp)
   12ff4:	016484b3          	add	s1,s1,s6
   12ff8:	01842023          	sw	s8,0(s0)
   12ffc:	00168693          	add	a3,a3,1
   13000:	01642223          	sw	s6,4(s0)
   13004:	0a912423          	sw	s1,168(sp)
   13008:	0ad12223          	sw	a3,164(sp)
   1300c:	00700613          	li	a2,7
   13010:	00840413          	add	s0,s0,8
   13014:	00d65463          	bge	a2,a3,0x1301c
   13018:	5c40106f          	j	0x145dc
   1301c:	fffb4693          	not	a3,s6
   13020:	41f6d693          	sra	a3,a3,0x1f
   13024:	00db7733          	and	a4,s6,a3
   13028:	40ea0b33          	sub	s6,s4,a4
   1302c:	35604ae3          	bgtz	s6,0x13b80
   13030:	400ef713          	and	a4,t4,1024
   13034:	014c0333          	add	t1,s8,s4
   13038:	00070463          	beqz	a4,0x13040
   1303c:	2980106f          	j	0x142d4
   13040:	07c12d03          	lw	s10,124(sp)
   13044:	01812783          	lw	a5,24(sp)
   13048:	5afd4063          	blt	s10,a5,0x135e8
   1304c:	001ef713          	and	a4,t4,1
   13050:	58071c63          	bnez	a4,0x135e8
   13054:	01812703          	lw	a4,24(sp)
   13058:	00ec07b3          	add	a5,s8,a4
   1305c:	41a70d33          	sub	s10,a4,s10
   13060:	40678b33          	sub	s6,a5,t1
   13064:	016d5463          	bge	s10,s6,0x1306c
   13068:	000d0b13          	mv	s6,s10
   1306c:	03605863          	blez	s6,0x1309c
   13070:	0a412703          	lw	a4,164(sp)
   13074:	016484b3          	add	s1,s1,s6
   13078:	00642023          	sw	t1,0(s0)
   1307c:	00170713          	add	a4,a4,1
   13080:	01642223          	sw	s6,4(s0)
   13084:	0a912423          	sw	s1,168(sp)
   13088:	0ae12223          	sw	a4,164(sp)
   1308c:	00700693          	li	a3,7
   13090:	00840413          	add	s0,s0,8
   13094:	00e6d463          	bge	a3,a4,0x1309c
   13098:	5880106f          	j	0x14620
   1309c:	fffb4713          	not	a4,s6
   130a0:	41f75713          	sra	a4,a4,0x1f
   130a4:	00eb77b3          	and	a5,s6,a4
   130a8:	40fd0d33          	sub	s10,s10,a5
   130ac:	8ba05063          	blez	s10,0x1214c
   130b0:	01000713          	li	a4,16
   130b4:	0a412783          	lw	a5,164(sp)
   130b8:	0000f297          	auipc	t0,0xf
   130bc:	09c28293          	add	t0,t0,156 # 0x22154
   130c0:	23a750e3          	bge	a4,s10,0x13ae0
   130c4:	00048713          	mv	a4,s1
   130c8:	01000c13          	li	s8,16
   130cc:	00700b13          	li	s6,7
   130d0:	000e8493          	mv	s1,t4
   130d4:	00028a13          	mv	s4,t0
   130d8:	00c0006f          	j	0x130e4
   130dc:	ff0d0d13          	add	s10,s10,-16
   130e0:	1fac5ae3          	bge	s8,s10,0x13ad4
   130e4:	01070713          	add	a4,a4,16
   130e8:	00178793          	add	a5,a5,1
   130ec:	01442023          	sw	s4,0(s0)
   130f0:	01842223          	sw	s8,4(s0)
   130f4:	0ae12423          	sw	a4,168(sp)
   130f8:	0af12223          	sw	a5,164(sp)
   130fc:	00840413          	add	s0,s0,8
   13100:	fcfb5ee3          	bge	s6,a5,0x130dc
   13104:	00812583          	lw	a1,8(sp)
   13108:	0a010613          	add	a2,sp,160
   1310c:	00098513          	mv	a0,s3
   13110:	405010ef          	jal	0x14d14
   13114:	a0051063          	bnez	a0,0x12314
   13118:	0a812703          	lw	a4,168(sp)
   1311c:	0a412783          	lw	a5,164(sp)
   13120:	0ac10413          	add	s0,sp,172
   13124:	fb9ff06f          	j	0x130dc
   13128:	001ef613          	and	a2,t4,1
   1312c:	ce061063          	bnez	a2,0x1260c
   13130:	00d42223          	sw	a3,4(s0)
   13134:	0a912423          	sw	s1,168(sp)
   13138:	0ba12223          	sw	s10,164(sp)
   1313c:	00700793          	li	a5,7
   13140:	d7a7d863          	bge	a5,s10,0x126b0
   13144:	00812583          	lw	a1,8(sp)
   13148:	0a010613          	add	a2,sp,160
   1314c:	00098513          	mv	a0,s3
   13150:	03d12023          	sw	t4,32(sp)
   13154:	3c1010ef          	jal	0x14d14
   13158:	9a051e63          	bnez	a0,0x12314
   1315c:	0a812483          	lw	s1,168(sp)
   13160:	0a412d03          	lw	s10,164(sp)
   13164:	02012e83          	lw	t4,32(sp)
   13168:	0ac10b13          	add	s6,sp,172
   1316c:	d44ff06f          	j	0x126b0
   13170:	01812703          	lw	a4,24(sp)
   13174:	00100793          	li	a5,1
   13178:	d2e7dc63          	bge	a5,a4,0x126b0
   1317c:	01100793          	li	a5,17
   13180:	0000f297          	auipc	t0,0xf
   13184:	fd428293          	add	t0,t0,-44 # 0x22154
   13188:	18e7d4e3          	bge	a5,a4,0x13b10
   1318c:	00040a13          	mv	s4,s0
   13190:	01000793          	li	a5,16
   13194:	00700c13          	li	s8,7
   13198:	03d12023          	sw	t4,32(sp)
   1319c:	00028413          	mv	s0,t0
   131a0:	00c0006f          	j	0x131ac
   131a4:	ff0a0a13          	add	s4,s4,-16
   131a8:	1547dee3          	bge	a5,s4,0x13b04
   131ac:	01048493          	add	s1,s1,16
   131b0:	001d0d13          	add	s10,s10,1
   131b4:	008b2023          	sw	s0,0(s6)
   131b8:	00fb2223          	sw	a5,4(s6)
   131bc:	0a912423          	sw	s1,168(sp)
   131c0:	0ba12223          	sw	s10,164(sp)
   131c4:	008b0b13          	add	s6,s6,8
   131c8:	fdac5ee3          	bge	s8,s10,0x131a4
   131cc:	00812583          	lw	a1,8(sp)
   131d0:	0a010613          	add	a2,sp,160
   131d4:	00098513          	mv	a0,s3
   131d8:	33d010ef          	jal	0x14d14
   131dc:	92051c63          	bnez	a0,0x12314
   131e0:	0a812483          	lw	s1,168(sp)
   131e4:	0a412d03          	lw	s10,164(sp)
   131e8:	0ac10b13          	add	s6,sp,172
   131ec:	01000793          	li	a5,16
   131f0:	fb5ff06f          	j	0x131a4
   131f4:	01412703          	lw	a4,20(sp)
   131f8:	010ef793          	and	a5,t4,16
   131fc:	00072d03          	lw	s10,0(a4)
   13200:	00470713          	add	a4,a4,4
   13204:	00e12a23          	sw	a4,20(sp)
   13208:	1a079663          	bnez	a5,0x133b4
   1320c:	040ef793          	and	a5,t4,64
   13210:	18078e63          	beqz	a5,0x133ac
   13214:	010d1d13          	sll	s10,s10,0x10
   13218:	010d5d13          	srl	s10,s10,0x10
   1321c:	00000c93          	li	s9,0
   13220:	80dff06f          	j	0x12a2c
   13224:	01412703          	lw	a4,20(sp)
   13228:	01067793          	and	a5,a2,16
   1322c:	00072d03          	lw	s10,0(a4)
   13230:	00470713          	add	a4,a4,4
   13234:	00e12a23          	sw	a4,20(sp)
   13238:	14079a63          	bnez	a5,0x1338c
   1323c:	04067793          	and	a5,a2,64
   13240:	14078063          	beqz	a5,0x13380
   13244:	010d1d13          	sll	s10,s10,0x10
   13248:	010d5d13          	srl	s10,s10,0x10
   1324c:	00000c93          	li	s9,0
   13250:	00100793          	li	a5,1
   13254:	e34ff06f          	j	0x12888
   13258:	01412703          	lw	a4,20(sp)
   1325c:	010ef793          	and	a5,t4,16
   13260:	00072d03          	lw	s10,0(a4)
   13264:	00470713          	add	a4,a4,4
   13268:	00e12a23          	sw	a4,20(sp)
   1326c:	12079a63          	bnez	a5,0x133a0
   13270:	040ef793          	and	a5,t4,64
   13274:	12078263          	beqz	a5,0x13398
   13278:	010d1d13          	sll	s10,s10,0x10
   1327c:	410d5d13          	sra	s10,s10,0x10
   13280:	41fd5c93          	sra	s9,s10,0x1f
   13284:	000c8793          	mv	a5,s9
   13288:	f207d663          	bgez	a5,0x129b4
   1328c:	01a037b3          	snez	a5,s10
   13290:	419000b3          	neg	ra,s9
   13294:	40f08cb3          	sub	s9,ra,a5
   13298:	41a00d33          	neg	s10,s10
   1329c:	000e8613          	mv	a2,t4
   132a0:	02d00713          	li	a4,45
   132a4:	00100793          	li	a5,1
   132a8:	de4ff06f          	j	0x1288c
   132ac:	00812403          	lw	s0,8(sp)
   132b0:	00f12623          	sw	a5,12(sp)
   132b4:	05842503          	lw	a0,88(s0)
   132b8:	c51fd0ef          	jal	0x10f08
   132bc:	00c41703          	lh	a4,12(s0)
   132c0:	00c12783          	lw	a5,12(sp)
   132c4:	c05fe06f          	j	0x11ec8
   132c8:	001ef793          	and	a5,t4,1
   132cc:	00079463          	bnez	a5,0x132d4
   132d0:	e7dfe06f          	j	0x1214c
   132d4:	85dff06f          	j	0x12b30
   132d8:	000a0e93          	mv	t4,s4
   132dc:	000b0313          	mv	t1,s6
   132e0:	ea8ff06f          	j	0x12988
   132e4:	00094e03          	lbu	t3,0(s2)
   132e8:	00f12a23          	sw	a5,20(sp)
   132ec:	d09fe06f          	j	0x11ff4
   132f0:	0a412703          	lw	a4,164(sp)
   132f4:	0000f617          	auipc	a2,0xf
   132f8:	9a460613          	add	a2,a2,-1628 # 0x21c98
   132fc:	00c42023          	sw	a2,0(s0)
   13300:	00148493          	add	s1,s1,1
   13304:	00100613          	li	a2,1
   13308:	00170713          	add	a4,a4,1
   1330c:	00c42223          	sw	a2,4(s0)
   13310:	0a912423          	sw	s1,168(sp)
   13314:	0ae12223          	sw	a4,164(sp)
   13318:	00700613          	li	a2,7
   1331c:	00840413          	add	s0,s0,8
   13320:	2ee64ce3          	blt	a2,a4,0x13e18
   13324:	7e069e63          	bnez	a3,0x13b20
   13328:	01812783          	lw	a5,24(sp)
   1332c:	001ef713          	and	a4,t4,1
   13330:	00f76733          	or	a4,a4,a5
   13334:	00071463          	bnez	a4,0x1333c
   13338:	e15fe06f          	j	0x1214c
   1333c:	03412703          	lw	a4,52(sp)
   13340:	03012783          	lw	a5,48(sp)
   13344:	00700693          	li	a3,7
   13348:	00e42023          	sw	a4,0(s0)
   1334c:	0a412703          	lw	a4,164(sp)
   13350:	009784b3          	add	s1,a5,s1
   13354:	00f42223          	sw	a5,4(s0)
   13358:	00170713          	add	a4,a4,1
   1335c:	0a912423          	sw	s1,168(sp)
   13360:	0ae12223          	sw	a4,164(sp)
   13364:	38e6c8e3          	blt	a3,a4,0x13ef4
   13368:	00840413          	add	s0,s0,8
   1336c:	7e80006f          	j	0x13b54
   13370:	03000793          	li	a5,48
   13374:	14f107a3          	sb	a5,335(sp)
   13378:	14f10c13          	add	s8,sp,335
   1337c:	d38ff06f          	j	0x128b4
   13380:	20067793          	and	a5,a2,512
   13384:	00078463          	beqz	a5,0x1338c
   13388:	0ffd7d13          	zext.b	s10,s10
   1338c:	00000c93          	li	s9,0
   13390:	00100793          	li	a5,1
   13394:	cf4ff06f          	j	0x12888
   13398:	200ef793          	and	a5,t4,512
   1339c:	2c0796e3          	bnez	a5,0x13e68
   133a0:	41fd5c93          	sra	s9,s10,0x1f
   133a4:	000c8793          	mv	a5,s9
   133a8:	e08ff06f          	j	0x129b0
   133ac:	200ef793          	and	a5,t4,512
   133b0:	2a0790e3          	bnez	a5,0x13e50
   133b4:	00000c93          	li	s9,0
   133b8:	e74ff06f          	j	0x12a2c
   133bc:	01412783          	lw	a5,20(sp)
   133c0:	06010513          	add	a0,sp,96
   133c4:	03612223          	sw	s6,36(sp)
   133c8:	0007a703          	lw	a4,0(a5)
   133cc:	03c12023          	sw	t3,32(sp)
   133d0:	00478b13          	add	s6,a5,4
   133d4:	00072683          	lw	a3,0(a4)
   133d8:	01412823          	sw	s4,16(sp)
   133dc:	06d12023          	sw	a3,96(sp)
   133e0:	00472683          	lw	a3,4(a4)
   133e4:	06d12223          	sw	a3,100(sp)
   133e8:	00872683          	lw	a3,8(a4)
   133ec:	06d12423          	sw	a3,104(sp)
   133f0:	00c72703          	lw	a4,12(a4)
   133f4:	06e12623          	sw	a4,108(sp)
   133f8:	2780e0ef          	jal	0x21670
   133fc:	02012e03          	lw	t3,32(sp)
   13400:	02412303          	lw	t1,36(sp)
   13404:	02a12423          	sw	a0,40(sp)
   13408:	02b12623          	sw	a1,44(sp)
   1340c:	01612a23          	sw	s6,20(sp)
   13410:	000a0e93          	mv	t4,s4
   13414:	fb1fe06f          	j	0x123c4
   13418:	010a7793          	and	a5,s4,16
   1341c:	6c079a63          	bnez	a5,0x13af0
   13420:	040a7793          	and	a5,s4,64
   13424:	24079ce3          	bnez	a5,0x13e7c
   13428:	200a7f13          	and	t5,s4,512
   1342c:	6c0f0263          	beqz	t5,0x13af0
   13430:	01412783          	lw	a5,20(sp)
   13434:	00c12703          	lw	a4,12(sp)
   13438:	0007a783          	lw	a5,0(a5)
   1343c:	00e78023          	sb	a4,0(a5)
   13440:	e6cff06f          	j	0x12aac
   13444:	03c12783          	lw	a5,60(sp)
   13448:	00094e03          	lbu	t3,0(s2)
   1344c:	00079463          	bnez	a5,0x13454
   13450:	ba5fe06f          	j	0x11ff4
   13454:	0007c783          	lbu	a5,0(a5)
   13458:	00079463          	bnez	a5,0x13460
   1345c:	b99fe06f          	j	0x11ff4
   13460:	400a6a13          	or	s4,s4,1024
   13464:	b91fe06f          	j	0x11ff4
   13468:	fff00b13          	li	s6,-1
   1346c:	00068913          	mv	s2,a3
   13470:	b89fe06f          	j	0x11ff8
   13474:	0000f797          	auipc	a5,0xf
   13478:	80878793          	add	a5,a5,-2040 # 0x21c7c
   1347c:	000a0e93          	mv	t4,s4
   13480:	000b0313          	mv	t1,s6
   13484:	02f12c23          	sw	a5,56(sp)
   13488:	020ef793          	and	a5,t4,32
   1348c:	1c078263          	beqz	a5,0x13650
   13490:	01412783          	lw	a5,20(sp)
   13494:	00778b13          	add	s6,a5,7
   13498:	ff8b7b13          	and	s6,s6,-8
   1349c:	000b2d03          	lw	s10,0(s6)
   134a0:	004b2c83          	lw	s9,4(s6)
   134a4:	008b0793          	add	a5,s6,8
   134a8:	00f12a23          	sw	a5,20(sp)
   134ac:	001ef793          	and	a5,t4,1
   134b0:	00078e63          	beqz	a5,0x134cc
   134b4:	019d67b3          	or	a5,s10,s9
   134b8:	00078a63          	beqz	a5,0x134cc
   134bc:	03000793          	li	a5,48
   134c0:	06f10c23          	sb	a5,120(sp)
   134c4:	07c10ca3          	sb	t3,121(sp)
   134c8:	002eee93          	or	t4,t4,2
   134cc:	bffef613          	and	a2,t4,-1025
   134d0:	00200793          	li	a5,2
   134d4:	bb4ff06f          	j	0x12888
   134d8:	000b0313          	mv	t1,s6
   134dc:	000a0613          	mv	a2,s4
   134e0:	b80ff06f          	j	0x12860
   134e4:	000a0e93          	mv	t4,s4
   134e8:	000b0313          	mv	t1,s6
   134ec:	d1cff06f          	j	0x12a08
   134f0:	0000e797          	auipc	a5,0xe
   134f4:	77878793          	add	a5,a5,1912 # 0x21c68
   134f8:	000a0e93          	mv	t4,s4
   134fc:	000b0313          	mv	t1,s6
   13500:	02f12c23          	sw	a5,56(sp)
   13504:	f85ff06f          	j	0x13488
   13508:	00194e03          	lbu	t3,1(s2)
   1350c:	020a6a13          	or	s4,s4,32
   13510:	00190913          	add	s2,s2,1
   13514:	ae1fe06f          	j	0x11ff4
   13518:	00194e03          	lbu	t3,1(s2)
   1351c:	200a6a13          	or	s4,s4,512
   13520:	00190913          	add	s2,s2,1
   13524:	ad1fe06f          	j	0x11ff4
   13528:	00812583          	lw	a1,8(sp)
   1352c:	0a010613          	add	a2,sp,160
   13530:	00098513          	mv	a0,s3
   13534:	03d12023          	sw	t4,32(sp)
   13538:	7dc010ef          	jal	0x14d14
   1353c:	00050463          	beqz	a0,0x13544
   13540:	dd5fe06f          	j	0x12314
   13544:	0a812483          	lw	s1,168(sp)
   13548:	02012e83          	lw	t4,32(sp)
   1354c:	0ac10413          	add	s0,sp,172
   13550:	e10ff06f          	j	0x12b60
   13554:	00600793          	li	a5,6
   13558:	00030c93          	mv	s9,t1
   1355c:	0e67e6e3          	bltu	a5,t1,0x13e48
   13560:	01612a23          	sw	s6,20(sp)
   13564:	00012823          	sw	zero,16(sp)
   13568:	000c8d13          	mv	s10,s9
   1356c:	00000613          	li	a2,0
   13570:	00000313          	li	t1,0
   13574:	02012223          	sw	zero,36(sp)
   13578:	02012023          	sw	zero,32(sp)
   1357c:	00000a13          	li	s4,0
   13580:	0000ec17          	auipc	s8,0xe
   13584:	710c0c13          	add	s8,s8,1808 # 0x21c90
   13588:	afdfe06f          	j	0x12084
   1358c:	00800613          	li	a2,8
   13590:	00000593          	li	a1,0
   13594:	09810513          	add	a0,sp,152
   13598:	03c12023          	sw	t3,32(sp)
   1359c:	01d12823          	sw	t4,16(sp)
   135a0:	985fd0ef          	jal	0x10f24
   135a4:	01412783          	lw	a5,20(sp)
   135a8:	0ec10c13          	add	s8,sp,236
   135ac:	09810693          	add	a3,sp,152
   135b0:	0007a603          	lw	a2,0(a5)
   135b4:	000c0593          	mv	a1,s8
   135b8:	00098513          	mv	a0,s3
   135bc:	55c090ef          	jal	0x1cb18
   135c0:	fff00793          	li	a5,-1
   135c4:	01012e83          	lw	t4,16(sp)
   135c8:	02012e03          	lw	t3,32(sp)
   135cc:	00050d13          	mv	s10,a0
   135d0:	00f51463          	bne	a0,a5,0x135d8
   135d4:	4980106f          	j	0x14a6c
   135d8:	fff54813          	not	a6,a0
   135dc:	41f85813          	sra	a6,a6,0x1f
   135e0:	01057cb3          	and	s9,a0,a6
   135e4:	97cff06f          	j	0x12760
   135e8:	03412703          	lw	a4,52(sp)
   135ec:	03012783          	lw	a5,48(sp)
   135f0:	00700693          	li	a3,7
   135f4:	00e42023          	sw	a4,0(s0)
   135f8:	0a412703          	lw	a4,164(sp)
   135fc:	00f484b3          	add	s1,s1,a5
   13600:	00f42223          	sw	a5,4(s0)
   13604:	00170713          	add	a4,a4,1
   13608:	0a912423          	sw	s1,168(sp)
   1360c:	0ae12223          	sw	a4,164(sp)
   13610:	00840413          	add	s0,s0,8
   13614:	a4e6d0e3          	bge	a3,a4,0x13054
   13618:	00812583          	lw	a1,8(sp)
   1361c:	0a010613          	add	a2,sp,160
   13620:	00098513          	mv	a0,s3
   13624:	02612223          	sw	t1,36(sp)
   13628:	03d12023          	sw	t4,32(sp)
   1362c:	6e8010ef          	jal	0x14d14
   13630:	00050463          	beqz	a0,0x13638
   13634:	ce1fe06f          	j	0x12314
   13638:	07c12d03          	lw	s10,124(sp)
   1363c:	0a812483          	lw	s1,168(sp)
   13640:	02412303          	lw	t1,36(sp)
   13644:	02012e83          	lw	t4,32(sp)
   13648:	0ac10413          	add	s0,sp,172
   1364c:	a09ff06f          	j	0x13054
   13650:	01412703          	lw	a4,20(sp)
   13654:	010ef793          	and	a5,t4,16
   13658:	00072d03          	lw	s10,0(a4)
   1365c:	00470713          	add	a4,a4,4
   13660:	00e12a23          	sw	a4,20(sp)
   13664:	08079863          	bnez	a5,0x136f4
   13668:	040ef793          	and	a5,t4,64
   1366c:	08078063          	beqz	a5,0x136ec
   13670:	010d1d13          	sll	s10,s10,0x10
   13674:	010d5d13          	srl	s10,s10,0x10
   13678:	00000c93          	li	s9,0
   1367c:	e31ff06f          	j	0x134ac
   13680:	00000d13          	li	s10,0
   13684:	15010c13          	add	s8,sp,336
   13688:	a2cff06f          	j	0x128b4
   1368c:	00812583          	lw	a1,8(sp)
   13690:	0a010613          	add	a2,sp,160
   13694:	00098513          	mv	a0,s3
   13698:	03d12023          	sw	t4,32(sp)
   1369c:	678010ef          	jal	0x14d14
   136a0:	00050463          	beqz	a0,0x136a8
   136a4:	c71fe06f          	j	0x12314
   136a8:	0a812483          	lw	s1,168(sp)
   136ac:	0a412d03          	lw	s10,164(sp)
   136b0:	02012e83          	lw	t4,32(sp)
   136b4:	0ac10b13          	add	s6,sp,172
   136b8:	f71fe06f          	j	0x12628
   136bc:	00812583          	lw	a1,8(sp)
   136c0:	0a010613          	add	a2,sp,160
   136c4:	00098513          	mv	a0,s3
   136c8:	03d12023          	sw	t4,32(sp)
   136cc:	648010ef          	jal	0x14d14
   136d0:	00050463          	beqz	a0,0x136d8
   136d4:	c41fe06f          	j	0x12314
   136d8:	0a812483          	lw	s1,168(sp)
   136dc:	0a412d03          	lw	s10,164(sp)
   136e0:	02012e83          	lw	t4,32(sp)
   136e4:	0ac10b13          	add	s6,sp,172
   136e8:	f71fe06f          	j	0x12658
   136ec:	200ef793          	and	a5,t4,512
   136f0:	76079663          	bnez	a5,0x13e5c
   136f4:	00000c93          	li	s9,0
   136f8:	db5ff06f          	j	0x134ac
   136fc:	00000793          	li	a5,0
   13700:	15010b13          	add	s6,sp,336
   13704:	01212823          	sw	s2,16(sp)
   13708:	00078913          	mv	s2,a5
   1370c:	00098793          	mv	a5,s3
   13710:	04812823          	sw	s0,80(sp)
   13714:	000b0993          	mv	s3,s6
   13718:	03c12403          	lw	s0,60(sp)
   1371c:	40067493          	and	s1,a2,1024
   13720:	0ff00a13          	li	s4,255
   13724:	03c12023          	sw	t3,32(sp)
   13728:	02c12223          	sw	a2,36(sp)
   1372c:	04612223          	sw	t1,68(sp)
   13730:	00078b13          	mv	s6,a5
   13734:	0280006f          	j	0x1375c
   13738:	00a00613          	li	a2,10
   1373c:	00000693          	li	a3,0
   13740:	000d0513          	mv	a0,s10
   13744:	000c8593          	mv	a1,s9
   13748:	3310a0ef          	jal	0x1e278
   1374c:	6a0c8ee3          	beqz	s9,0x14608
   13750:	00050d13          	mv	s10,a0
   13754:	00058c93          	mv	s9,a1
   13758:	000c0993          	mv	s3,s8
   1375c:	00a00613          	li	a2,10
   13760:	00000693          	li	a3,0
   13764:	000d0513          	mv	a0,s10
   13768:	000c8593          	mv	a1,s9
   1376c:	1b80b0ef          	jal	0x1e924
   13770:	03050513          	add	a0,a0,48
   13774:	fea98fa3          	sb	a0,-1(s3)
   13778:	fff98c13          	add	s8,s3,-1
   1377c:	00190913          	add	s2,s2,1
   13780:	fa048ce3          	beqz	s1,0x13738
   13784:	00044783          	lbu	a5,0(s0)
   13788:	faf918e3          	bne	s2,a5,0x13738
   1378c:	fb4906e3          	beq	s2,s4,0x13738
   13790:	560c9ae3          	bnez	s9,0x14504
   13794:	00900793          	li	a5,9
   13798:	57a7e6e3          	bltu	a5,s10,0x14504
   1379c:	02412603          	lw	a2,36(sp)
   137a0:	15010793          	add	a5,sp,336
   137a4:	02812e23          	sw	s0,60(sp)
   137a8:	01212c23          	sw	s2,24(sp)
   137ac:	02012e03          	lw	t3,32(sp)
   137b0:	01012903          	lw	s2,16(sp)
   137b4:	04412303          	lw	t1,68(sp)
   137b8:	05012403          	lw	s0,80(sp)
   137bc:	000b0993          	mv	s3,s6
   137c0:	41878d33          	sub	s10,a5,s8
   137c4:	00060e93          	mv	t4,a2
   137c8:	8ecff06f          	j	0x128b4
   137cc:	00812583          	lw	a1,8(sp)
   137d0:	0a010613          	add	a2,sp,160
   137d4:	00098513          	mv	a0,s3
   137d8:	04612e23          	sw	t1,92(sp)
   137dc:	05c12c23          	sw	t3,88(sp)
   137e0:	05d12a23          	sw	t4,84(sp)
   137e4:	05f12823          	sw	t6,80(sp)
   137e8:	04512223          	sw	t0,68(sp)
   137ec:	528010ef          	jal	0x14d14
   137f0:	00050463          	beqz	a0,0x137f8
   137f4:	b21fe06f          	j	0x12314
   137f8:	07714603          	lbu	a2,119(sp)
   137fc:	0a812483          	lw	s1,168(sp)
   13800:	05c12303          	lw	t1,92(sp)
   13804:	05812e03          	lw	t3,88(sp)
   13808:	05412e83          	lw	t4,84(sp)
   1380c:	05012f83          	lw	t6,80(sp)
   13810:	04412283          	lw	t0,68(sp)
   13814:	0ac10413          	add	s0,sp,172
   13818:	88dfe06f          	j	0x120a4
   1381c:	02812883          	lw	a7,40(sp)
   13820:	02c12703          	lw	a4,44(sp)
   13824:	02612223          	sw	t1,36(sp)
   13828:	00088613          	mv	a2,a7
   1382c:	00088513          	mv	a0,a7
   13830:	00070693          	mv	a3,a4
   13834:	00070593          	mv	a1,a4
   13838:	03c12023          	sw	t3,32(sp)
   1383c:	01d12823          	sw	t4,16(sp)
   13840:	3dd0d0ef          	jal	0x2141c
   13844:	01012e83          	lw	t4,16(sp)
   13848:	02012e03          	lw	t3,32(sp)
   1384c:	02412303          	lw	t1,36(sp)
   13850:	00050463          	beqz	a0,0x13858
   13854:	0e00106f          	j	0x14934
   13858:	06100713          	li	a4,97
   1385c:	08ee0263          	beq	t3,a4,0x138e0
   13860:	04100713          	li	a4,65
   13864:	05800793          	li	a5,88
   13868:	06ee0e63          	beq	t3,a4,0x138e4
   1386c:	fff00713          	li	a4,-1
   13870:	00e31463          	bne	t1,a4,0x13878
   13874:	01c0106f          	j	0x14890
   13878:	fdfe7713          	and	a4,t3,-33
   1387c:	04700693          	li	a3,71
   13880:	00012823          	sw	zero,16(sp)
   13884:	00d71663          	bne	a4,a3,0x13890
   13888:	00031463          	bnez	t1,0x13890
   1388c:	00100313          	li	t1,1
   13890:	100ee793          	or	a5,t4,256
   13894:	00078b13          	mv	s6,a5
   13898:	02c12783          	lw	a5,44(sp)
   1389c:	04012223          	sw	zero,68(sp)
   138a0:	00078493          	mv	s1,a5
   138a4:	0007da63          	bgez	a5,0x138b8
   138a8:	800004b7          	lui	s1,0x80000
   138ac:	00f4c4b3          	xor	s1,s1,a5
   138b0:	02d00793          	li	a5,45
   138b4:	04f12223          	sw	a5,68(sp)
   138b8:	fbfe0713          	add	a4,t3,-65
   138bc:	02500693          	li	a3,37
   138c0:	3ae6e463          	bltu	a3,a4,0x13c68
   138c4:	0000e697          	auipc	a3,0xe
   138c8:	7f868693          	add	a3,a3,2040 # 0x220bc
   138cc:	00271713          	sll	a4,a4,0x2
   138d0:	00d70733          	add	a4,a4,a3
   138d4:	00072703          	lw	a4,0(a4)
   138d8:	00d70733          	add	a4,a4,a3
   138dc:	00070067          	jr	a4
   138e0:	07800793          	li	a5,120
   138e4:	03000713          	li	a4,48
   138e8:	06e10c23          	sb	a4,120(sp)
   138ec:	06f10ca3          	sb	a5,121(sp)
   138f0:	06300713          	li	a4,99
   138f4:	00012823          	sw	zero,16(sp)
   138f8:	002eee93          	or	t4,t4,2
   138fc:	0ec10c13          	add	s8,sp,236
   13900:	f86758e3          	bge	a4,t1,0x13890
   13904:	00130593          	add	a1,t1,1
   13908:	00098513          	mv	a0,s3
   1390c:	03c12023          	sw	t3,32(sp)
   13910:	01d12c23          	sw	t4,24(sp)
   13914:	00612823          	sw	t1,16(sp)
   13918:	d59fd0ef          	jal	0x11670
   1391c:	01012303          	lw	t1,16(sp)
   13920:	01812e83          	lw	t4,24(sp)
   13924:	02012e03          	lw	t3,32(sp)
   13928:	00050c13          	mv	s8,a0
   1392c:	00051463          	bnez	a0,0x13934
   13930:	13c0106f          	j	0x14a6c
   13934:	00a12823          	sw	a0,16(sp)
   13938:	f59ff06f          	j	0x13890
   1393c:	00098513          	mv	a0,s3
   13940:	f21fc0ef          	jal	0x10860
   13944:	00c12783          	lw	a5,12(sp)
   13948:	d60fe06f          	j	0x11ea8
   1394c:	00812583          	lw	a1,8(sp)
   13950:	0a010613          	add	a2,sp,160
   13954:	00098513          	mv	a0,s3
   13958:	03d12023          	sw	t4,32(sp)
   1395c:	3b8010ef          	jal	0x14d14
   13960:	00050463          	beqz	a0,0x13968
   13964:	9b1fe06f          	j	0x12314
   13968:	0a812483          	lw	s1,168(sp)
   1396c:	02012e83          	lw	t4,32(sp)
   13970:	0ac10413          	add	s0,sp,172
   13974:	9b0ff06f          	j	0x12b24
   13978:	00800613          	li	a2,8
   1397c:	00000593          	li	a1,0
   13980:	09810513          	add	a0,sp,152
   13984:	02612023          	sw	t1,32(sp)
   13988:	01c12a23          	sw	t3,20(sp)
   1398c:	01d12823          	sw	t4,16(sp)
   13990:	09812223          	sw	s8,132(sp)
   13994:	d90fd0ef          	jal	0x10f24
   13998:	02012303          	lw	t1,32(sp)
   1399c:	01012e83          	lw	t4,16(sp)
   139a0:	01412e03          	lw	t3,20(sp)
   139a4:	3a0340e3          	bltz	t1,0x14544
   139a8:	00000d13          	li	s10,0
   139ac:	01212823          	sw	s2,16(sp)
   139b0:	000c0c93          	mv	s9,s8
   139b4:	fff00493          	li	s1,-1
   139b8:	000b0c13          	mv	s8,s6
   139bc:	000e8a13          	mv	s4,t4
   139c0:	00040b13          	mv	s6,s0
   139c4:	000d0913          	mv	s2,s10
   139c8:	00030413          	mv	s0,t1
   139cc:	0300006f          	j	0x139fc
   139d0:	09810693          	add	a3,sp,152
   139d4:	0ec10593          	add	a1,sp,236
   139d8:	00098513          	mv	a0,s3
   139dc:	13c090ef          	jal	0x1cb18
   139e0:	68950ae3          	beq	a0,s1,0x14874
   139e4:	00a907b3          	add	a5,s2,a0
   139e8:	02f44263          	blt	s0,a5,0x13a0c
   139ec:	004d0d13          	add	s10,s10,4
   139f0:	00879463          	bne	a5,s0,0x139f8
   139f4:	7990006f          	j	0x1498c
   139f8:	00078913          	mv	s2,a5
   139fc:	08412783          	lw	a5,132(sp)
   13a00:	01a787b3          	add	a5,a5,s10
   13a04:	0007a603          	lw	a2,0(a5)
   13a08:	fc0614e3          	bnez	a2,0x139d0
   13a0c:	00090d13          	mv	s10,s2
   13a10:	01412e03          	lw	t3,20(sp)
   13a14:	01012903          	lw	s2,16(sp)
   13a18:	000b0413          	mv	s0,s6
   13a1c:	000a0e93          	mv	t4,s4
   13a20:	000c0b13          	mv	s6,s8
   13a24:	000c8c13          	mv	s8,s9
   13a28:	340d0ce3          	beqz	s10,0x14580
   13a2c:	06300793          	li	a5,99
   13a30:	59a7dee3          	bge	a5,s10,0x147cc
   13a34:	001d0593          	add	a1,s10,1
   13a38:	00098513          	mv	a0,s3
   13a3c:	01c12a23          	sw	t3,20(sp)
   13a40:	01d12823          	sw	t4,16(sp)
   13a44:	c2dfd0ef          	jal	0x11670
   13a48:	01012e83          	lw	t4,16(sp)
   13a4c:	01412e03          	lw	t3,20(sp)
   13a50:	00050c13          	mv	s8,a0
   13a54:	620500e3          	beqz	a0,0x14874
   13a58:	00a12823          	sw	a0,16(sp)
   13a5c:	00800613          	li	a2,8
   13a60:	00000593          	li	a1,0
   13a64:	09810513          	add	a0,sp,152
   13a68:	03c12023          	sw	t3,32(sp)
   13a6c:	01d12a23          	sw	t4,20(sp)
   13a70:	cb4fd0ef          	jal	0x10f24
   13a74:	09810713          	add	a4,sp,152
   13a78:	000d0693          	mv	a3,s10
   13a7c:	08410613          	add	a2,sp,132
   13a80:	000c0593          	mv	a1,s8
   13a84:	00098513          	mv	a0,s3
   13a88:	1b4090ef          	jal	0x1cc3c
   13a8c:	01412e83          	lw	t4,20(sp)
   13a90:	02012e03          	lw	t3,32(sp)
   13a94:	00ad0463          	beq	s10,a0,0x13a9c
   13a98:	0240106f          	j	0x14abc
   13a9c:	01ac0733          	add	a4,s8,s10
   13aa0:	00070023          	sb	zero,0(a4)
   13aa4:	07714603          	lbu	a2,119(sp)
   13aa8:	fffd4813          	not	a6,s10
   13aac:	41f85813          	sra	a6,a6,0x1f
   13ab0:	01612a23          	sw	s6,20(sp)
   13ab4:	02012223          	sw	zero,36(sp)
   13ab8:	02012023          	sw	zero,32(sp)
   13abc:	010d7cb3          	and	s9,s10,a6
   13ac0:	00000313          	li	t1,0
   13ac4:	00000a13          	li	s4,0
   13ac8:	00061463          	bnez	a2,0x13ad0
   13acc:	db8fe06f          	j	0x12084
   13ad0:	9d5fe06f          	j	0x124a4
   13ad4:	00048e93          	mv	t4,s1
   13ad8:	000a0293          	mv	t0,s4
   13adc:	00070493          	mv	s1,a4
   13ae0:	01a484b3          	add	s1,s1,s10
   13ae4:	00178793          	add	a5,a5,1
   13ae8:	00542023          	sw	t0,0(s0)
   13aec:	e48fe06f          	j	0x12134
   13af0:	01412783          	lw	a5,20(sp)
   13af4:	00c12703          	lw	a4,12(sp)
   13af8:	0007a783          	lw	a5,0(a5)
   13afc:	00e7a023          	sw	a4,0(a5)
   13b00:	fadfe06f          	j	0x12aac
   13b04:	02012e83          	lw	t4,32(sp)
   13b08:	00040293          	mv	t0,s0
   13b0c:	000a0413          	mv	s0,s4
   13b10:	008484b3          	add	s1,s1,s0
   13b14:	001d0d13          	add	s10,s10,1
   13b18:	005b2023          	sw	t0,0(s6)
   13b1c:	b7dfe06f          	j	0x12698
   13b20:	03412703          	lw	a4,52(sp)
   13b24:	03012783          	lw	a5,48(sp)
   13b28:	00700613          	li	a2,7
   13b2c:	00e42023          	sw	a4,0(s0)
   13b30:	0a412703          	lw	a4,164(sp)
   13b34:	009784b3          	add	s1,a5,s1
   13b38:	00f42223          	sw	a5,4(s0)
   13b3c:	00170713          	add	a4,a4,1
   13b40:	0a912423          	sw	s1,168(sp)
   13b44:	0ae12223          	sw	a4,164(sp)
   13b48:	00840413          	add	s0,s0,8
   13b4c:	3ae64463          	blt	a2,a4,0x13ef4
   13b50:	3e06cee3          	bltz	a3,0x1474c
   13b54:	01812783          	lw	a5,24(sp)
   13b58:	00170713          	add	a4,a4,1
   13b5c:	01842023          	sw	s8,0(s0)
   13b60:	009784b3          	add	s1,a5,s1
   13b64:	00f42223          	sw	a5,4(s0)
   13b68:	0a912423          	sw	s1,168(sp)
   13b6c:	0ae12223          	sw	a4,164(sp)
   13b70:	00700793          	li	a5,7
   13b74:	00e7c463          	blt	a5,a4,0x13b7c
   13b78:	dd0fe06f          	j	0x12148
   13b7c:	b61fe06f          	j	0x126dc
   13b80:	01000613          	li	a2,16
   13b84:	0a412683          	lw	a3,164(sp)
   13b88:	0000e297          	auipc	t0,0xe
   13b8c:	5cc28293          	add	t0,t0,1484 # 0x22154
   13b90:	09665463          	bge	a2,s6,0x13c18
   13b94:	00040793          	mv	a5,s0
   13b98:	00048713          	mv	a4,s1
   13b9c:	00812403          	lw	s0,8(sp)
   13ba0:	01000893          	li	a7,16
   13ba4:	00700d13          	li	s10,7
   13ba8:	05d12223          	sw	t4,68(sp)
   13bac:	00028493          	mv	s1,t0
   13bb0:	00c0006f          	j	0x13bbc
   13bb4:	ff0b0b13          	add	s6,s6,-16
   13bb8:	0568d863          	bge	a7,s6,0x13c08
   13bbc:	01070713          	add	a4,a4,16
   13bc0:	00168693          	add	a3,a3,1
   13bc4:	0097a023          	sw	s1,0(a5)
   13bc8:	0117a223          	sw	a7,4(a5)
   13bcc:	0ae12423          	sw	a4,168(sp)
   13bd0:	0ad12223          	sw	a3,164(sp)
   13bd4:	00878793          	add	a5,a5,8
   13bd8:	fcdd5ee3          	bge	s10,a3,0x13bb4
   13bdc:	0a010613          	add	a2,sp,160
   13be0:	00040593          	mv	a1,s0
   13be4:	00098513          	mv	a0,s3
   13be8:	12c010ef          	jal	0x14d14
   13bec:	00050463          	beqz	a0,0x13bf4
   13bf0:	f24fe06f          	j	0x12314
   13bf4:	0a812703          	lw	a4,168(sp)
   13bf8:	0a412683          	lw	a3,164(sp)
   13bfc:	0ac10793          	add	a5,sp,172
   13c00:	01000893          	li	a7,16
   13c04:	fb1ff06f          	j	0x13bb4
   13c08:	04412e83          	lw	t4,68(sp)
   13c0c:	00048293          	mv	t0,s1
   13c10:	00078413          	mv	s0,a5
   13c14:	00070493          	mv	s1,a4
   13c18:	016484b3          	add	s1,s1,s6
   13c1c:	00168693          	add	a3,a3,1
   13c20:	00542023          	sw	t0,0(s0)
   13c24:	01642223          	sw	s6,4(s0)
   13c28:	0a912423          	sw	s1,168(sp)
   13c2c:	0ad12223          	sw	a3,164(sp)
   13c30:	00700713          	li	a4,7
   13c34:	00840413          	add	s0,s0,8
   13c38:	bed75c63          	bge	a4,a3,0x13030
   13c3c:	00812583          	lw	a1,8(sp)
   13c40:	0a010613          	add	a2,sp,160
   13c44:	00098513          	mv	a0,s3
   13c48:	05d12223          	sw	t4,68(sp)
   13c4c:	0c8010ef          	jal	0x14d14
   13c50:	00050463          	beqz	a0,0x13c58
   13c54:	ec0fe06f          	j	0x12314
   13c58:	0a812483          	lw	s1,168(sp)
   13c5c:	04412e83          	lw	t4,68(sp)
   13c60:	0ac10413          	add	s0,sp,172
   13c64:	bccff06f          	j	0x13030
   13c68:	02812703          	lw	a4,40(sp)
   13c6c:	09810893          	add	a7,sp,152
   13c70:	08410813          	add	a6,sp,132
   13c74:	00070513          	mv	a0,a4
   13c78:	00050593          	mv	a1,a0
   13c7c:	00030713          	mv	a4,t1
   13c80:	07c10793          	add	a5,sp,124
   13c84:	00200693          	li	a3,2
   13c88:	00048613          	mv	a2,s1
   13c8c:	00098513          	mv	a0,s3
   13c90:	03c12223          	sw	t3,36(sp)
   13c94:	03d12023          	sw	t4,32(sp)
   13c98:	00612c23          	sw	t1,24(sp)
   13c9c:	7b5040ef          	jal	0x18c50
   13ca0:	02012e83          	lw	t4,32(sp)
   13ca4:	01812303          	lw	t1,24(sp)
   13ca8:	02412e03          	lw	t3,36(sp)
   13cac:	001ef713          	and	a4,t4,1
   13cb0:	00050c13          	mv	s8,a0
   13cb4:	1a0712e3          	bnez	a4,0x14658
   13cb8:	09812783          	lw	a5,152(sp)
   13cbc:	07c12a03          	lw	s4,124(sp)
   13cc0:	40a787b3          	sub	a5,a5,a0
   13cc4:	00f12c23          	sw	a5,24(sp)
   13cc8:	ffd00713          	li	a4,-3
   13ccc:	00ea4463          	blt	s4,a4,0x13cd4
   13cd0:	5b435663          	bge	t1,s4,0x1427c
   13cd4:	ffee0e13          	add	t3,t3,-2
   13cd8:	fffa0d13          	add	s10,s4,-1
   13cdc:	07a12e23          	sw	s10,124(sp)
   13ce0:	0ffe7693          	zext.b	a3,t3
   13ce4:	00000613          	li	a2,0
   13ce8:	08d10423          	sb	a3,136(sp)
   13cec:	02b00693          	li	a3,43
   13cf0:	000d5863          	bgez	s10,0x13d00
   13cf4:	00100713          	li	a4,1
   13cf8:	41470d33          	sub	s10,a4,s4
   13cfc:	02d00693          	li	a3,45
   13d00:	08d104a3          	sb	a3,137(sp)
   13d04:	00900693          	li	a3,9
   13d08:	33a6d8e3          	bge	a3,s10,0x14838
   13d0c:	000c0793          	mv	a5,s8
   13d10:	09f10493          	add	s1,sp,159
   13d14:	03212023          	sw	s2,32(sp)
   13d18:	00040c13          	mv	s8,s0
   13d1c:	06300a13          	li	s4,99
   13d20:	000d0413          	mv	s0,s10
   13d24:	03d12223          	sw	t4,36(sp)
   13d28:	05c12023          	sw	t3,64(sp)
   13d2c:	00048913          	mv	s2,s1
   13d30:	00098c93          	mv	s9,s3
   13d34:	00078d13          	mv	s10,a5
   13d38:	00a00593          	li	a1,10
   13d3c:	00040513          	mv	a0,s0
   13d40:	5b50d0ef          	jal	0x21af4
   13d44:	03050713          	add	a4,a0,48
   13d48:	00090b13          	mv	s6,s2
   13d4c:	00040513          	mv	a0,s0
   13d50:	feeb0fa3          	sb	a4,-1(s6)
   13d54:	00a00593          	li	a1,10
   13d58:	00040993          	mv	s3,s0
   13d5c:	5150d0ef          	jal	0x21a70
   13d60:	fff90913          	add	s2,s2,-1
   13d64:	00050413          	mv	s0,a0
   13d68:	fd3a48e3          	blt	s4,s3,0x13d38
   13d6c:	000c8993          	mv	s3,s9
   13d70:	03050713          	add	a4,a0,48
   13d74:	00090c93          	mv	s9,s2
   13d78:	ffeb0693          	add	a3,s6,-2
   13d7c:	feec8fa3          	sb	a4,-1(s9)
   13d80:	000c0413          	mv	s0,s8
   13d84:	02412e83          	lw	t4,36(sp)
   13d88:	04012e03          	lw	t3,64(sp)
   13d8c:	02012903          	lw	s2,32(sp)
   13d90:	000d0c13          	mv	s8,s10
   13d94:	4c96f6e3          	bgeu	a3,s1,0x14a60
   13d98:	08a10713          	add	a4,sp,138
   13d9c:	0006c783          	lbu	a5,0(a3)
   13da0:	00168693          	add	a3,a3,1
   13da4:	00170713          	add	a4,a4,1
   13da8:	fef70fa3          	sb	a5,-1(a4)
   13dac:	fe9698e3          	bne	a3,s1,0x13d9c
   13db0:	15010793          	add	a5,sp,336
   13db4:	41678633          	sub	a2,a5,s6
   13db8:	f5360793          	add	a5,a2,-173
   13dbc:	04f12023          	sw	a5,64(sp)
   13dc0:	01812783          	lw	a5,24(sp)
   13dc4:	04012683          	lw	a3,64(sp)
   13dc8:	00100713          	li	a4,1
   13dcc:	00d78d33          	add	s10,a5,a3
   13dd0:	28f75ce3          	bge	a4,a5,0x14868
   13dd4:	03012783          	lw	a5,48(sp)
   13dd8:	00fd0d33          	add	s10,s10,a5
   13ddc:	fffd4813          	not	a6,s10
   13de0:	bffeff13          	and	t5,t4,-1025
   13de4:	41f85813          	sra	a6,a6,0x1f
   13de8:	100f6e93          	or	t4,t5,256
   13dec:	010d7cb3          	and	s9,s10,a6
   13df0:	02012223          	sw	zero,36(sp)
   13df4:	02012023          	sw	zero,32(sp)
   13df8:	00000a13          	li	s4,0
   13dfc:	04412783          	lw	a5,68(sp)
   13e00:	46079263          	bnez	a5,0x14264
   13e04:	07714603          	lbu	a2,119(sp)
   13e08:	00000313          	li	t1,0
   13e0c:	00061463          	bnez	a2,0x13e14
   13e10:	a74fe06f          	j	0x12084
   13e14:	e90fe06f          	j	0x124a4
   13e18:	00812583          	lw	a1,8(sp)
   13e1c:	0a010613          	add	a2,sp,160
   13e20:	00098513          	mv	a0,s3
   13e24:	03d12023          	sw	t4,32(sp)
   13e28:	6ed000ef          	jal	0x14d14
   13e2c:	00050463          	beqz	a0,0x13e34
   13e30:	ce4fe06f          	j	0x12314
   13e34:	07c12683          	lw	a3,124(sp)
   13e38:	0a812483          	lw	s1,168(sp)
   13e3c:	02012e83          	lw	t4,32(sp)
   13e40:	0ac10413          	add	s0,sp,172
   13e44:	ce0ff06f          	j	0x13324
   13e48:	00600c93          	li	s9,6
   13e4c:	f14ff06f          	j	0x13560
   13e50:	0ffd7d13          	zext.b	s10,s10
   13e54:	00000c93          	li	s9,0
   13e58:	bd5fe06f          	j	0x12a2c
   13e5c:	0ffd7d13          	zext.b	s10,s10
   13e60:	00000c93          	li	s9,0
   13e64:	e48ff06f          	j	0x134ac
   13e68:	018d1d13          	sll	s10,s10,0x18
   13e6c:	418d5d13          	sra	s10,s10,0x18
   13e70:	41fd5c93          	sra	s9,s10,0x1f
   13e74:	000c8793          	mv	a5,s9
   13e78:	b39fe06f          	j	0x129b0
   13e7c:	01412783          	lw	a5,20(sp)
   13e80:	00c12703          	lw	a4,12(sp)
   13e84:	0007a783          	lw	a5,0(a5)
   13e88:	00e79023          	sh	a4,0(a5)
   13e8c:	c21fe06f          	j	0x12aac
   13e90:	000c0513          	mv	a0,s8
   13e94:	05d12223          	sw	t4,68(sp)
   13e98:	7ec040ef          	jal	0x18684
   13e9c:	07714603          	lbu	a2,119(sp)
   13ea0:	fff54813          	not	a6,a0
   13ea4:	41f85813          	sra	a6,a6,0x1f
   13ea8:	01612a23          	sw	s6,20(sp)
   13eac:	02012223          	sw	zero,36(sp)
   13eb0:	02012023          	sw	zero,32(sp)
   13eb4:	00012823          	sw	zero,16(sp)
   13eb8:	04412e83          	lw	t4,68(sp)
   13ebc:	00050d13          	mv	s10,a0
   13ec0:	01057cb3          	and	s9,a0,a6
   13ec4:	00000313          	li	t1,0
   13ec8:	07300e13          	li	t3,115
   13ecc:	00061463          	bnez	a2,0x13ed4
   13ed0:	9b4fe06f          	j	0x12084
   13ed4:	dd0fe06f          	j	0x124a4
   13ed8:	00812583          	lw	a1,8(sp)
   13edc:	0a010613          	add	a2,sp,160
   13ee0:	00098513          	mv	a0,s3
   13ee4:	631000ef          	jal	0x14d14
   13ee8:	00051463          	bnez	a0,0x13ef0
   13eec:	be8fe06f          	j	0x122d4
   13ef0:	c38fe06f          	j	0x12328
   13ef4:	00812583          	lw	a1,8(sp)
   13ef8:	0a010613          	add	a2,sp,160
   13efc:	00098513          	mv	a0,s3
   13f00:	03d12023          	sw	t4,32(sp)
   13f04:	611000ef          	jal	0x14d14
   13f08:	00050463          	beqz	a0,0x13f10
   13f0c:	c08fe06f          	j	0x12314
   13f10:	07c12683          	lw	a3,124(sp)
   13f14:	0a812483          	lw	s1,168(sp)
   13f18:	0a412703          	lw	a4,164(sp)
   13f1c:	02012e83          	lw	t4,32(sp)
   13f20:	0ac10413          	add	s0,sp,172
   13f24:	c2dff06f          	j	0x13b50
   13f28:	05862503          	lw	a0,88(a2)
   13f2c:	00f12623          	sw	a5,12(sp)
   13f30:	ff1fc0ef          	jal	0x10f20
   13f34:	00c12783          	lw	a5,12(sp)
   13f38:	ab8fe06f          	j	0x121f0
   13f3c:	00130a13          	add	s4,t1,1
   13f40:	00200693          	li	a3,2
   13f44:	02812703          	lw	a4,40(sp)
   13f48:	09810893          	add	a7,sp,152
   13f4c:	08410813          	add	a6,sp,132
   13f50:	00070513          	mv	a0,a4
   13f54:	00050593          	mv	a1,a0
   13f58:	000a0713          	mv	a4,s4
   13f5c:	07c10793          	add	a5,sp,124
   13f60:	00048613          	mv	a2,s1
   13f64:	00098513          	mv	a0,s3
   13f68:	02612223          	sw	t1,36(sp)
   13f6c:	03c12023          	sw	t3,32(sp)
   13f70:	01d12c23          	sw	t4,24(sp)
   13f74:	4dd040ef          	jal	0x18c50
   13f78:	02012e03          	lw	t3,32(sp)
   13f7c:	04600693          	li	a3,70
   13f80:	01812e83          	lw	t4,24(sp)
   13f84:	fdfe7d13          	and	s10,t3,-33
   13f88:	02412303          	lw	t1,36(sp)
   13f8c:	00050c13          	mv	s8,a0
   13f90:	01450733          	add	a4,a0,s4
   13f94:	34dd14e3          	bne	s10,a3,0x14adc
   13f98:	000c4603          	lbu	a2,0(s8)
   13f9c:	03000693          	li	a3,48
   13fa0:	6cd60263          	beq	a2,a3,0x14664
   13fa4:	07c12683          	lw	a3,124(sp)
   13fa8:	00d70733          	add	a4,a4,a3
   13fac:	02812683          	lw	a3,40(sp)
   13fb0:	00048593          	mv	a1,s1
   13fb4:	00000613          	li	a2,0
   13fb8:	00068513          	mv	a0,a3
   13fbc:	00000693          	li	a3,0
   13fc0:	04e12823          	sw	a4,80(sp)
   13fc4:	02612223          	sw	t1,36(sp)
   13fc8:	03c12023          	sw	t3,32(sp)
   13fcc:	01d12c23          	sw	t4,24(sp)
   13fd0:	1200c0ef          	jal	0x200f0
   13fd4:	01812e83          	lw	t4,24(sp)
   13fd8:	02012e03          	lw	t3,32(sp)
   13fdc:	02412303          	lw	t1,36(sp)
   13fe0:	05012703          	lw	a4,80(sp)
   13fe4:	62050863          	beqz	a0,0x14614
   13fe8:	09812783          	lw	a5,152(sp)
   13fec:	00e7fe63          	bgeu	a5,a4,0x14008
   13ff0:	03000613          	li	a2,48
   13ff4:	00178693          	add	a3,a5,1
   13ff8:	08d12c23          	sw	a3,152(sp)
   13ffc:	00c78023          	sb	a2,0(a5)
   14000:	09812783          	lw	a5,152(sp)
   14004:	fee7e8e3          	bltu	a5,a4,0x13ff4
   14008:	07c12a03          	lw	s4,124(sp)
   1400c:	418787b3          	sub	a5,a5,s8
   14010:	04700713          	li	a4,71
   14014:	00f12c23          	sw	a5,24(sp)
   14018:	caed08e3          	beq	s10,a4,0x13cc8
   1401c:	04600713          	li	a4,70
   14020:	68ed0863          	beq	s10,a4,0x146b0
   14024:	fffa0d13          	add	s10,s4,-1
   14028:	cb5ff06f          	j	0x13cdc
   1402c:	02812703          	lw	a4,40(sp)
   14030:	07c10613          	add	a2,sp,124
   14034:	00048593          	mv	a1,s1
   14038:	00070513          	mv	a0,a4
   1403c:	02612223          	sw	t1,36(sp)
   14040:	03c12023          	sw	t3,32(sp)
   14044:	01d12c23          	sw	t4,24(sp)
   14048:	0f5040ef          	jal	0x1893c
   1404c:	00010717          	auipc	a4,0x10
   14050:	85470713          	add	a4,a4,-1964 # 0x238a0
   14054:	00072603          	lw	a2,0(a4)
   14058:	00472683          	lw	a3,4(a4)
   1405c:	3280c0ef          	jal	0x20384
   14060:	00000613          	li	a2,0
   14064:	00000693          	li	a3,0
   14068:	00050a13          	mv	s4,a0
   1406c:	00058d13          	mv	s10,a1
   14070:	0800c0ef          	jal	0x200f0
   14074:	01812e83          	lw	t4,24(sp)
   14078:	02012e03          	lw	t3,32(sp)
   1407c:	02412303          	lw	t1,36(sp)
   14080:	00051663          	bnez	a0,0x1408c
   14084:	00100713          	li	a4,1
   14088:	06e12e23          	sw	a4,124(sp)
   1408c:	0000e797          	auipc	a5,0xe
   14090:	bf078793          	add	a5,a5,-1040 # 0x21c7c
   14094:	06100713          	li	a4,97
   14098:	02f12023          	sw	a5,32(sp)
   1409c:	00ee1863          	bne	t3,a4,0x140ac
   140a0:	0000e797          	auipc	a5,0xe
   140a4:	bc878793          	add	a5,a5,-1080 # 0x21c68
   140a8:	02f12023          	sw	a5,32(sp)
   140ac:	0000f717          	auipc	a4,0xf
   140b0:	7fc70713          	add	a4,a4,2044 # 0x238a8
   140b4:	00072783          	lw	a5,0(a4)
   140b8:	00472803          	lw	a6,4(a4)
   140bc:	000c0493          	mv	s1,s8
   140c0:	00f12c23          	sw	a5,24(sp)
   140c4:	000d0793          	mv	a5,s10
   140c8:	03212223          	sw	s2,36(sp)
   140cc:	000c0d13          	mv	s10,s8
   140d0:	02012903          	lw	s2,32(sp)
   140d4:	00098c13          	mv	s8,s3
   140d8:	01012e23          	sw	a6,28(sp)
   140dc:	fff30b13          	add	s6,t1,-1
   140e0:	fff00c93          	li	s9,-1
   140e4:	05d12023          	sw	t4,64(sp)
   140e8:	05c12823          	sw	t3,80(sp)
   140ec:	04812a23          	sw	s0,84(sp)
   140f0:	00078993          	mv	s3,a5
   140f4:	01c0006f          	j	0x14110
   140f8:	00000613          	li	a2,0
   140fc:	00000693          	li	a3,0
   14100:	fffb0413          	add	s0,s6,-1
   14104:	7ed0b0ef          	jal	0x200f0
   14108:	0a0504e3          	beqz	a0,0x149b0
   1410c:	00040b13          	mv	s6,s0
   14110:	01812603          	lw	a2,24(sp)
   14114:	01c12683          	lw	a3,28(sp)
   14118:	000a0513          	mv	a0,s4
   1411c:	00098593          	mv	a1,s3
   14120:	2640c0ef          	jal	0x20384
   14124:	00058a13          	mv	s4,a1
   14128:	00050993          	mv	s3,a0
   1412c:	3440d0ef          	jal	0x21470
   14130:	00050413          	mv	s0,a0
   14134:	3c00d0ef          	jal	0x214f4
   14138:	00050613          	mv	a2,a0
   1413c:	00058693          	mv	a3,a1
   14140:	00098513          	mv	a0,s3
   14144:	000a0593          	mv	a1,s4
   14148:	1cd0c0ef          	jal	0x20b14
   1414c:	00890733          	add	a4,s2,s0
   14150:	00074703          	lbu	a4,0(a4)
   14154:	00048813          	mv	a6,s1
   14158:	00050a13          	mv	s4,a0
   1415c:	00e48023          	sb	a4,0(s1) # 0x80000000
   14160:	00058993          	mv	s3,a1
   14164:	00148493          	add	s1,s1,1
   14168:	f99b18e3          	bne	s6,s9,0x140f8
   1416c:	0000f697          	auipc	a3,0xf
   14170:	74468693          	add	a3,a3,1860 # 0x238b0
   14174:	0006a303          	lw	t1,0(a3)
   14178:	0046a383          	lw	t2,4(a3)
   1417c:	05012e03          	lw	t3,80(sp)
   14180:	00030613          	mv	a2,t1
   14184:	00038693          	mv	a3,t2
   14188:	01012c23          	sw	a6,24(sp)
   1418c:	02412903          	lw	s2,36(sp)
   14190:	000c0993          	mv	s3,s8
   14194:	03c12223          	sw	t3,36(sp)
   14198:	000d0c13          	mv	s8,s10
   1419c:	00058d13          	mv	s10,a1
   141a0:	7dd0b0ef          	jal	0x2017c
   141a4:	0000f797          	auipc	a5,0xf
   141a8:	70c78793          	add	a5,a5,1804 # 0x238b0
   141ac:	00040b13          	mv	s6,s0
   141b0:	0007a303          	lw	t1,0(a5)
   141b4:	05412403          	lw	s0,84(sp)
   141b8:	0047a383          	lw	t2,4(a5)
   141bc:	01812803          	lw	a6,24(sp)
   141c0:	02412e03          	lw	t3,36(sp)
   141c4:	04012e83          	lw	t4,64(sp)
   141c8:	0aa05ce3          	blez	a0,0x14a80
   141cc:	02012783          	lw	a5,32(sp)
   141d0:	09012c23          	sw	a6,152(sp)
   141d4:	fff4c603          	lbu	a2,-1(s1)
   141d8:	00f7c583          	lbu	a1,15(a5)
   141dc:	00048693          	mv	a3,s1
   141e0:	02b61063          	bne	a2,a1,0x14200
   141e4:	03000513          	li	a0,48
   141e8:	fea68fa3          	sb	a0,-1(a3)
   141ec:	09812683          	lw	a3,152(sp)
   141f0:	fff68793          	add	a5,a3,-1
   141f4:	08f12c23          	sw	a5,152(sp)
   141f8:	fff6c603          	lbu	a2,-1(a3)
   141fc:	feb606e3          	beq	a2,a1,0x141e8
   14200:	00160593          	add	a1,a2,1
   14204:	03900513          	li	a0,57
   14208:	0ff5f593          	zext.b	a1,a1
   1420c:	04a60463          	beq	a2,a0,0x14254
   14210:	feb68fa3          	sb	a1,-1(a3)
   14214:	00048793          	mv	a5,s1
   14218:	07c12a03          	lw	s4,124(sp)
   1421c:	418787b3          	sub	a5,a5,s8
   14220:	06100613          	li	a2,97
   14224:	fffa0d13          	add	s10,s4,-1
   14228:	00f12c23          	sw	a5,24(sp)
   1422c:	07a12e23          	sw	s10,124(sp)
   14230:	07000693          	li	a3,112
   14234:	00ce0663          	beq	t3,a2,0x14240
   14238:	05000693          	li	a3,80
   1423c:	04100e13          	li	t3,65
   14240:	00100613          	li	a2,1
   14244:	aa5ff06f          	j	0x13ce8
   14248:	00030a13          	mv	s4,t1
   1424c:	00300693          	li	a3,3
   14250:	cf5ff06f          	j	0x13f44
   14254:	02012783          	lw	a5,32(sp)
   14258:	00a7c583          	lbu	a1,10(a5)
   1425c:	feb68fa3          	sb	a1,-1(a3)
   14260:	fb5ff06f          	j	0x14214
   14264:	02d00713          	li	a4,45
   14268:	06e10ba3          	sb	a4,119(sp)
   1426c:	02d00613          	li	a2,45
   14270:	00000313          	li	t1,0
   14274:	001c8c93          	add	s9,s9,1
   14278:	e0dfd06f          	j	0x12084
   1427c:	01812783          	lw	a5,24(sp)
   14280:	46fa4063          	blt	s4,a5,0x146e0
   14284:	001ef713          	and	a4,t4,1
   14288:	000a0d13          	mv	s10,s4
   1428c:	00070663          	beqz	a4,0x14298
   14290:	03012783          	lw	a5,48(sp)
   14294:	00fa0d33          	add	s10,s4,a5
   14298:	400eff13          	and	t5,t4,1024
   1429c:	000f0463          	beqz	t5,0x142a4
   142a0:	5f404e63          	bgtz	s4,0x1489c
   142a4:	fffd4813          	not	a6,s10
   142a8:	41f85813          	sra	a6,a6,0x1f
   142ac:	010d7cb3          	and	s9,s10,a6
   142b0:	06700e13          	li	t3,103
   142b4:	000b0e93          	mv	t4,s6
   142b8:	02012223          	sw	zero,36(sp)
   142bc:	02012023          	sw	zero,32(sp)
   142c0:	b3dff06f          	j	0x13dfc
   142c4:	02d00793          	li	a5,45
   142c8:	06f10ba3          	sb	a5,119(sp)
   142cc:	02d00613          	li	a2,45
   142d0:	998fe06f          	j	0x12468
   142d4:	01812783          	lw	a5,24(sp)
   142d8:	02012a03          	lw	s4,32(sp)
   142dc:	05212823          	sw	s2,80(sp)
   142e0:	00fc07b3          	add	a5,s8,a5
   142e4:	05712c23          	sw	s7,88(sp)
   142e8:	05912e23          	sw	s9,92(sp)
   142ec:	00040713          	mv	a4,s0
   142f0:	04f12223          	sw	a5,68(sp)
   142f4:	02412403          	lw	s0,36(sp)
   142f8:	05d12a23          	sw	t4,84(sp)
   142fc:	03812223          	sw	s8,36(sp)
   14300:	03c12b83          	lw	s7,60(sp)
   14304:	04c12c83          	lw	s9,76(sp)
   14308:	00812903          	lw	s2,8(sp)
   1430c:	00700693          	li	a3,7
   14310:	01000d13          	li	s10,16
   14314:	0000eb17          	auipc	s6,0xe
   14318:	e40b0b13          	add	s6,s6,-448 # 0x22154
   1431c:	00048613          	mv	a2,s1
   14320:	00030c13          	mv	s8,t1
   14324:	09405863          	blez	s4,0x143b4
   14328:	16805e63          	blez	s0,0x144a4
   1432c:	fff40413          	add	s0,s0,-1
   14330:	04812783          	lw	a5,72(sp)
   14334:	01960633          	add	a2,a2,s9
   14338:	01972223          	sw	s9,4(a4)
   1433c:	00f72023          	sw	a5,0(a4)
   14340:	0a412783          	lw	a5,164(sp)
   14344:	0ac12423          	sw	a2,168(sp)
   14348:	00870713          	add	a4,a4,8
   1434c:	00178793          	add	a5,a5,1
   14350:	0af12223          	sw	a5,164(sp)
   14354:	14f6ce63          	blt	a3,a5,0x144b0
   14358:	04412783          	lw	a5,68(sp)
   1435c:	000bc583          	lbu	a1,0(s7)
   14360:	418784b3          	sub	s1,a5,s8
   14364:	0095d463          	bge	a1,s1,0x1436c
   14368:	00058493          	mv	s1,a1
   1436c:	02905663          	blez	s1,0x14398
   14370:	0a412583          	lw	a1,164(sp)
   14374:	00960633          	add	a2,a2,s1
   14378:	01872023          	sw	s8,0(a4)
   1437c:	00158593          	add	a1,a1,1
   14380:	00972223          	sw	s1,4(a4)
   14384:	0ac12423          	sw	a2,168(sp)
   14388:	0ab12223          	sw	a1,164(sp)
   1438c:	14b6c663          	blt	a3,a1,0x144d8
   14390:	000bc583          	lbu	a1,0(s7)
   14394:	00870713          	add	a4,a4,8
   14398:	fff4c513          	not	a0,s1
   1439c:	41f55513          	sra	a0,a0,0x1f
   143a0:	00a4f7b3          	and	a5,s1,a0
   143a4:	40f584b3          	sub	s1,a1,a5
   143a8:	04904663          	bgtz	s1,0x143f4
   143ac:	00bc0c33          	add	s8,s8,a1
   143b0:	f7404ce3          	bgtz	s4,0x14328
   143b4:	f6804ce3          	bgtz	s0,0x1432c
   143b8:	01812783          	lw	a5,24(sp)
   143bc:	000c0313          	mv	t1,s8
   143c0:	02412c03          	lw	s8,36(sp)
   143c4:	03712e23          	sw	s7,60(sp)
   143c8:	00070413          	mv	s0,a4
   143cc:	00fc0733          	add	a4,s8,a5
   143d0:	05012903          	lw	s2,80(sp)
   143d4:	05412e83          	lw	t4,84(sp)
   143d8:	05812b83          	lw	s7,88(sp)
   143dc:	05c12c83          	lw	s9,92(sp)
   143e0:	00060493          	mv	s1,a2
   143e4:	00676463          	bltu	a4,t1,0x143ec
   143e8:	c59fe06f          	j	0x13040
   143ec:	00070313          	mv	t1,a4
   143f0:	c51fe06f          	j	0x13040
   143f4:	0a412583          	lw	a1,164(sp)
   143f8:	0000ee97          	auipc	t4,0xe
   143fc:	d5ce8e93          	add	t4,t4,-676 # 0x22154
   14400:	069d5c63          	bge	s10,s1,0x14478
   14404:	02812023          	sw	s0,32(sp)
   14408:	00048413          	mv	s0,s1
   1440c:	000b0493          	mv	s1,s6
   14410:	00c0006f          	j	0x1441c
   14414:	ff040413          	add	s0,s0,-16
   14418:	048d5a63          	bge	s10,s0,0x1446c
   1441c:	01060613          	add	a2,a2,16
   14420:	00158593          	add	a1,a1,1
   14424:	01672023          	sw	s6,0(a4)
   14428:	01a72223          	sw	s10,4(a4)
   1442c:	0ac12423          	sw	a2,168(sp)
   14430:	0ab12223          	sw	a1,164(sp)
   14434:	00870713          	add	a4,a4,8
   14438:	fcb6dee3          	bge	a3,a1,0x14414
   1443c:	0a010613          	add	a2,sp,160
   14440:	00090593          	mv	a1,s2
   14444:	00098513          	mv	a0,s3
   14448:	0cd000ef          	jal	0x14d14
   1444c:	00050463          	beqz	a0,0x14454
   14450:	ec5fd06f          	j	0x12314
   14454:	ff040413          	add	s0,s0,-16
   14458:	0a812603          	lw	a2,168(sp)
   1445c:	0a412583          	lw	a1,164(sp)
   14460:	0ac10713          	add	a4,sp,172
   14464:	00700693          	li	a3,7
   14468:	fa8d4ae3          	blt	s10,s0,0x1441c
   1446c:	00048e93          	mv	t4,s1
   14470:	00040493          	mv	s1,s0
   14474:	02012403          	lw	s0,32(sp)
   14478:	00960633          	add	a2,a2,s1
   1447c:	00158593          	add	a1,a1,1
   14480:	01d72023          	sw	t4,0(a4)
   14484:	00972223          	sw	s1,4(a4)
   14488:	0ac12423          	sw	a2,168(sp)
   1448c:	0ab12223          	sw	a1,164(sp)
   14490:	10b6ce63          	blt	a3,a1,0x145ac
   14494:	000bc583          	lbu	a1,0(s7)
   14498:	00870713          	add	a4,a4,8
   1449c:	00bc0c33          	add	s8,s8,a1
   144a0:	f11ff06f          	j	0x143b0
   144a4:	fffb8b93          	add	s7,s7,-1
   144a8:	fffa0a13          	add	s4,s4,-1
   144ac:	e85ff06f          	j	0x14330
   144b0:	0a010613          	add	a2,sp,160
   144b4:	00090593          	mv	a1,s2
   144b8:	00098513          	mv	a0,s3
   144bc:	059000ef          	jal	0x14d14
   144c0:	00050463          	beqz	a0,0x144c8
   144c4:	e51fd06f          	j	0x12314
   144c8:	0a812603          	lw	a2,168(sp)
   144cc:	0ac10713          	add	a4,sp,172
   144d0:	00700693          	li	a3,7
   144d4:	e85ff06f          	j	0x14358
   144d8:	0a010613          	add	a2,sp,160
   144dc:	00090593          	mv	a1,s2
   144e0:	00098513          	mv	a0,s3
   144e4:	031000ef          	jal	0x14d14
   144e8:	00050463          	beqz	a0,0x144f0
   144ec:	e29fd06f          	j	0x12314
   144f0:	000bc583          	lbu	a1,0(s7)
   144f4:	0a812603          	lw	a2,168(sp)
   144f8:	0ac10713          	add	a4,sp,172
   144fc:	00700693          	li	a3,7
   14500:	e99ff06f          	j	0x14398
   14504:	04c12783          	lw	a5,76(sp)
   14508:	04812583          	lw	a1,72(sp)
   1450c:	00000913          	li	s2,0
   14510:	40fc0c33          	sub	s8,s8,a5
   14514:	00078613          	mv	a2,a5
   14518:	000c0513          	mv	a0,s8
   1451c:	07c030ef          	jal	0x17598
   14520:	00144783          	lbu	a5,1(s0)
   14524:	00a00613          	li	a2,10
   14528:	00000693          	li	a3,0
   1452c:	00f037b3          	snez	a5,a5
   14530:	000d0513          	mv	a0,s10
   14534:	000c8593          	mv	a1,s9
   14538:	00f40433          	add	s0,s0,a5
   1453c:	53d090ef          	jal	0x1e278
   14540:	a10ff06f          	j	0x13750
   14544:	09810713          	add	a4,sp,152
   14548:	00000693          	li	a3,0
   1454c:	08410613          	add	a2,sp,132
   14550:	00000593          	li	a1,0
   14554:	00098513          	mv	a0,s3
   14558:	01c12a23          	sw	t3,20(sp)
   1455c:	01d12823          	sw	t4,16(sp)
   14560:	6dc080ef          	jal	0x1cc3c
   14564:	fff00713          	li	a4,-1
   14568:	01012e83          	lw	t4,16(sp)
   1456c:	01412e03          	lw	t3,20(sp)
   14570:	00050d13          	mv	s10,a0
   14574:	30e50063          	beq	a0,a4,0x14874
   14578:	09812223          	sw	s8,132(sp)
   1457c:	cacff06f          	j	0x13a28
   14580:	07714603          	lbu	a2,119(sp)
   14584:	01612a23          	sw	s6,20(sp)
   14588:	02012223          	sw	zero,36(sp)
   1458c:	02012023          	sw	zero,32(sp)
   14590:	00012823          	sw	zero,16(sp)
   14594:	00000c93          	li	s9,0
   14598:	00000313          	li	t1,0
   1459c:	00000a13          	li	s4,0
   145a0:	00061463          	bnez	a2,0x145a8
   145a4:	ae1fd06f          	j	0x12084
   145a8:	efdfd06f          	j	0x124a4
   145ac:	0a010613          	add	a2,sp,160
   145b0:	00090593          	mv	a1,s2
   145b4:	00098513          	mv	a0,s3
   145b8:	75c000ef          	jal	0x14d14
   145bc:	00050463          	beqz	a0,0x145c4
   145c0:	d55fd06f          	j	0x12314
   145c4:	000bc583          	lbu	a1,0(s7)
   145c8:	0a812603          	lw	a2,168(sp)
   145cc:	0ac10713          	add	a4,sp,172
   145d0:	00700693          	li	a3,7
   145d4:	00bc0c33          	add	s8,s8,a1
   145d8:	dd9ff06f          	j	0x143b0
   145dc:	00812583          	lw	a1,8(sp)
   145e0:	0a010613          	add	a2,sp,160
   145e4:	00098513          	mv	a0,s3
   145e8:	05d12223          	sw	t4,68(sp)
   145ec:	728000ef          	jal	0x14d14
   145f0:	00050463          	beqz	a0,0x145f8
   145f4:	d21fd06f          	j	0x12314
   145f8:	0a812483          	lw	s1,168(sp)
   145fc:	04412e83          	lw	t4,68(sp)
   14600:	0ac10413          	add	s0,sp,172
   14604:	a19fe06f          	j	0x1301c
   14608:	00900793          	li	a5,9
   1460c:	95a7e263          	bltu	a5,s10,0x13750
   14610:	98cff06f          	j	0x1379c
   14614:	07c12a03          	lw	s4,124(sp)
   14618:	00070793          	mv	a5,a4
   1461c:	9f1ff06f          	j	0x1400c
   14620:	00812583          	lw	a1,8(sp)
   14624:	0a010613          	add	a2,sp,160
   14628:	00098513          	mv	a0,s3
   1462c:	03d12023          	sw	t4,32(sp)
   14630:	6e4000ef          	jal	0x14d14
   14634:	00050463          	beqz	a0,0x1463c
   14638:	cddfd06f          	j	0x12314
   1463c:	07c12d03          	lw	s10,124(sp)
   14640:	01812783          	lw	a5,24(sp)
   14644:	0a812483          	lw	s1,168(sp)
   14648:	02012e83          	lw	t4,32(sp)
   1464c:	0ac10413          	add	s0,sp,172
   14650:	41a78d33          	sub	s10,a5,s10
   14654:	a49fe06f          	j	0x1309c
   14658:	00650733          	add	a4,a0,t1
   1465c:	04700d13          	li	s10,71
   14660:	94dff06f          	j	0x13fac
   14664:	02812603          	lw	a2,40(sp)
   14668:	00048593          	mv	a1,s1
   1466c:	00000693          	li	a3,0
   14670:	00060513          	mv	a0,a2
   14674:	00000613          	li	a2,0
   14678:	04e12823          	sw	a4,80(sp)
   1467c:	02612223          	sw	t1,36(sp)
   14680:	03c12023          	sw	t3,32(sp)
   14684:	01d12c23          	sw	t4,24(sp)
   14688:	2690b0ef          	jal	0x200f0
   1468c:	01812e83          	lw	t4,24(sp)
   14690:	02012e03          	lw	t3,32(sp)
   14694:	02412303          	lw	t1,36(sp)
   14698:	05012703          	lw	a4,80(sp)
   1469c:	34051e63          	bnez	a0,0x149f8
   146a0:	07c12a03          	lw	s4,124(sp)
   146a4:	01470733          	add	a4,a4,s4
   146a8:	418707b3          	sub	a5,a4,s8
   146ac:	00f12c23          	sw	a5,24(sp)
   146b0:	001ef713          	and	a4,t4,1
   146b4:	00676733          	or	a4,a4,t1
   146b8:	37405a63          	blez	s4,0x14a2c
   146bc:	26071263          	bnez	a4,0x14920
   146c0:	000a0d13          	mv	s10,s4
   146c4:	06600e13          	li	t3,102
   146c8:	400eff13          	and	t5,t4,1024
   146cc:	1c0f1a63          	bnez	t5,0x148a0
   146d0:	fffd4813          	not	a6,s10
   146d4:	41f85813          	sra	a6,a6,0x1f
   146d8:	010d7cb3          	and	s9,s10,a6
   146dc:	bd9ff06f          	j	0x142b4
   146e0:	01812783          	lw	a5,24(sp)
   146e4:	03012703          	lw	a4,48(sp)
   146e8:	06700e13          	li	t3,103
   146ec:	00e78d33          	add	s10,a5,a4
   146f0:	fd404ce3          	bgtz	s4,0x146c8
   146f4:	414d06b3          	sub	a3,s10,s4
   146f8:	00168d13          	add	s10,a3,1
   146fc:	fffd4813          	not	a6,s10
   14700:	41f85813          	sra	a6,a6,0x1f
   14704:	010d7cb3          	and	s9,s10,a6
   14708:	badff06f          	j	0x142b4
   1470c:	000e8613          	mv	a2,t4
   14710:	ad8fe06f          	j	0x129e8
   14714:	00812783          	lw	a5,8(sp)
   14718:	0647a783          	lw	a5,100(a5)
   1471c:	0017f793          	and	a5,a5,1
   14720:	02079063          	bnez	a5,0x14740
   14724:	00812783          	lw	a5,8(sp)
   14728:	00c7d783          	lhu	a5,12(a5)
   1472c:	2007f793          	and	a5,a5,512
   14730:	00079863          	bnez	a5,0x14740
   14734:	00812783          	lw	a5,8(sp)
   14738:	0587a503          	lw	a0,88(a5)
   1473c:	fe4fc0ef          	jal	0x10f20
   14740:	fff00793          	li	a5,-1
   14744:	00f12623          	sw	a5,12(sp)
   14748:	c2dfd06f          	j	0x12374
   1474c:	ff000613          	li	a2,-16
   14750:	40d00d33          	neg	s10,a3
   14754:	0000e297          	auipc	t0,0xe
   14758:	a0028293          	add	t0,t0,-1536 # 0x22154
   1475c:	08c6d463          	bge	a3,a2,0x147e4
   14760:	03212023          	sw	s2,32(sp)
   14764:	01000693          	li	a3,16
   14768:	00700b13          	li	s6,7
   1476c:	000e8a13          	mv	s4,t4
   14770:	00028913          	mv	s2,t0
   14774:	00c0006f          	j	0x14780
   14778:	ff0d0d13          	add	s10,s10,-16
   1477c:	05a6de63          	bge	a3,s10,0x147d8
   14780:	01048493          	add	s1,s1,16
   14784:	00170713          	add	a4,a4,1
   14788:	01242023          	sw	s2,0(s0)
   1478c:	00d42223          	sw	a3,4(s0)
   14790:	0a912423          	sw	s1,168(sp)
   14794:	0ae12223          	sw	a4,164(sp)
   14798:	00840413          	add	s0,s0,8
   1479c:	fceb5ee3          	bge	s6,a4,0x14778
   147a0:	00812583          	lw	a1,8(sp)
   147a4:	0a010613          	add	a2,sp,160
   147a8:	00098513          	mv	a0,s3
   147ac:	568000ef          	jal	0x14d14
   147b0:	00050463          	beqz	a0,0x147b8
   147b4:	b61fd06f          	j	0x12314
   147b8:	0a812483          	lw	s1,168(sp)
   147bc:	0a412703          	lw	a4,164(sp)
   147c0:	0ac10413          	add	s0,sp,172
   147c4:	01000693          	li	a3,16
   147c8:	fb1ff06f          	j	0x14778
   147cc:	00012823          	sw	zero,16(sp)
   147d0:	0ec10c13          	add	s8,sp,236
   147d4:	a88ff06f          	j	0x13a5c
   147d8:	00090293          	mv	t0,s2
   147dc:	02012903          	lw	s2,32(sp)
   147e0:	000a0e93          	mv	t4,s4
   147e4:	01a484b3          	add	s1,s1,s10
   147e8:	00170713          	add	a4,a4,1
   147ec:	00542023          	sw	t0,0(s0)
   147f0:	01a42223          	sw	s10,4(s0)
   147f4:	0a912423          	sw	s1,168(sp)
   147f8:	0ae12223          	sw	a4,164(sp)
   147fc:	00700693          	li	a3,7
   14800:	00e6c463          	blt	a3,a4,0x14808
   14804:	b65fe06f          	j	0x13368
   14808:	00812583          	lw	a1,8(sp)
   1480c:	0a010613          	add	a2,sp,160
   14810:	00098513          	mv	a0,s3
   14814:	03d12023          	sw	t4,32(sp)
   14818:	4fc000ef          	jal	0x14d14
   1481c:	00050463          	beqz	a0,0x14824
   14820:	af5fd06f          	j	0x12314
   14824:	0a812483          	lw	s1,168(sp)
   14828:	0a412703          	lw	a4,164(sp)
   1482c:	02012e83          	lw	t4,32(sp)
   14830:	0ac10413          	add	s0,sp,172
   14834:	b20ff06f          	j	0x13b54
   14838:	08a10693          	add	a3,sp,138
   1483c:	00061863          	bnez	a2,0x1484c
   14840:	03000693          	li	a3,48
   14844:	08d10523          	sb	a3,138(sp)
   14848:	08b10693          	add	a3,sp,139
   1484c:	15010793          	add	a5,sp,336
   14850:	40f68633          	sub	a2,a3,a5
   14854:	030d0713          	add	a4,s10,48
   14858:	0c960793          	add	a5,a2,201
   1485c:	00e68023          	sb	a4,0(a3)
   14860:	04f12023          	sw	a5,64(sp)
   14864:	d5cff06f          	j	0x13dc0
   14868:	001ef713          	and	a4,t4,1
   1486c:	d6070863          	beqz	a4,0x13ddc
   14870:	d64ff06f          	j	0x13dd4
   14874:	00812783          	lw	a5,8(sp)
   14878:	00000293          	li	t0,0
   1487c:	00c79783          	lh	a5,12(a5)
   14880:	0407e793          	or	a5,a5,64
   14884:	00812703          	lw	a4,8(sp)
   14888:	00f71623          	sh	a5,12(a4)
   1488c:	a8dfd06f          	j	0x12318
   14890:	00012823          	sw	zero,16(sp)
   14894:	00600313          	li	t1,6
   14898:	ff9fe06f          	j	0x13890
   1489c:	06700e13          	li	t3,103
   148a0:	03c12783          	lw	a5,60(sp)
   148a4:	0ff00613          	li	a2,255
   148a8:	0007c703          	lbu	a4,0(a5)
   148ac:	22c70263          	beq	a4,a2,0x14ad0
   148b0:	00000593          	li	a1,0
   148b4:	00000693          	li	a3,0
   148b8:	01475e63          	bge	a4,s4,0x148d4
   148bc:	40ea0a33          	sub	s4,s4,a4
   148c0:	0017c703          	lbu	a4,1(a5)
   148c4:	04070863          	beqz	a4,0x14914
   148c8:	00168693          	add	a3,a3,1
   148cc:	00178793          	add	a5,a5,1
   148d0:	fec714e3          	bne	a4,a2,0x148b8
   148d4:	02f12e23          	sw	a5,60(sp)
   148d8:	02d12023          	sw	a3,32(sp)
   148dc:	02b12223          	sw	a1,36(sp)
   148e0:	02012783          	lw	a5,32(sp)
   148e4:	02412703          	lw	a4,36(sp)
   148e8:	04c12583          	lw	a1,76(sp)
   148ec:	05c12823          	sw	t3,80(sp)
   148f0:	00e78533          	add	a0,a5,a4
   148f4:	1580d0ef          	jal	0x21a4c
   148f8:	01a50d33          	add	s10,a0,s10
   148fc:	fffd4813          	not	a6,s10
   14900:	41f85813          	sra	a6,a6,0x1f
   14904:	05012e03          	lw	t3,80(sp)
   14908:	010d7cb3          	and	s9,s10,a6
   1490c:	000b0e93          	mv	t4,s6
   14910:	cecff06f          	j	0x13dfc
   14914:	0007c703          	lbu	a4,0(a5)
   14918:	00158593          	add	a1,a1,1
   1491c:	fb5ff06f          	j	0x148d0
   14920:	03012783          	lw	a5,48(sp)
   14924:	06600e13          	li	t3,102
   14928:	00f306b3          	add	a3,t1,a5
   1492c:	01468d33          	add	s10,a3,s4
   14930:	d99ff06f          	j	0x146c8
   14934:	02c12783          	lw	a5,44(sp)
   14938:	0a07c863          	bltz	a5,0x149e8
   1493c:	07714603          	lbu	a2,119(sp)
   14940:	04700713          	li	a4,71
   14944:	0000dc17          	auipc	s8,0xd
   14948:	320c0c13          	add	s8,s8,800 # 0x21c64
   1494c:	01c75463          	bge	a4,t3,0x14954
   14950:	b31fd06f          	j	0x12480
   14954:	0000dc17          	auipc	s8,0xd
   14958:	30cc0c13          	add	s8,s8,780 # 0x21c60
   1495c:	b25fd06f          	j	0x12480
   14960:	07714603          	lbu	a2,119(sp)
   14964:	01612a23          	sw	s6,20(sp)
   14968:	02012223          	sw	zero,36(sp)
   1496c:	02012023          	sw	zero,32(sp)
   14970:	00030c93          	mv	s9,t1
   14974:	00030d13          	mv	s10,t1
   14978:	07300e13          	li	t3,115
   1497c:	00000313          	li	t1,0
   14980:	00061463          	bnez	a2,0x14988
   14984:	f00fd06f          	j	0x12084
   14988:	b1dfd06f          	j	0x124a4
   1498c:	00040313          	mv	t1,s0
   14990:	01012903          	lw	s2,16(sp)
   14994:	000b0413          	mv	s0,s6
   14998:	01412e03          	lw	t3,20(sp)
   1499c:	000c0b13          	mv	s6,s8
   149a0:	000a0e93          	mv	t4,s4
   149a4:	000c8c13          	mv	s8,s9
   149a8:	00030d13          	mv	s10,t1
   149ac:	87cff06f          	j	0x13a28
   149b0:	001b0793          	add	a5,s6,1
   149b4:	000c0993          	mv	s3,s8
   149b8:	02412903          	lw	s2,36(sp)
   149bc:	04012e83          	lw	t4,64(sp)
   149c0:	05012e03          	lw	t3,80(sp)
   149c4:	05412403          	lw	s0,84(sp)
   149c8:	000d0c13          	mv	s8,s10
   149cc:	00f487b3          	add	a5,s1,a5
   149d0:	03000693          	li	a3,48
   149d4:	840b40e3          	bltz	s6,0x14214
   149d8:	00148493          	add	s1,s1,1
   149dc:	fed48fa3          	sb	a3,-1(s1)
   149e0:	fe979ce3          	bne	a5,s1,0x149d8
   149e4:	835ff06f          	j	0x14218
   149e8:	02d00793          	li	a5,45
   149ec:	06f10ba3          	sb	a5,119(sp)
   149f0:	02d00613          	li	a2,45
   149f4:	f4dff06f          	j	0x14940
   149f8:	00100693          	li	a3,1
   149fc:	414686b3          	sub	a3,a3,s4
   14a00:	06d12e23          	sw	a3,124(sp)
   14a04:	da4ff06f          	j	0x13fa8
   14a08:	01412783          	lw	a5,20(sp)
   14a0c:	0007ab03          	lw	s6,0(a5)
   14a10:	00478793          	add	a5,a5,4
   14a14:	000b5463          	bgez	s6,0x14a1c
   14a18:	fff00b13          	li	s6,-1
   14a1c:	00194e03          	lbu	t3,1(s2)
   14a20:	00f12a23          	sw	a5,20(sp)
   14a24:	00068913          	mv	s2,a3
   14a28:	dccfd06f          	j	0x11ff4
   14a2c:	00071a63          	bnez	a4,0x14a40
   14a30:	00100c93          	li	s9,1
   14a34:	06600e13          	li	t3,102
   14a38:	00100d13          	li	s10,1
   14a3c:	879ff06f          	j	0x142b4
   14a40:	03012783          	lw	a5,48(sp)
   14a44:	06600e13          	li	t3,102
   14a48:	00178693          	add	a3,a5,1
   14a4c:	00668d33          	add	s10,a3,t1
   14a50:	fffd4813          	not	a6,s10
   14a54:	41f85813          	sra	a6,a6,0x1f
   14a58:	010d7cb3          	and	s9,s10,a6
   14a5c:	859ff06f          	j	0x142b4
   14a60:	00200793          	li	a5,2
   14a64:	04f12023          	sw	a5,64(sp)
   14a68:	b58ff06f          	j	0x13dc0
   14a6c:	00812703          	lw	a4,8(sp)
   14a70:	00c71783          	lh	a5,12(a4)
   14a74:	0407e793          	or	a5,a5,64
   14a78:	00f71623          	sh	a5,12(a4)
   14a7c:	8b5fd06f          	j	0x12330
   14a80:	000a0513          	mv	a0,s4
   14a84:	000d0593          	mv	a1,s10
   14a88:	00030613          	mv	a2,t1
   14a8c:	00038693          	mv	a3,t2
   14a90:	05012023          	sw	a6,64(sp)
   14a94:	03c12223          	sw	t3,36(sp)
   14a98:	01d12c23          	sw	t4,24(sp)
   14a9c:	6540b0ef          	jal	0x200f0
   14aa0:	01812e83          	lw	t4,24(sp)
   14aa4:	02412e03          	lw	t3,36(sp)
   14aa8:	04012803          	lw	a6,64(sp)
   14aac:	f6051463          	bnez	a0,0x14214
   14ab0:	001b7693          	and	a3,s6,1
   14ab4:	f6068063          	beqz	a3,0x14214
   14ab8:	f14ff06f          	j	0x141cc
   14abc:	00812783          	lw	a5,8(sp)
   14ac0:	01012283          	lw	t0,16(sp)
   14ac4:	00c79783          	lh	a5,12(a5)
   14ac8:	0407e793          	or	a5,a5,64
   14acc:	db9ff06f          	j	0x14884
   14ad0:	02012223          	sw	zero,36(sp)
   14ad4:	02012023          	sw	zero,32(sp)
   14ad8:	e09ff06f          	j	0x148e0
   14adc:	04500d13          	li	s10,69
   14ae0:	cccff06f          	j	0x13fac
   14ae4:	00060693          	mv	a3,a2
   14ae8:	00058613          	mv	a2,a1
   14aec:	00050593          	mv	a1,a0
   14af0:	f341a503          	lw	a0,-204(gp)
   14af4:	b54fd06f          	j	0x11e48
   14af8:	b7010113          	add	sp,sp,-1168
   14afc:	00c59783          	lh	a5,12(a1)
   14b00:	00e5d703          	lhu	a4,14(a1)
   14b04:	48812423          	sw	s0,1160(sp)
   14b08:	00058413          	mv	s0,a1
   14b0c:	000105b7          	lui	a1,0x10
   14b10:	ffd58593          	add	a1,a1,-3 # 0xfffd
   14b14:	06442303          	lw	t1,100(s0)
   14b18:	01c42883          	lw	a7,28(s0)
   14b1c:	02442803          	lw	a6,36(s0)
   14b20:	01071713          	sll	a4,a4,0x10
   14b24:	00b7f7b3          	and	a5,a5,a1
   14b28:	00e7e7b3          	or	a5,a5,a4
   14b2c:	40000593          	li	a1,1024
   14b30:	49212023          	sw	s2,1152(sp)
   14b34:	00f12a23          	sw	a5,20(sp)
   14b38:	00050913          	mv	s2,a0
   14b3c:	07010793          	add	a5,sp,112
   14b40:	06010513          	add	a0,sp,96
   14b44:	48112623          	sw	ra,1164(sp)
   14b48:	48912223          	sw	s1,1156(sp)
   14b4c:	47312e23          	sw	s3,1148(sp)
   14b50:	00060493          	mv	s1,a2
   14b54:	00068993          	mv	s3,a3
   14b58:	06612623          	sw	t1,108(sp)
   14b5c:	03112223          	sw	a7,36(sp)
   14b60:	03012623          	sw	a6,44(sp)
   14b64:	00f12423          	sw	a5,8(sp)
   14b68:	00f12c23          	sw	a5,24(sp)
   14b6c:	00b12823          	sw	a1,16(sp)
   14b70:	00b12e23          	sw	a1,28(sp)
   14b74:	02012023          	sw	zero,32(sp)
   14b78:	b80fc0ef          	jal	0x10ef8
   14b7c:	00048613          	mv	a2,s1
   14b80:	00098693          	mv	a3,s3
   14b84:	00810593          	add	a1,sp,8
   14b88:	00090513          	mv	a0,s2
   14b8c:	abcfd0ef          	jal	0x11e48
   14b90:	00050493          	mv	s1,a0
   14b94:	04055263          	bgez	a0,0x14bd8
   14b98:	01415783          	lhu	a5,20(sp)
   14b9c:	0407f793          	and	a5,a5,64
   14ba0:	00078863          	beqz	a5,0x14bb0
   14ba4:	00c45783          	lhu	a5,12(s0)
   14ba8:	0407e793          	or	a5,a5,64
   14bac:	00f41623          	sh	a5,12(s0)
   14bb0:	06012503          	lw	a0,96(sp)
   14bb4:	b4cfc0ef          	jal	0x10f00
   14bb8:	48c12083          	lw	ra,1164(sp)
   14bbc:	48812403          	lw	s0,1160(sp)
   14bc0:	48012903          	lw	s2,1152(sp)
   14bc4:	47c12983          	lw	s3,1148(sp)
   14bc8:	00048513          	mv	a0,s1
   14bcc:	48412483          	lw	s1,1156(sp)
   14bd0:	49010113          	add	sp,sp,1168
   14bd4:	00008067          	ret
   14bd8:	00810593          	add	a1,sp,8
   14bdc:	00090513          	mv	a0,s2
   14be0:	5d5010ef          	jal	0x169b4
   14be4:	fa050ae3          	beqz	a0,0x14b98
   14be8:	fff00493          	li	s1,-1
   14bec:	fadff06f          	j	0x14b98
   14bf0:	0645a783          	lw	a5,100(a1)
   14bf4:	fd010113          	add	sp,sp,-48
   14bf8:	01612823          	sw	s6,16(sp)
   14bfc:	02112623          	sw	ra,44(sp)
   14c00:	01279713          	sll	a4,a5,0x12
   14c04:	00060b13          	mv	s6,a2
   14c08:	0e075863          	bgez	a4,0x14cf8
   14c0c:	00862783          	lw	a5,8(a2)
   14c10:	03212023          	sw	s2,32(sp)
   14c14:	01312e23          	sw	s3,28(sp)
   14c18:	01512a23          	sw	s5,20(sp)
   14c1c:	01712623          	sw	s7,12(sp)
   14c20:	00058913          	mv	s2,a1
   14c24:	00062b83          	lw	s7,0(a2)
   14c28:	00050993          	mv	s3,a0
   14c2c:	fff00a93          	li	s5,-1
   14c30:	0a078863          	beqz	a5,0x14ce0
   14c34:	02812423          	sw	s0,40(sp)
   14c38:	02912223          	sw	s1,36(sp)
   14c3c:	01412c23          	sw	s4,24(sp)
   14c40:	01812423          	sw	s8,8(sp)
   14c44:	004bac03          	lw	s8,4(s7)
   14c48:	000ba403          	lw	s0,0(s7)
   14c4c:	002c5a13          	srl	s4,s8,0x2
   14c50:	060a0663          	beqz	s4,0x14cbc
   14c54:	00000493          	li	s1,0
   14c58:	00c0006f          	j	0x14c64
   14c5c:	00440413          	add	s0,s0,4
   14c60:	049a0c63          	beq	s4,s1,0x14cb8
   14c64:	00042583          	lw	a1,0(s0)
   14c68:	00090613          	mv	a2,s2
   14c6c:	00098513          	mv	a0,s3
   14c70:	6a8020ef          	jal	0x17318
   14c74:	00148493          	add	s1,s1,1
   14c78:	ff5512e3          	bne	a0,s5,0x14c5c
   14c7c:	02812403          	lw	s0,40(sp)
   14c80:	02412483          	lw	s1,36(sp)
   14c84:	02012903          	lw	s2,32(sp)
   14c88:	01c12983          	lw	s3,28(sp)
   14c8c:	01812a03          	lw	s4,24(sp)
   14c90:	01412a83          	lw	s5,20(sp)
   14c94:	00c12b83          	lw	s7,12(sp)
   14c98:	00812c03          	lw	s8,8(sp)
   14c9c:	fff00513          	li	a0,-1
   14ca0:	02c12083          	lw	ra,44(sp)
   14ca4:	000b2423          	sw	zero,8(s6)
   14ca8:	000b2223          	sw	zero,4(s6)
   14cac:	01012b03          	lw	s6,16(sp)
   14cb0:	03010113          	add	sp,sp,48
   14cb4:	00008067          	ret
   14cb8:	008b2783          	lw	a5,8(s6)
   14cbc:	ffcc7c13          	and	s8,s8,-4
   14cc0:	418787b3          	sub	a5,a5,s8
   14cc4:	00fb2423          	sw	a5,8(s6)
   14cc8:	008b8b93          	add	s7,s7,8
   14ccc:	f6079ce3          	bnez	a5,0x14c44
   14cd0:	02812403          	lw	s0,40(sp)
   14cd4:	02412483          	lw	s1,36(sp)
   14cd8:	01812a03          	lw	s4,24(sp)
   14cdc:	00812c03          	lw	s8,8(sp)
   14ce0:	02012903          	lw	s2,32(sp)
   14ce4:	01c12983          	lw	s3,28(sp)
   14ce8:	01412a83          	lw	s5,20(sp)
   14cec:	00c12b83          	lw	s7,12(sp)
   14cf0:	00000513          	li	a0,0
   14cf4:	fadff06f          	j	0x14ca0
   14cf8:	66d010ef          	jal	0x16b64
   14cfc:	02c12083          	lw	ra,44(sp)
   14d00:	000b2423          	sw	zero,8(s6)
   14d04:	000b2223          	sw	zero,4(s6)
   14d08:	01012b03          	lw	s6,16(sp)
   14d0c:	03010113          	add	sp,sp,48
   14d10:	00008067          	ret
   14d14:	00862703          	lw	a4,8(a2)
   14d18:	00070463          	beqz	a4,0x14d20
   14d1c:	ed5ff06f          	j	0x14bf0
   14d20:	00062223          	sw	zero,4(a2)
   14d24:	00000513          	li	a0,0
   14d28:	00008067          	ret
   14d2c:	eb010113          	add	sp,sp,-336
   14d30:	14812423          	sw	s0,328(sp)
   14d34:	13312e23          	sw	s3,316(sp)
   14d38:	13812423          	sw	s8,296(sp)
   14d3c:	00050413          	mv	s0,a0
   14d40:	00058993          	mv	s3,a1
   14d44:	00060c13          	mv	s8,a2
   14d48:	00000593          	li	a1,0
   14d4c:	00800613          	li	a2,8
   14d50:	05010513          	add	a0,sp,80
   14d54:	13512a23          	sw	s5,308(sp)
   14d58:	14112623          	sw	ra,332(sp)
   14d5c:	00068a93          	mv	s5,a3
   14d60:	9c4fc0ef          	jal	0x10f24
   14d64:	00040863          	beqz	s0,0x14d74
   14d68:	03442783          	lw	a5,52(s0)
   14d6c:	00079463          	bnez	a5,0x14d74
   14d70:	4980106f          	j	0x16208
   14d74:	0649a703          	lw	a4,100(s3)
   14d78:	00c99783          	lh	a5,12(s3)
   14d7c:	00177713          	and	a4,a4,1
   14d80:	00071863          	bnez	a4,0x14d90
   14d84:	2007f713          	and	a4,a5,512
   14d88:	00071463          	bnez	a4,0x14d90
   14d8c:	0b40106f          	j	0x15e40
   14d90:	01279713          	sll	a4,a5,0x12
   14d94:	02074663          	bltz	a4,0x14dc0
   14d98:	0649a703          	lw	a4,100(s3)
   14d9c:	00002637          	lui	a2,0x2
   14da0:	ffffe6b7          	lui	a3,0xffffe
   14da4:	00c7e7b3          	or	a5,a5,a2
   14da8:	fff68693          	add	a3,a3,-1 # 0xffffdfff
   14dac:	01079793          	sll	a5,a5,0x10
   14db0:	4107d793          	sra	a5,a5,0x10
   14db4:	00d77733          	and	a4,a4,a3
   14db8:	00f99623          	sh	a5,12(s3)
   14dbc:	06e9a223          	sw	a4,100(s3)
   14dc0:	0087f713          	and	a4,a5,8
   14dc4:	2e070263          	beqz	a4,0x150a8
   14dc8:	0109a703          	lw	a4,16(s3)
   14dcc:	2c070e63          	beqz	a4,0x150a8
   14dd0:	01a7f713          	and	a4,a5,26
   14dd4:	00a00693          	li	a3,10
   14dd8:	2ed70a63          	beq	a4,a3,0x150cc
   14ddc:	13412c23          	sw	s4,312(sp)
   14de0:	06c10a13          	add	s4,sp,108
   14de4:	14912223          	sw	s1,324(sp)
   14de8:	15212023          	sw	s2,320(sp)
   14dec:	13612823          	sw	s6,304(sp)
   14df0:	13712623          	sw	s7,300(sp)
   14df4:	13912223          	sw	s9,292(sp)
   14df8:	13a12023          	sw	s10,288(sp)
   14dfc:	000c0c93          	mv	s9,s8
   14e00:	11b12e23          	sw	s11,284(sp)
   14e04:	07412023          	sw	s4,96(sp)
   14e08:	06012423          	sw	zero,104(sp)
   14e0c:	06012223          	sw	zero,100(sp)
   14e10:	00012a23          	sw	zero,20(sp)
   14e14:	02012623          	sw	zero,44(sp)
   14e18:	02012823          	sw	zero,48(sp)
   14e1c:	02012a23          	sw	zero,52(sp)
   14e20:	00012623          	sw	zero,12(sp)
   14e24:	d3818493          	add	s1,gp,-712
   14e28:	02500913          	li	s2,37
   14e2c:	0000db97          	auipc	s7,0xd
   14e30:	348b8b93          	add	s7,s7,840 # 0x22174
   14e34:	0000db17          	auipc	s6,0xd
   14e38:	4acb0b13          	add	s6,s6,1196 # 0x222e0
   14e3c:	000a0c13          	mv	s8,s4
   14e40:	000c8d93          	mv	s11,s9
   14e44:	0e44ad03          	lw	s10,228(s1)
   14e48:	50c030ef          	jal	0x18354
   14e4c:	00050693          	mv	a3,a0
   14e50:	05010713          	add	a4,sp,80
   14e54:	000d8613          	mv	a2,s11
   14e58:	04810593          	add	a1,sp,72
   14e5c:	00040513          	mv	a0,s0
   14e60:	000d00e7          	jalr	s10
   14e64:	2e050e63          	beqz	a0,0x15160
   14e68:	2c054e63          	bltz	a0,0x15144
   14e6c:	04812783          	lw	a5,72(sp)
   14e70:	01278663          	beq	a5,s2,0x14e7c
   14e74:	00ad8db3          	add	s11,s11,a0
   14e78:	fcdff06f          	j	0x14e44
   14e7c:	00050d13          	mv	s10,a0
   14e80:	419d87b3          	sub	a5,s11,s9
   14e84:	2f9d9463          	bne	s11,s9,0x1516c
   14e88:	00000e13          	li	t3,0
   14e8c:	001dc683          	lbu	a3,1(s11)
   14e90:	001d8c93          	add	s9,s11,1
   14e94:	040101a3          	sb	zero,67(sp)
   14e98:	fff00713          	li	a4,-1
   14e9c:	00000893          	li	a7,0
   14ea0:	05a00d13          	li	s10,90
   14ea4:	000e0d93          	mv	s11,t3
   14ea8:	001c8c93          	add	s9,s9,1
   14eac:	fe068793          	add	a5,a3,-32
   14eb0:	04fd6663          	bltu	s10,a5,0x14efc
   14eb4:	00279793          	sll	a5,a5,0x2
   14eb8:	017787b3          	add	a5,a5,s7
   14ebc:	0007a783          	lw	a5,0(a5)
   14ec0:	017787b3          	add	a5,a5,s7
   14ec4:	00078067          	jr	a5
   14ec8:	00000893          	li	a7,0
   14ecc:	fd068793          	add	a5,a3,-48
   14ed0:	00900593          	li	a1,9
   14ed4:	000cc683          	lbu	a3,0(s9)
   14ed8:	00289613          	sll	a2,a7,0x2
   14edc:	011608b3          	add	a7,a2,a7
   14ee0:	00189893          	sll	a7,a7,0x1
   14ee4:	011788b3          	add	a7,a5,a7
   14ee8:	fd068793          	add	a5,a3,-48
   14eec:	001c8c93          	add	s9,s9,1
   14ef0:	fef5f2e3          	bgeu	a1,a5,0x14ed4
   14ef4:	fe068793          	add	a5,a3,-32
   14ef8:	fafd7ee3          	bgeu	s10,a5,0x14eb4
   14efc:	000d8e13          	mv	t3,s11
   14f00:	2c068663          	beqz	a3,0x151cc
   14f04:	0ad10623          	sb	a3,172(sp)
   14f08:	040101a3          	sb	zero,67(sp)
   14f0c:	00100e93          	li	t4,1
   14f10:	00100d13          	li	s10,1
   14f14:	0ac10813          	add	a6,sp,172
   14f18:	00012823          	sw	zero,16(sp)
   14f1c:	00000713          	li	a4,0
   14f20:	00000f93          	li	t6,0
   14f24:	06412603          	lw	a2,100(sp)
   14f28:	084e7293          	and	t0,t3,132
   14f2c:	06812783          	lw	a5,104(sp)
   14f30:	00160593          	add	a1,a2,1 # 0x2001
   14f34:	00058f13          	mv	t5,a1
   14f38:	00029663          	bnez	t0,0x14f44
   14f3c:	41d88db3          	sub	s11,a7,t4
   14f40:	47b046e3          	bgtz	s11,0x15bac
   14f44:	04314583          	lbu	a1,67(sp)
   14f48:	02058a63          	beqz	a1,0x14f7c
   14f4c:	04310613          	add	a2,sp,67
   14f50:	00178793          	add	a5,a5,1
   14f54:	00100693          	li	a3,1
   14f58:	00cc2023          	sw	a2,0(s8)
   14f5c:	00dc2223          	sw	a3,4(s8)
   14f60:	06f12423          	sw	a5,104(sp)
   14f64:	07e12223          	sw	t5,100(sp)
   14f68:	00700613          	li	a2,7
   14f6c:	35e64ce3          	blt	a2,t5,0x15ac4
   14f70:	000f0613          	mv	a2,t5
   14f74:	008c0c13          	add	s8,s8,8
   14f78:	001f0f13          	add	t5,t5,1
   14f7c:	080f8063          	beqz	t6,0x14ffc
   14f80:	00200613          	li	a2,2
   14f84:	00278793          	add	a5,a5,2
   14f88:	04410693          	add	a3,sp,68
   14f8c:	00cc2223          	sw	a2,4(s8)
   14f90:	00dc2023          	sw	a3,0(s8)
   14f94:	06f12423          	sw	a5,104(sp)
   14f98:	07e12223          	sw	t5,100(sp)
   14f9c:	00700613          	li	a2,7
   14fa0:	3be652e3          	bge	a2,t5,0x15b44
   14fa4:	60078ae3          	beqz	a5,0x15db8
   14fa8:	06010613          	add	a2,sp,96
   14fac:	00098593          	mv	a1,s3
   14fb0:	00040513          	mv	a0,s0
   14fb4:	03d12c23          	sw	t4,56(sp)
   14fb8:	02e12423          	sw	a4,40(sp)
   14fbc:	03112223          	sw	a7,36(sp)
   14fc0:	03012023          	sw	a6,32(sp)
   14fc4:	00512e23          	sw	t0,28(sp)
   14fc8:	01c12c23          	sw	t3,24(sp)
   14fcc:	c25ff0ef          	jal	0x14bf0
   14fd0:	22051463          	bnez	a0,0x151f8
   14fd4:	06412603          	lw	a2,100(sp)
   14fd8:	06812783          	lw	a5,104(sp)
   14fdc:	03812e83          	lw	t4,56(sp)
   14fe0:	02812703          	lw	a4,40(sp)
   14fe4:	02412883          	lw	a7,36(sp)
   14fe8:	02012803          	lw	a6,32(sp)
   14fec:	01c12283          	lw	t0,28(sp)
   14ff0:	01812e03          	lw	t3,24(sp)
   14ff4:	000a0c13          	mv	s8,s4
   14ff8:	00160f13          	add	t5,a2,1
   14ffc:	08000593          	li	a1,128
   15000:	06b286e3          	beq	t0,a1,0x1586c
   15004:	41a70733          	sub	a4,a4,s10
   15008:	1ae04ae3          	bgtz	a4,0x159bc
   1500c:	00fd07b3          	add	a5,s10,a5
   15010:	010c2023          	sw	a6,0(s8)
   15014:	01ac2223          	sw	s10,4(s8)
   15018:	06f12423          	sw	a5,104(sp)
   1501c:	07e12223          	sw	t5,100(sp)
   15020:	00700713          	li	a4,7
   15024:	03e758e3          	bge	a4,t5,0x15854
   15028:	24078063          	beqz	a5,0x15268
   1502c:	06010613          	add	a2,sp,96
   15030:	00098593          	mv	a1,s3
   15034:	00040513          	mv	a0,s0
   15038:	03d12023          	sw	t4,32(sp)
   1503c:	01112e23          	sw	a7,28(sp)
   15040:	01c12c23          	sw	t3,24(sp)
   15044:	badff0ef          	jal	0x14bf0
   15048:	1a051863          	bnez	a0,0x151f8
   1504c:	06812783          	lw	a5,104(sp)
   15050:	02012e83          	lw	t4,32(sp)
   15054:	01c12883          	lw	a7,28(sp)
   15058:	01812e03          	lw	t3,24(sp)
   1505c:	000a0c13          	mv	s8,s4
   15060:	004e7e13          	and	t3,t3,4
   15064:	000e0663          	beqz	t3,0x15070
   15068:	41d88db3          	sub	s11,a7,t4
   1506c:	21b04a63          	bgtz	s11,0x15280
   15070:	01d8d463          	bge	a7,t4,0x15078
   15074:	000e8893          	mv	a7,t4
   15078:	00c12703          	lw	a4,12(sp)
   1507c:	01170733          	add	a4,a4,a7
   15080:	00e12623          	sw	a4,12(sp)
   15084:	16079063          	bnez	a5,0x151e4
   15088:	01012783          	lw	a5,16(sp)
   1508c:	06012223          	sw	zero,100(sp)
   15090:	00078863          	beqz	a5,0x150a0
   15094:	00078593          	mv	a1,a5
   15098:	00040513          	mv	a0,s0
   1509c:	ad0fc0ef          	jal	0x1136c
   150a0:	000a0c13          	mv	s8,s4
   150a4:	d9dff06f          	j	0x14e40
   150a8:	00098593          	mv	a1,s3
   150ac:	00040513          	mv	a0,s0
   150b0:	7c9010ef          	jal	0x17078
   150b4:	00050463          	beqz	a0,0x150bc
   150b8:	3840106f          	j	0x1643c
   150bc:	00c99783          	lh	a5,12(s3)
   150c0:	00a00693          	li	a3,10
   150c4:	01a7f713          	and	a4,a5,26
   150c8:	d0d71ae3          	bne	a4,a3,0x14ddc
   150cc:	00e99703          	lh	a4,14(s3)
   150d0:	d00746e3          	bltz	a4,0x14ddc
   150d4:	0649a703          	lw	a4,100(s3)
   150d8:	00177713          	and	a4,a4,1
   150dc:	00071863          	bnez	a4,0x150ec
   150e0:	2007f793          	and	a5,a5,512
   150e4:	00079463          	bnez	a5,0x150ec
   150e8:	2ac0106f          	j	0x16394
   150ec:	000a8693          	mv	a3,s5
   150f0:	000c0613          	mv	a2,s8
   150f4:	00098593          	mv	a1,s3
   150f8:	00040513          	mv	a0,s0
   150fc:	3f8010ef          	jal	0x164f4
   15100:	14c12083          	lw	ra,332(sp)
   15104:	14812403          	lw	s0,328(sp)
   15108:	00a12623          	sw	a0,12(sp)
   1510c:	00c12503          	lw	a0,12(sp)
   15110:	13c12983          	lw	s3,316(sp)
   15114:	13412a83          	lw	s5,308(sp)
   15118:	12812c03          	lw	s8,296(sp)
   1511c:	15010113          	add	sp,sp,336
   15120:	00008067          	ret
   15124:	000aa883          	lw	a7,0(s5)
   15128:	004a8a93          	add	s5,s5,4
   1512c:	3608cc63          	bltz	a7,0x154a4
   15130:	000cc683          	lbu	a3,0(s9)
   15134:	d75ff06f          	j	0x14ea8
   15138:	000cc683          	lbu	a3,0(s9)
   1513c:	020ded93          	or	s11,s11,32
   15140:	d69ff06f          	j	0x14ea8
   15144:	00800613          	li	a2,8
   15148:	00000593          	li	a1,0
   1514c:	05010513          	add	a0,sp,80
   15150:	dd5fb0ef          	jal	0x10f24
   15154:	00100513          	li	a0,1
   15158:	00ad8db3          	add	s11,s11,a0
   1515c:	ce9ff06f          	j	0x14e44
   15160:	00050d13          	mv	s10,a0
   15164:	419d87b3          	sub	a5,s11,s9
   15168:	079d8263          	beq	s11,s9,0x151cc
   1516c:	06812683          	lw	a3,104(sp)
   15170:	06412703          	lw	a4,100(sp)
   15174:	019c2023          	sw	s9,0(s8)
   15178:	00d786b3          	add	a3,a5,a3
   1517c:	00170713          	add	a4,a4,1
   15180:	00fc2223          	sw	a5,4(s8)
   15184:	06d12423          	sw	a3,104(sp)
   15188:	06e12223          	sw	a4,100(sp)
   1518c:	00700613          	li	a2,7
   15190:	008c0c13          	add	s8,s8,8
   15194:	02e65463          	bge	a2,a4,0x151bc
   15198:	38068ce3          	beqz	a3,0x15d30
   1519c:	06010613          	add	a2,sp,96
   151a0:	00098593          	mv	a1,s3
   151a4:	00040513          	mv	a0,s0
   151a8:	00f12823          	sw	a5,16(sp)
   151ac:	a45ff0ef          	jal	0x14bf0
   151b0:	01012783          	lw	a5,16(sp)
   151b4:	04051c63          	bnez	a0,0x1520c
   151b8:	000a0c13          	mv	s8,s4
   151bc:	00c12703          	lw	a4,12(sp)
   151c0:	00f707b3          	add	a5,a4,a5
   151c4:	00f12623          	sw	a5,12(sp)
   151c8:	cc0d10e3          	bnez	s10,0x14e88
   151cc:	06812783          	lw	a5,104(sp)
   151d0:	00078463          	beqz	a5,0x151d8
   151d4:	22c0106f          	j	0x16400
   151d8:	00c99783          	lh	a5,12(s3)
   151dc:	06012223          	sw	zero,100(sp)
   151e0:	0300006f          	j	0x15210
   151e4:	06010613          	add	a2,sp,96
   151e8:	00098593          	mv	a1,s3
   151ec:	00040513          	mv	a0,s0
   151f0:	a01ff0ef          	jal	0x14bf0
   151f4:	e8050ae3          	beqz	a0,0x15088
   151f8:	01012783          	lw	a5,16(sp)
   151fc:	00078863          	beqz	a5,0x1520c
   15200:	01012583          	lw	a1,16(sp)
   15204:	00040513          	mv	a0,s0
   15208:	964fc0ef          	jal	0x1136c
   1520c:	00c99783          	lh	a5,12(s3)
   15210:	0649a703          	lw	a4,100(s3)
   15214:	00177713          	and	a4,a4,1
   15218:	16070a63          	beqz	a4,0x1538c
   1521c:	0407f793          	and	a5,a5,64
   15220:	14412483          	lw	s1,324(sp)
   15224:	14012903          	lw	s2,320(sp)
   15228:	13812a03          	lw	s4,312(sp)
   1522c:	13012b03          	lw	s6,304(sp)
   15230:	12c12b83          	lw	s7,300(sp)
   15234:	12412c83          	lw	s9,292(sp)
   15238:	12012d03          	lw	s10,288(sp)
   1523c:	11c12d83          	lw	s11,284(sp)
   15240:	00078463          	beqz	a5,0x15248
   15244:	2180106f          	j	0x1645c
   15248:	14c12083          	lw	ra,332(sp)
   1524c:	14812403          	lw	s0,328(sp)
   15250:	00c12503          	lw	a0,12(sp)
   15254:	13c12983          	lw	s3,316(sp)
   15258:	13412a83          	lw	s5,308(sp)
   1525c:	12812c03          	lw	s8,296(sp)
   15260:	15010113          	add	sp,sp,336
   15264:	00008067          	ret
   15268:	06012223          	sw	zero,100(sp)
   1526c:	004e7e13          	and	t3,t3,4
   15270:	240e0ee3          	beqz	t3,0x15ccc
   15274:	41d88db3          	sub	s11,a7,t4
   15278:	25b05ae3          	blez	s11,0x15ccc
   1527c:	000a0c13          	mv	s8,s4
   15280:	01000713          	li	a4,16
   15284:	06412683          	lw	a3,100(sp)
   15288:	01b74463          	blt	a4,s11,0x15290
   1528c:	1900106f          	j	0x1641c
   15290:	000a8713          	mv	a4,s5
   15294:	0000d317          	auipc	t1,0xd
   15298:	05c30313          	add	t1,t1,92 # 0x222f0
   1529c:	000c0593          	mv	a1,s8
   152a0:	000d8a93          	mv	s5,s11
   152a4:	01000813          	li	a6,16
   152a8:	00700d13          	li	s10,7
   152ac:	01112c23          	sw	a7,24(sp)
   152b0:	01d12e23          	sw	t4,28(sp)
   152b4:	00030c13          	mv	s8,t1
   152b8:	00070d93          	mv	s11,a4
   152bc:	0180006f          	j	0x152d4
   152c0:	00268613          	add	a2,a3,2
   152c4:	00858593          	add	a1,a1,8
   152c8:	00070693          	mv	a3,a4
   152cc:	ff0a8a93          	add	s5,s5,-16
   152d0:	05585a63          	bge	a6,s5,0x15324
   152d4:	01078793          	add	a5,a5,16
   152d8:	00168713          	add	a4,a3,1
   152dc:	0185a023          	sw	s8,0(a1)
   152e0:	0105a223          	sw	a6,4(a1)
   152e4:	06f12423          	sw	a5,104(sp)
   152e8:	06e12223          	sw	a4,100(sp)
   152ec:	fced5ae3          	bge	s10,a4,0x152c0
   152f0:	56078663          	beqz	a5,0x1585c
   152f4:	06010613          	add	a2,sp,96
   152f8:	00098593          	mv	a1,s3
   152fc:	00040513          	mv	a0,s0
   15300:	8f1ff0ef          	jal	0x14bf0
   15304:	ee051ae3          	bnez	a0,0x151f8
   15308:	06412683          	lw	a3,100(sp)
   1530c:	01000813          	li	a6,16
   15310:	ff0a8a93          	add	s5,s5,-16
   15314:	06812783          	lw	a5,104(sp)
   15318:	000a0593          	mv	a1,s4
   1531c:	00168613          	add	a2,a3,1
   15320:	fb584ae3          	blt	a6,s5,0x152d4
   15324:	01812883          	lw	a7,24(sp)
   15328:	01c12e83          	lw	t4,28(sp)
   1532c:	000d8713          	mv	a4,s11
   15330:	000c0313          	mv	t1,s8
   15334:	000a8d93          	mv	s11,s5
   15338:	00058c13          	mv	s8,a1
   1533c:	00070a93          	mv	s5,a4
   15340:	01b787b3          	add	a5,a5,s11
   15344:	006c2023          	sw	t1,0(s8)
   15348:	01bc2223          	sw	s11,4(s8)
   1534c:	06f12423          	sw	a5,104(sp)
   15350:	06c12223          	sw	a2,100(sp)
   15354:	00700713          	li	a4,7
   15358:	d0c75ce3          	bge	a4,a2,0x15070
   1535c:	160788e3          	beqz	a5,0x15ccc
   15360:	06010613          	add	a2,sp,96
   15364:	00098593          	mv	a1,s3
   15368:	00040513          	mv	a0,s0
   1536c:	01d12e23          	sw	t4,28(sp)
   15370:	01112c23          	sw	a7,24(sp)
   15374:	87dff0ef          	jal	0x14bf0
   15378:	e80510e3          	bnez	a0,0x151f8
   1537c:	06812783          	lw	a5,104(sp)
   15380:	01c12e83          	lw	t4,28(sp)
   15384:	01812883          	lw	a7,24(sp)
   15388:	ce9ff06f          	j	0x15070
   1538c:	2007f713          	and	a4,a5,512
   15390:	e80716e3          	bnez	a4,0x1521c
   15394:	0589a503          	lw	a0,88(s3)
   15398:	b89fb0ef          	jal	0x10f20
   1539c:	00c99783          	lh	a5,12(s3)
   153a0:	e7dff06f          	j	0x1521c
   153a4:	000aa803          	lw	a6,0(s5)
   153a8:	040101a3          	sb	zero,67(sp)
   153ac:	000d8e13          	mv	t3,s11
   153b0:	004a8a93          	add	s5,s5,4
   153b4:	68080ae3          	beqz	a6,0x16248
   153b8:	05300793          	li	a5,83
   153bc:	3cf68ce3          	beq	a3,a5,0x15f94
   153c0:	010df793          	and	a5,s11,16
   153c4:	3c0798e3          	bnez	a5,0x15f94
   153c8:	00075463          	bgez	a4,0x153d0
   153cc:	7fd0006f          	j	0x163c8
   153d0:	00070613          	mv	a2,a4
   153d4:	00080513          	mv	a0,a6
   153d8:	00000593          	li	a1,0
   153dc:	03112223          	sw	a7,36(sp)
   153e0:	00e12e23          	sw	a4,28(sp)
   153e4:	01012c23          	sw	a6,24(sp)
   153e8:	03b12023          	sw	s11,32(sp)
   153ec:	0e8020ef          	jal	0x174d4
   153f0:	00a12823          	sw	a0,16(sp)
   153f4:	01812803          	lw	a6,24(sp)
   153f8:	01c12703          	lw	a4,28(sp)
   153fc:	02012e03          	lw	t3,32(sp)
   15400:	02412883          	lw	a7,36(sp)
   15404:	00051463          	bnez	a0,0x1540c
   15408:	7990006f          	j	0x163a0
   1540c:	41050d33          	sub	s10,a0,a6
   15410:	fffd4e93          	not	t4,s10
   15414:	41fede93          	sra	t4,t4,0x1f
   15418:	01dd7eb3          	and	t4,s10,t4
   1541c:	00012823          	sw	zero,16(sp)
   15420:	6dd0006f          	j	0x162fc
   15424:	04300793          	li	a5,67
   15428:	000d8e13          	mv	t3,s11
   1542c:	004a8d93          	add	s11,s5,4
   15430:	00f68663          	beq	a3,a5,0x1543c
   15434:	010e7793          	and	a5,t3,16
   15438:	280788e3          	beqz	a5,0x15ec8
   1543c:	00800613          	li	a2,8
   15440:	00000593          	li	a1,0
   15444:	05810513          	add	a0,sp,88
   15448:	01112e23          	sw	a7,28(sp)
   1544c:	01c12c23          	sw	t3,24(sp)
   15450:	ad5fb0ef          	jal	0x10f24
   15454:	000aa603          	lw	a2,0(s5)
   15458:	0ac10593          	add	a1,sp,172
   1545c:	05810693          	add	a3,sp,88
   15460:	00040513          	mv	a0,s0
   15464:	00b12823          	sw	a1,16(sp)
   15468:	6b0070ef          	jal	0x1cb18
   1546c:	fff00793          	li	a5,-1
   15470:	01012583          	lw	a1,16(sp)
   15474:	01812e03          	lw	t3,24(sp)
   15478:	01c12883          	lw	a7,28(sp)
   1547c:	00050d13          	mv	s10,a0
   15480:	00f51463          	bne	a0,a5,0x15488
   15484:	0200106f          	j	0x164a4
   15488:	fff54e93          	not	t4,a0
   1548c:	41fede93          	sra	t4,t4,0x1f
   15490:	01d57eb3          	and	t4,a0,t4
   15494:	040101a3          	sb	zero,67(sp)
   15498:	000d8a93          	mv	s5,s11
   1549c:	00058813          	mv	a6,a1
   154a0:	a79ff06f          	j	0x14f18
   154a4:	411008b3          	neg	a7,a7
   154a8:	000cc683          	lbu	a3,0(s9)
   154ac:	004ded93          	or	s11,s11,4
   154b0:	9f9ff06f          	j	0x14ea8
   154b4:	010dee13          	or	t3,s11,16
   154b8:	020e7793          	and	a5,t3,32
   154bc:	0c0788e3          	beqz	a5,0x15d8c
   154c0:	007a8a93          	add	s5,s5,7
   154c4:	ff8afa93          	and	s5,s5,-8
   154c8:	004aa683          	lw	a3,4(s5)
   154cc:	000aad83          	lw	s11,0(s5)
   154d0:	008a8a93          	add	s5,s5,8
   154d4:	00068d13          	mv	s10,a3
   154d8:	3006c263          	bltz	a3,0x157dc
   154dc:	32074063          	bltz	a4,0x157fc
   154e0:	01ade6b3          	or	a3,s11,s10
   154e4:	f7fe7e13          	and	t3,t3,-129
   154e8:	30069a63          	bnez	a3,0x157fc
   154ec:	68071ae3          	bnez	a4,0x16380
   154f0:	04314783          	lbu	a5,67(sp)
   154f4:	00012823          	sw	zero,16(sp)
   154f8:	00000e93          	li	t4,0
   154fc:	00000d13          	li	s10,0
   15500:	11010813          	add	a6,sp,272
   15504:	00078463          	beqz	a5,0x1550c
   15508:	001e8e93          	add	t4,t4,1
   1550c:	002e7f93          	and	t6,t3,2
   15510:	a00f8ae3          	beqz	t6,0x14f24
   15514:	002e8e93          	add	t4,t4,2
   15518:	00200f93          	li	t6,2
   1551c:	a09ff06f          	j	0x14f24
   15520:	000cc683          	lbu	a3,0(s9)
   15524:	06800793          	li	a5,104
   15528:	4ef686e3          	beq	a3,a5,0x16214
   1552c:	040ded93          	or	s11,s11,64
   15530:	979ff06f          	j	0x14ea8
   15534:	010de613          	or	a2,s11,16
   15538:	02067793          	and	a5,a2,32
   1553c:	000780e3          	beqz	a5,0x15d3c
   15540:	007a8a93          	add	s5,s5,7
   15544:	ff8afa93          	and	s5,s5,-8
   15548:	000aad83          	lw	s11,0(s5)
   1554c:	004aad03          	lw	s10,4(s5)
   15550:	008a8a93          	add	s5,s5,8
   15554:	040101a3          	sb	zero,67(sp)
   15558:	00060e13          	mv	t3,a2
   1555c:	2a074063          	bltz	a4,0x157fc
   15560:	01ade6b3          	or	a3,s11,s10
   15564:	f7f67e13          	and	t3,a2,-129
   15568:	28069a63          	bnez	a3,0x157fc
   1556c:	00100793          	li	a5,1
   15570:	06071e63          	bnez	a4,0x155ec
   15574:	f6079ee3          	bnez	a5,0x154f0
   15578:	00167d13          	and	s10,a2,1
   1557c:	0a0d0ce3          	beqz	s10,0x15e34
   15580:	03000793          	li	a5,48
   15584:	10f107a3          	sb	a5,271(sp)
   15588:	000d0e93          	mv	t4,s10
   1558c:	10f10813          	add	a6,sp,271
   15590:	2980006f          	j	0x15828
   15594:	02b00793          	li	a5,43
   15598:	000cc683          	lbu	a3,0(s9)
   1559c:	04f101a3          	sb	a5,67(sp)
   155a0:	909ff06f          	j	0x14ea8
   155a4:	010de693          	or	a3,s11,16
   155a8:	0206f793          	and	a5,a3,32
   155ac:	7a078c63          	beqz	a5,0x15d64
   155b0:	007a8a93          	add	s5,s5,7
   155b4:	ff8afa93          	and	s5,s5,-8
   155b8:	000aa783          	lw	a5,0(s5)
   155bc:	004aa583          	lw	a1,4(s5)
   155c0:	008a8a93          	add	s5,s5,8
   155c4:	040101a3          	sb	zero,67(sp)
   155c8:	bff6fe13          	and	t3,a3,-1025
   155cc:	02074c63          	bltz	a4,0x15604
   155d0:	00b7e633          	or	a2,a5,a1
   155d4:	b7f6f693          	and	a3,a3,-1153
   155d8:	420610e3          	bnez	a2,0x161f8
   155dc:	000e0613          	mv	a2,t3
   155e0:	00000793          	li	a5,0
   155e4:	00068e13          	mv	t3,a3
   155e8:	f80706e3          	beqz	a4,0x15574
   155ec:	00100693          	li	a3,1
   155f0:	58d788e3          	beq	a5,a3,0x16380
   155f4:	00200693          	li	a3,2
   155f8:	46d786e3          	beq	a5,a3,0x16264
   155fc:	00000793          	li	a5,0
   15600:	00000593          	li	a1,0
   15604:	11010813          	add	a6,sp,272
   15608:	01d59613          	sll	a2,a1,0x1d
   1560c:	0077f693          	and	a3,a5,7
   15610:	0037d793          	srl	a5,a5,0x3
   15614:	03068693          	add	a3,a3,48
   15618:	00f667b3          	or	a5,a2,a5
   1561c:	0035d593          	srl	a1,a1,0x3
   15620:	fed80fa3          	sb	a3,-1(a6)
   15624:	00b7e633          	or	a2,a5,a1
   15628:	00080513          	mv	a0,a6
   1562c:	fff80813          	add	a6,a6,-1
   15630:	fc061ce3          	bnez	a2,0x15608
   15634:	001e7793          	and	a5,t3,1
   15638:	54078e63          	beqz	a5,0x15b94
   1563c:	03000793          	li	a5,48
   15640:	54f68a63          	beq	a3,a5,0x15b94
   15644:	ffe50513          	add	a0,a0,-2
   15648:	fef80fa3          	sb	a5,-1(a6)
   1564c:	11010793          	add	a5,sp,272
   15650:	40a78d33          	sub	s10,a5,a0
   15654:	00070e93          	mv	t4,a4
   15658:	09a744e3          	blt	a4,s10,0x15ee0
   1565c:	00050813          	mv	a6,a0
   15660:	1c80006f          	j	0x15828
   15664:	000086b7          	lui	a3,0x8
   15668:	83068693          	add	a3,a3,-2000 # 0x7830
   1566c:	04d11223          	sh	a3,68(sp)
   15670:	0000c697          	auipc	a3,0xc
   15674:	5f868693          	add	a3,a3,1528 # 0x21c68
   15678:	000aa783          	lw	a5,0(s5)
   1567c:	00000593          	li	a1,0
   15680:	002dee13          	or	t3,s11,2
   15684:	004a8a93          	add	s5,s5,4
   15688:	00d12a23          	sw	a3,20(sp)
   1568c:	040101a3          	sb	zero,67(sp)
   15690:	4c074863          	bltz	a4,0x15b60
   15694:	00b7e6b3          	or	a3,a5,a1
   15698:	f7fe7513          	and	a0,t3,-129
   1569c:	4a069c63          	bnez	a3,0x15b54
   156a0:	000e0613          	mv	a2,t3
   156a4:	00200793          	li	a5,2
   156a8:	00050e13          	mv	t3,a0
   156ac:	ec5ff06f          	j	0x15570
   156b0:	00040513          	mv	a0,s0
   156b4:	00e12c23          	sw	a4,24(sp)
   156b8:	01112823          	sw	a7,16(sp)
   156bc:	4b9020ef          	jal	0x18374
   156c0:	00452783          	lw	a5,4(a0)
   156c4:	00078513          	mv	a0,a5
   156c8:	02f12a23          	sw	a5,52(sp)
   156cc:	7b9020ef          	jal	0x18684
   156d0:	00050793          	mv	a5,a0
   156d4:	00040513          	mv	a0,s0
   156d8:	02f12823          	sw	a5,48(sp)
   156dc:	499020ef          	jal	0x18374
   156e0:	00852703          	lw	a4,8(a0)
   156e4:	03012783          	lw	a5,48(sp)
   156e8:	01012883          	lw	a7,16(sp)
   156ec:	02e12623          	sw	a4,44(sp)
   156f0:	01812703          	lw	a4,24(sp)
   156f4:	a2078ee3          	beqz	a5,0x15130
   156f8:	02c12783          	lw	a5,44(sp)
   156fc:	000cc683          	lbu	a3,0(s9)
   15700:	fa078463          	beqz	a5,0x14ea8
   15704:	0007c783          	lbu	a5,0(a5)
   15708:	fa078063          	beqz	a5,0x14ea8
   1570c:	400ded93          	or	s11,s11,1024
   15710:	f98ff06f          	j	0x14ea8
   15714:	020df793          	and	a5,s11,32
   15718:	78079263          	bnez	a5,0x15e9c
   1571c:	010df793          	and	a5,s11,16
   15720:	30079ae3          	bnez	a5,0x16234
   15724:	040df793          	and	a5,s11,64
   15728:	400796e3          	bnez	a5,0x16334
   1572c:	200dfe13          	and	t3,s11,512
   15730:	300e02e3          	beqz	t3,0x16234
   15734:	000aa783          	lw	a5,0(s5)
   15738:	00c12703          	lw	a4,12(sp)
   1573c:	004a8a93          	add	s5,s5,4
   15740:	00e78023          	sb	a4,0(a5)
   15744:	efcff06f          	j	0x14e40
   15748:	000cc683          	lbu	a3,0(s9)
   1574c:	06c00793          	li	a5,108
   15750:	2cf68ae3          	beq	a3,a5,0x16224
   15754:	010ded93          	or	s11,s11,16
   15758:	f50ff06f          	j	0x14ea8
   1575c:	000cc683          	lbu	a3,0(s9)
   15760:	080ded93          	or	s11,s11,128
   15764:	f44ff06f          	j	0x14ea8
   15768:	000cc683          	lbu	a3,0(s9)
   1576c:	02a00793          	li	a5,42
   15770:	001c8593          	add	a1,s9,1
   15774:	54f680e3          	beq	a3,a5,0x164b4
   15778:	fd068793          	add	a5,a3,-48
   1577c:	00900613          	li	a2,9
   15780:	00000713          	li	a4,0
   15784:	00900513          	li	a0,9
   15788:	02f66463          	bltu	a2,a5,0x157b0
   1578c:	0005c683          	lbu	a3,0(a1)
   15790:	00271613          	sll	a2,a4,0x2
   15794:	00e60733          	add	a4,a2,a4
   15798:	00171713          	sll	a4,a4,0x1
   1579c:	00f70733          	add	a4,a4,a5
   157a0:	fd068793          	add	a5,a3,-48
   157a4:	00158593          	add	a1,a1,1
   157a8:	fef572e3          	bgeu	a0,a5,0x1578c
   157ac:	74074063          	bltz	a4,0x15eec
   157b0:	00058c93          	mv	s9,a1
   157b4:	ef8ff06f          	j	0x14eac
   157b8:	000cc683          	lbu	a3,0(s9)
   157bc:	001ded93          	or	s11,s11,1
   157c0:	ee8ff06f          	j	0x14ea8
   157c4:	04314783          	lbu	a5,67(sp)
   157c8:	000cc683          	lbu	a3,0(s9)
   157cc:	ec079e63          	bnez	a5,0x14ea8
   157d0:	02000793          	li	a5,32
   157d4:	04f101a3          	sb	a5,67(sp)
   157d8:	ed0ff06f          	j	0x14ea8
   157dc:	02d00613          	li	a2,45
   157e0:	01b036b3          	snez	a3,s11
   157e4:	41a000b3          	neg	ra,s10
   157e8:	04c101a3          	sb	a2,67(sp)
   157ec:	40d08d33          	sub	s10,ra,a3
   157f0:	41b00db3          	neg	s11,s11
   157f4:	00074463          	bltz	a4,0x157fc
   157f8:	f7fe7e13          	and	t3,t3,-129
   157fc:	120d14e3          	bnez	s10,0x16124
   15800:	00900693          	li	a3,9
   15804:	13b6e0e3          	bltu	a3,s11,0x16124
   15808:	030d8793          	add	a5,s11,48
   1580c:	0ff7f793          	zext.b	a5,a5
   15810:	10f107a3          	sb	a5,271(sp)
   15814:	00070e93          	mv	t4,a4
   15818:	00e04463          	bgtz	a4,0x15820
   1581c:	00100e93          	li	t4,1
   15820:	00100d13          	li	s10,1
   15824:	10f10813          	add	a6,sp,271
   15828:	04314783          	lbu	a5,67(sp)
   1582c:	00012823          	sw	zero,16(sp)
   15830:	cc079ce3          	bnez	a5,0x15508
   15834:	cd9ff06f          	j	0x1550c
   15838:	00100713          	li	a4,1
   1583c:	000d0793          	mv	a5,s10
   15840:	07012623          	sw	a6,108(sp)
   15844:	07a12823          	sw	s10,112(sp)
   15848:	07a12423          	sw	s10,104(sp)
   1584c:	06e12223          	sw	a4,100(sp)
   15850:	000a0c13          	mv	s8,s4
   15854:	008c0c13          	add	s8,s8,8
   15858:	809ff06f          	j	0x15060
   1585c:	00100613          	li	a2,1
   15860:	00000693          	li	a3,0
   15864:	000a0593          	mv	a1,s4
   15868:	a65ff06f          	j	0x152cc
   1586c:	41d88db3          	sub	s11,a7,t4
   15870:	f9b05a63          	blez	s11,0x15004
   15874:	01000593          	li	a1,16
   15878:	3bb5dae3          	bge	a1,s11,0x1642c
   1587c:	0000df97          	auipc	t6,0xd
   15880:	a64f8f93          	add	t6,t6,-1436 # 0x222e0
   15884:	02e12223          	sw	a4,36(sp)
   15888:	000a8713          	mv	a4,s5
   1588c:	000c0693          	mv	a3,s8
   15890:	000d8a93          	mv	s5,s11
   15894:	01000f13          	li	t5,16
   15898:	00700293          	li	t0,7
   1589c:	01c12c23          	sw	t3,24(sp)
   158a0:	01012e23          	sw	a6,28(sp)
   158a4:	03112023          	sw	a7,32(sp)
   158a8:	03d12423          	sw	t4,40(sp)
   158ac:	000f8c13          	mv	s8,t6
   158b0:	00070d93          	mv	s11,a4
   158b4:	0180006f          	j	0x158cc
   158b8:	00260513          	add	a0,a2,2
   158bc:	00868693          	add	a3,a3,8
   158c0:	00070613          	mv	a2,a4
   158c4:	ff0a8a93          	add	s5,s5,-16
   158c8:	055f5c63          	bge	t5,s5,0x15920
   158cc:	01078793          	add	a5,a5,16
   158d0:	00160713          	add	a4,a2,1
   158d4:	0186a023          	sw	s8,0(a3)
   158d8:	01e6a223          	sw	t5,4(a3)
   158dc:	06f12423          	sw	a5,104(sp)
   158e0:	06e12223          	sw	a4,100(sp)
   158e4:	fce2dae3          	bge	t0,a4,0x158b8
   158e8:	1c078663          	beqz	a5,0x15ab4
   158ec:	06010613          	add	a2,sp,96
   158f0:	00098593          	mv	a1,s3
   158f4:	00040513          	mv	a0,s0
   158f8:	af8ff0ef          	jal	0x14bf0
   158fc:	8e051ee3          	bnez	a0,0x151f8
   15900:	06412603          	lw	a2,100(sp)
   15904:	01000f13          	li	t5,16
   15908:	ff0a8a93          	add	s5,s5,-16
   1590c:	06812783          	lw	a5,104(sp)
   15910:	000a0693          	mv	a3,s4
   15914:	00160513          	add	a0,a2,1
   15918:	00700293          	li	t0,7
   1591c:	fb5f48e3          	blt	t5,s5,0x158cc
   15920:	01812e03          	lw	t3,24(sp)
   15924:	01c12803          	lw	a6,28(sp)
   15928:	02012883          	lw	a7,32(sp)
   1592c:	02412703          	lw	a4,36(sp)
   15930:	02812e83          	lw	t4,40(sp)
   15934:	000d8613          	mv	a2,s11
   15938:	000c0f93          	mv	t6,s8
   1593c:	000a8d93          	mv	s11,s5
   15940:	00068c13          	mv	s8,a3
   15944:	00060a93          	mv	s5,a2
   15948:	01b787b3          	add	a5,a5,s11
   1594c:	01fc2023          	sw	t6,0(s8)
   15950:	01bc2223          	sw	s11,4(s8)
   15954:	06f12423          	sw	a5,104(sp)
   15958:	06a12223          	sw	a0,100(sp)
   1595c:	00700613          	li	a2,7
   15960:	4ea65863          	bge	a2,a0,0x15e50
   15964:	1a0786e3          	beqz	a5,0x16310
   15968:	06010613          	add	a2,sp,96
   1596c:	00098593          	mv	a1,s3
   15970:	00040513          	mv	a0,s0
   15974:	03d12423          	sw	t4,40(sp)
   15978:	02e12223          	sw	a4,36(sp)
   1597c:	03112023          	sw	a7,32(sp)
   15980:	01012e23          	sw	a6,28(sp)
   15984:	01c12c23          	sw	t3,24(sp)
   15988:	a68ff0ef          	jal	0x14bf0
   1598c:	860516e3          	bnez	a0,0x151f8
   15990:	02412703          	lw	a4,36(sp)
   15994:	06412603          	lw	a2,100(sp)
   15998:	06812783          	lw	a5,104(sp)
   1599c:	41a70733          	sub	a4,a4,s10
   159a0:	02812e83          	lw	t4,40(sp)
   159a4:	02012883          	lw	a7,32(sp)
   159a8:	01c12803          	lw	a6,28(sp)
   159ac:	01812e03          	lw	t3,24(sp)
   159b0:	000a0c13          	mv	s8,s4
   159b4:	00160f13          	add	t5,a2,1
   159b8:	e4e05a63          	blez	a4,0x1500c
   159bc:	01000593          	li	a1,16
   159c0:	0000df97          	auipc	t6,0xd
   159c4:	920f8f93          	add	t6,t6,-1760 # 0x222e0
   159c8:	0ae5da63          	bge	a1,a4,0x15a7c
   159cc:	000c0593          	mv	a1,s8
   159d0:	03512423          	sw	s5,40(sp)
   159d4:	01000d93          	li	s11,16
   159d8:	00700293          	li	t0,7
   159dc:	01c12c23          	sw	t3,24(sp)
   159e0:	01012e23          	sw	a6,28(sp)
   159e4:	03112023          	sw	a7,32(sp)
   159e8:	03d12223          	sw	t4,36(sp)
   159ec:	00070a93          	mv	s5,a4
   159f0:	000b0c13          	mv	s8,s6
   159f4:	0180006f          	j	0x15a0c
   159f8:	00260f13          	add	t5,a2,2
   159fc:	00858593          	add	a1,a1,8
   15a00:	00068613          	mv	a2,a3
   15a04:	ff0a8a93          	add	s5,s5,-16
   15a08:	055dda63          	bge	s11,s5,0x15a5c
   15a0c:	01078793          	add	a5,a5,16
   15a10:	00160693          	add	a3,a2,1
   15a14:	0165a023          	sw	s6,0(a1)
   15a18:	01b5a223          	sw	s11,4(a1)
   15a1c:	06f12423          	sw	a5,104(sp)
   15a20:	06d12223          	sw	a3,100(sp)
   15a24:	fcd2dae3          	bge	t0,a3,0x159f8
   15a28:	06078e63          	beqz	a5,0x15aa4
   15a2c:	06010613          	add	a2,sp,96
   15a30:	00098593          	mv	a1,s3
   15a34:	00040513          	mv	a0,s0
   15a38:	9b8ff0ef          	jal	0x14bf0
   15a3c:	fa051e63          	bnez	a0,0x151f8
   15a40:	06412603          	lw	a2,100(sp)
   15a44:	ff0a8a93          	add	s5,s5,-16
   15a48:	06812783          	lw	a5,104(sp)
   15a4c:	000a0593          	mv	a1,s4
   15a50:	00160f13          	add	t5,a2,1
   15a54:	00700293          	li	t0,7
   15a58:	fb5dcae3          	blt	s11,s5,0x15a0c
   15a5c:	000a8713          	mv	a4,s5
   15a60:	01812e03          	lw	t3,24(sp)
   15a64:	01c12803          	lw	a6,28(sp)
   15a68:	02012883          	lw	a7,32(sp)
   15a6c:	02412e83          	lw	t4,36(sp)
   15a70:	02812a83          	lw	s5,40(sp)
   15a74:	000c0f93          	mv	t6,s8
   15a78:	00058c13          	mv	s8,a1
   15a7c:	00e787b3          	add	a5,a5,a4
   15a80:	00ec2223          	sw	a4,4(s8)
   15a84:	01fc2023          	sw	t6,0(s8)
   15a88:	06f12423          	sw	a5,104(sp)
   15a8c:	07e12223          	sw	t5,100(sp)
   15a90:	00700713          	li	a4,7
   15a94:	25e74863          	blt	a4,t5,0x15ce4
   15a98:	008c0c13          	add	s8,s8,8
   15a9c:	001f0f13          	add	t5,t5,1
   15aa0:	d6cff06f          	j	0x1500c
   15aa4:	00100f13          	li	t5,1
   15aa8:	00000613          	li	a2,0
   15aac:	000a0593          	mv	a1,s4
   15ab0:	f55ff06f          	j	0x15a04
   15ab4:	00100513          	li	a0,1
   15ab8:	00000613          	li	a2,0
   15abc:	000a0693          	mv	a3,s4
   15ac0:	e05ff06f          	j	0x158c4
   15ac4:	06078263          	beqz	a5,0x15b28
   15ac8:	06010613          	add	a2,sp,96
   15acc:	00098593          	mv	a1,s3
   15ad0:	00040513          	mv	a0,s0
   15ad4:	03d12e23          	sw	t4,60(sp)
   15ad8:	02e12c23          	sw	a4,56(sp)
   15adc:	03112423          	sw	a7,40(sp)
   15ae0:	03012223          	sw	a6,36(sp)
   15ae4:	02512023          	sw	t0,32(sp)
   15ae8:	01f12e23          	sw	t6,28(sp)
   15aec:	01c12c23          	sw	t3,24(sp)
   15af0:	900ff0ef          	jal	0x14bf0
   15af4:	f0051263          	bnez	a0,0x151f8
   15af8:	06412603          	lw	a2,100(sp)
   15afc:	06812783          	lw	a5,104(sp)
   15b00:	03c12e83          	lw	t4,60(sp)
   15b04:	03812703          	lw	a4,56(sp)
   15b08:	02812883          	lw	a7,40(sp)
   15b0c:	02412803          	lw	a6,36(sp)
   15b10:	02012283          	lw	t0,32(sp)
   15b14:	01c12f83          	lw	t6,28(sp)
   15b18:	01812e03          	lw	t3,24(sp)
   15b1c:	000a0c13          	mv	s8,s4
   15b20:	00160f13          	add	t5,a2,1
   15b24:	c58ff06f          	j	0x14f7c
   15b28:	380f8863          	beqz	t6,0x15eb8
   15b2c:	04410793          	add	a5,sp,68
   15b30:	06f12623          	sw	a5,108(sp)
   15b34:	00200793          	li	a5,2
   15b38:	06f12823          	sw	a5,112(sp)
   15b3c:	00100f13          	li	t5,1
   15b40:	000a0c13          	mv	s8,s4
   15b44:	000f0613          	mv	a2,t5
   15b48:	008c0c13          	add	s8,s8,8
   15b4c:	001f0f13          	add	t5,t5,1
   15b50:	cacff06f          	j	0x14ffc
   15b54:	00200693          	li	a3,2
   15b58:	00050e13          	mv	t3,a0
   15b5c:	aa0684e3          	beqz	a3,0x15604
   15b60:	01412503          	lw	a0,20(sp)
   15b64:	11010813          	add	a6,sp,272
   15b68:	00f7f693          	and	a3,a5,15
   15b6c:	00d506b3          	add	a3,a0,a3
   15b70:	0006c603          	lbu	a2,0(a3)
   15b74:	0047d793          	srl	a5,a5,0x4
   15b78:	01c59693          	sll	a3,a1,0x1c
   15b7c:	00f6e7b3          	or	a5,a3,a5
   15b80:	0045d593          	srl	a1,a1,0x4
   15b84:	fec80fa3          	sb	a2,-1(a6)
   15b88:	00b7e6b3          	or	a3,a5,a1
   15b8c:	fff80813          	add	a6,a6,-1
   15b90:	fc069ce3          	bnez	a3,0x15b68
   15b94:	11010793          	add	a5,sp,272
   15b98:	41078d33          	sub	s10,a5,a6
   15b9c:	00070e93          	mv	t4,a4
   15ba0:	c9a754e3          	bge	a4,s10,0x15828
   15ba4:	000d0e93          	mv	t4,s10
   15ba8:	c81ff06f          	j	0x15828
   15bac:	01000513          	li	a0,16
   15bb0:	01b554e3          	bge	a0,s11,0x163b8
   15bb4:	000a8693          	mv	a3,s5
   15bb8:	0000c317          	auipc	t1,0xc
   15bbc:	73830313          	add	t1,t1,1848 # 0x222f0
   15bc0:	02e12c23          	sw	a4,56(sp)
   15bc4:	000d8a93          	mv	s5,s11
   15bc8:	000c0713          	mv	a4,s8
   15bcc:	01000f13          	li	t5,16
   15bd0:	00700393          	li	t2,7
   15bd4:	01c12c23          	sw	t3,24(sp)
   15bd8:	01f12e23          	sw	t6,28(sp)
   15bdc:	02512023          	sw	t0,32(sp)
   15be0:	03012223          	sw	a6,36(sp)
   15be4:	03112423          	sw	a7,40(sp)
   15be8:	03d12e23          	sw	t4,60(sp)
   15bec:	00030c13          	mv	s8,t1
   15bf0:	00068d93          	mv	s11,a3
   15bf4:	01c0006f          	j	0x15c10
   15bf8:	00260513          	add	a0,a2,2
   15bfc:	00870713          	add	a4,a4,8
   15c00:	00058613          	mv	a2,a1
   15c04:	ff0a8a93          	add	s5,s5,-16
   15c08:	055f5c63          	bge	t5,s5,0x15c60
   15c0c:	00160593          	add	a1,a2,1
   15c10:	01078793          	add	a5,a5,16
   15c14:	01872023          	sw	s8,0(a4)
   15c18:	01e72223          	sw	t5,4(a4)
   15c1c:	06f12423          	sw	a5,104(sp)
   15c20:	06b12223          	sw	a1,100(sp)
   15c24:	fcb3dae3          	bge	t2,a1,0x15bf8
   15c28:	08078a63          	beqz	a5,0x15cbc
   15c2c:	06010613          	add	a2,sp,96
   15c30:	00098593          	mv	a1,s3
   15c34:	00040513          	mv	a0,s0
   15c38:	fb9fe0ef          	jal	0x14bf0
   15c3c:	da051e63          	bnez	a0,0x151f8
   15c40:	06412603          	lw	a2,100(sp)
   15c44:	01000f13          	li	t5,16
   15c48:	ff0a8a93          	add	s5,s5,-16
   15c4c:	06812783          	lw	a5,104(sp)
   15c50:	000a0713          	mv	a4,s4
   15c54:	00160513          	add	a0,a2,1
   15c58:	00700393          	li	t2,7
   15c5c:	fb5f48e3          	blt	t5,s5,0x15c0c
   15c60:	000c0313          	mv	t1,s8
   15c64:	01812e03          	lw	t3,24(sp)
   15c68:	00070c13          	mv	s8,a4
   15c6c:	01c12f83          	lw	t6,28(sp)
   15c70:	02012283          	lw	t0,32(sp)
   15c74:	02412803          	lw	a6,36(sp)
   15c78:	02812883          	lw	a7,40(sp)
   15c7c:	03c12e83          	lw	t4,60(sp)
   15c80:	03812703          	lw	a4,56(sp)
   15c84:	000d8693          	mv	a3,s11
   15c88:	000a8d93          	mv	s11,s5
   15c8c:	00068a93          	mv	s5,a3
   15c90:	01b787b3          	add	a5,a5,s11
   15c94:	006c2023          	sw	t1,0(s8)
   15c98:	01bc2223          	sw	s11,4(s8)
   15c9c:	06f12423          	sw	a5,104(sp)
   15ca0:	06a12223          	sw	a0,100(sp)
   15ca4:	00700613          	li	a2,7
   15ca8:	12a64063          	blt	a2,a0,0x15dc8
   15cac:	008c0c13          	add	s8,s8,8
   15cb0:	00150f13          	add	t5,a0,1
   15cb4:	00050613          	mv	a2,a0
   15cb8:	a8cff06f          	j	0x14f44
   15cbc:	00000613          	li	a2,0
   15cc0:	00100513          	li	a0,1
   15cc4:	000a0713          	mv	a4,s4
   15cc8:	f3dff06f          	j	0x15c04
   15ccc:	01d8d463          	bge	a7,t4,0x15cd4
   15cd0:	000e8893          	mv	a7,t4
   15cd4:	00c12783          	lw	a5,12(sp)
   15cd8:	011787b3          	add	a5,a5,a7
   15cdc:	00f12623          	sw	a5,12(sp)
   15ce0:	ba8ff06f          	j	0x15088
   15ce4:	b4078ae3          	beqz	a5,0x15838
   15ce8:	06010613          	add	a2,sp,96
   15cec:	00098593          	mv	a1,s3
   15cf0:	00040513          	mv	a0,s0
   15cf4:	03d12223          	sw	t4,36(sp)
   15cf8:	03112023          	sw	a7,32(sp)
   15cfc:	01012e23          	sw	a6,28(sp)
   15d00:	01c12c23          	sw	t3,24(sp)
   15d04:	eedfe0ef          	jal	0x14bf0
   15d08:	ce051863          	bnez	a0,0x151f8
   15d0c:	06412f03          	lw	t5,100(sp)
   15d10:	06812783          	lw	a5,104(sp)
   15d14:	02412e83          	lw	t4,36(sp)
   15d18:	02012883          	lw	a7,32(sp)
   15d1c:	01c12803          	lw	a6,28(sp)
   15d20:	01812e03          	lw	t3,24(sp)
   15d24:	000a0c13          	mv	s8,s4
   15d28:	001f0f13          	add	t5,t5,1
   15d2c:	ae0ff06f          	j	0x1500c
   15d30:	06012223          	sw	zero,100(sp)
   15d34:	000a0c13          	mv	s8,s4
   15d38:	c84ff06f          	j	0x151bc
   15d3c:	01067693          	and	a3,a2,16
   15d40:	000aa783          	lw	a5,0(s5)
   15d44:	004a8a93          	add	s5,s5,4
   15d48:	12069c63          	bnez	a3,0x15e80
   15d4c:	04067693          	and	a3,a2,64
   15d50:	12068463          	beqz	a3,0x15e78
   15d54:	01079d93          	sll	s11,a5,0x10
   15d58:	010ddd93          	srl	s11,s11,0x10
   15d5c:	00000d13          	li	s10,0
   15d60:	ff4ff06f          	j	0x15554
   15d64:	0106f613          	and	a2,a3,16
   15d68:	000aa783          	lw	a5,0(s5)
   15d6c:	004a8a93          	add	s5,s5,4
   15d70:	12061263          	bnez	a2,0x15e94
   15d74:	0406f613          	and	a2,a3,64
   15d78:	10060a63          	beqz	a2,0x15e8c
   15d7c:	01079793          	sll	a5,a5,0x10
   15d80:	0107d793          	srl	a5,a5,0x10
   15d84:	00000593          	li	a1,0
   15d88:	83dff06f          	j	0x155c4
   15d8c:	010e7693          	and	a3,t3,16
   15d90:	000aa783          	lw	a5,0(s5)
   15d94:	004a8a93          	add	s5,s5,4
   15d98:	0c069863          	bnez	a3,0x15e68
   15d9c:	040e7693          	and	a3,t3,64
   15da0:	0c068063          	beqz	a3,0x15e60
   15da4:	01079d93          	sll	s11,a5,0x10
   15da8:	410ddd93          	sra	s11,s11,0x10
   15dac:	41fddd13          	sra	s10,s11,0x1f
   15db0:	000d0693          	mv	a3,s10
   15db4:	f24ff06f          	j	0x154d8
   15db8:	00100f13          	li	t5,1
   15dbc:	00000613          	li	a2,0
   15dc0:	000a0c13          	mv	s8,s4
   15dc4:	a38ff06f          	j	0x14ffc
   15dc8:	1a078463          	beqz	a5,0x15f70
   15dcc:	06010613          	add	a2,sp,96
   15dd0:	00098593          	mv	a1,s3
   15dd4:	00040513          	mv	a0,s0
   15dd8:	03d12e23          	sw	t4,60(sp)
   15ddc:	02e12c23          	sw	a4,56(sp)
   15de0:	03112423          	sw	a7,40(sp)
   15de4:	03012223          	sw	a6,36(sp)
   15de8:	02512023          	sw	t0,32(sp)
   15dec:	01f12e23          	sw	t6,28(sp)
   15df0:	01c12c23          	sw	t3,24(sp)
   15df4:	dfdfe0ef          	jal	0x14bf0
   15df8:	c0051063          	bnez	a0,0x151f8
   15dfc:	06412603          	lw	a2,100(sp)
   15e00:	06812783          	lw	a5,104(sp)
   15e04:	03c12e83          	lw	t4,60(sp)
   15e08:	03812703          	lw	a4,56(sp)
   15e0c:	02812883          	lw	a7,40(sp)
   15e10:	02412803          	lw	a6,36(sp)
   15e14:	02012283          	lw	t0,32(sp)
   15e18:	01c12f83          	lw	t6,28(sp)
   15e1c:	01812e03          	lw	t3,24(sp)
   15e20:	000a0c13          	mv	s8,s4
   15e24:	00160f13          	add	t5,a2,1
   15e28:	91cff06f          	j	0x14f44
   15e2c:	000d8e13          	mv	t3,s11
   15e30:	e88ff06f          	j	0x154b8
   15e34:	00000e93          	li	t4,0
   15e38:	11010813          	add	a6,sp,272
   15e3c:	9edff06f          	j	0x15828
   15e40:	0589a503          	lw	a0,88(s3)
   15e44:	8c4fb0ef          	jal	0x10f08
   15e48:	00c99783          	lh	a5,12(s3)
   15e4c:	f45fe06f          	j	0x14d90
   15e50:	008c0c13          	add	s8,s8,8
   15e54:	00150f13          	add	t5,a0,1
   15e58:	00050613          	mv	a2,a0
   15e5c:	9a8ff06f          	j	0x15004
   15e60:	200e7693          	and	a3,t3,512
   15e64:	50069463          	bnez	a3,0x1636c
   15e68:	41f7dd13          	sra	s10,a5,0x1f
   15e6c:	00078d93          	mv	s11,a5
   15e70:	000d0693          	mv	a3,s10
   15e74:	e64ff06f          	j	0x154d8
   15e78:	20067693          	and	a3,a2,512
   15e7c:	4c069663          	bnez	a3,0x16348
   15e80:	00078d93          	mv	s11,a5
   15e84:	00000d13          	li	s10,0
   15e88:	eccff06f          	j	0x15554
   15e8c:	2006f613          	and	a2,a3,512
   15e90:	4c061863          	bnez	a2,0x16360
   15e94:	00000593          	li	a1,0
   15e98:	f2cff06f          	j	0x155c4
   15e9c:	00c12683          	lw	a3,12(sp)
   15ea0:	000aa783          	lw	a5,0(s5)
   15ea4:	004a8a93          	add	s5,s5,4
   15ea8:	41f6d713          	sra	a4,a3,0x1f
   15eac:	00d7a023          	sw	a3,0(a5)
   15eb0:	00e7a223          	sw	a4,4(a5)
   15eb4:	f8dfe06f          	j	0x14e40
   15eb8:	00000613          	li	a2,0
   15ebc:	00100f13          	li	t5,1
   15ec0:	000a0c13          	mv	s8,s4
   15ec4:	938ff06f          	j	0x14ffc
   15ec8:	000aa783          	lw	a5,0(s5)
   15ecc:	00100e93          	li	t4,1
   15ed0:	00100d13          	li	s10,1
   15ed4:	0af10623          	sb	a5,172(sp)
   15ed8:	0ac10593          	add	a1,sp,172
   15edc:	db8ff06f          	j	0x15494
   15ee0:	000d0e93          	mv	t4,s10
   15ee4:	00050813          	mv	a6,a0
   15ee8:	941ff06f          	j	0x15828
   15eec:	fff00713          	li	a4,-1
   15ef0:	00058c93          	mv	s9,a1
   15ef4:	fb9fe06f          	j	0x14eac
   15ef8:	000d8613          	mv	a2,s11
   15efc:	e3cff06f          	j	0x15538
   15f00:	0000c797          	auipc	a5,0xc
   15f04:	d7c78793          	add	a5,a5,-644 # 0x21c7c
   15f08:	000d8e13          	mv	t3,s11
   15f0c:	00f12a23          	sw	a5,20(sp)
   15f10:	020e7793          	and	a5,t3,32
   15f14:	1c078c63          	beqz	a5,0x160ec
   15f18:	007a8a93          	add	s5,s5,7
   15f1c:	ff8afa93          	and	s5,s5,-8
   15f20:	000aa783          	lw	a5,0(s5)
   15f24:	004aa583          	lw	a1,4(s5)
   15f28:	008a8a93          	add	s5,s5,8
   15f2c:	001e7613          	and	a2,t3,1
   15f30:	00060e63          	beqz	a2,0x15f4c
   15f34:	00b7e633          	or	a2,a5,a1
   15f38:	00060a63          	beqz	a2,0x15f4c
   15f3c:	03000613          	li	a2,48
   15f40:	04c10223          	sb	a2,68(sp)
   15f44:	04d102a3          	sb	a3,69(sp)
   15f48:	002e6e13          	or	t3,t3,2
   15f4c:	bffe7e13          	and	t3,t3,-1025
   15f50:	f3cff06f          	j	0x1568c
   15f54:	000d8693          	mv	a3,s11
   15f58:	e50ff06f          	j	0x155a8
   15f5c:	0000c797          	auipc	a5,0xc
   15f60:	d0c78793          	add	a5,a5,-756 # 0x21c68
   15f64:	000d8e13          	mv	t3,s11
   15f68:	00f12a23          	sw	a5,20(sp)
   15f6c:	fa5ff06f          	j	0x15f10
   15f70:	04314603          	lbu	a2,67(sp)
   15f74:	3a060a63          	beqz	a2,0x16328
   15f78:	04310793          	add	a5,sp,67
   15f7c:	06f12623          	sw	a5,108(sp)
   15f80:	00100793          	li	a5,1
   15f84:	06f12823          	sw	a5,112(sp)
   15f88:	00100f13          	li	t5,1
   15f8c:	000a0c13          	mv	s8,s4
   15f90:	fe1fe06f          	j	0x14f70
   15f94:	00800613          	li	a2,8
   15f98:	00000593          	li	a1,0
   15f9c:	05810513          	add	a0,sp,88
   15fa0:	02e12023          	sw	a4,32(sp)
   15fa4:	01112e23          	sw	a7,28(sp)
   15fa8:	01c12c23          	sw	t3,24(sp)
   15fac:	05012623          	sw	a6,76(sp)
   15fb0:	01012823          	sw	a6,16(sp)
   15fb4:	f71fa0ef          	jal	0x10f24
   15fb8:	02012703          	lw	a4,32(sp)
   15fbc:	01012803          	lw	a6,16(sp)
   15fc0:	01812e03          	lw	t3,24(sp)
   15fc4:	01c12883          	lw	a7,28(sp)
   15fc8:	2a074463          	bltz	a4,0x16270
   15fcc:	00000d93          	li	s11,0
   15fd0:	00000d13          	li	s10,0
   15fd4:	01812823          	sw	s8,16(sp)
   15fd8:	01012e23          	sw	a6,28(sp)
   15fdc:	000d8c13          	mv	s8,s11
   15fe0:	03112023          	sw	a7,32(sp)
   15fe4:	000c8d93          	mv	s11,s9
   15fe8:	000a8c93          	mv	s9,s5
   15fec:	000d0a93          	mv	s5,s10
   15ff0:	00098d13          	mv	s10,s3
   15ff4:	00070993          	mv	s3,a4
   15ff8:	0300006f          	j	0x16028
   15ffc:	05810693          	add	a3,sp,88
   16000:	0ac10593          	add	a1,sp,172
   16004:	00040513          	mv	a0,s0
   16008:	311060ef          	jal	0x1cb18
   1600c:	fff00793          	li	a5,-1
   16010:	48f50063          	beq	a0,a5,0x16490
   16014:	00aa87b3          	add	a5,s5,a0
   16018:	02f9c063          	blt	s3,a5,0x16038
   1601c:	004c0c13          	add	s8,s8,4
   16020:	45378463          	beq	a5,s3,0x16468
   16024:	00078a93          	mv	s5,a5
   16028:	04c12783          	lw	a5,76(sp)
   1602c:	018787b3          	add	a5,a5,s8
   16030:	0007a603          	lw	a2,0(a5)
   16034:	fc0614e3          	bnez	a2,0x15ffc
   16038:	01012c03          	lw	s8,16(sp)
   1603c:	01812e03          	lw	t3,24(sp)
   16040:	01c12803          	lw	a6,28(sp)
   16044:	02012883          	lw	a7,32(sp)
   16048:	000d0993          	mv	s3,s10
   1604c:	000a8d13          	mv	s10,s5
   16050:	000c8a93          	mv	s5,s9
   16054:	000d8c93          	mv	s9,s11
   16058:	280d0e63          	beqz	s10,0x162f4
   1605c:	06300793          	li	a5,99
   16060:	33a7d463          	bge	a5,s10,0x16388
   16064:	001d0593          	add	a1,s10,1
   16068:	00040513          	mv	a0,s0
   1606c:	01112c23          	sw	a7,24(sp)
   16070:	01c12823          	sw	t3,16(sp)
   16074:	dfcfb0ef          	jal	0x11670
   16078:	01012e03          	lw	t3,16(sp)
   1607c:	01812883          	lw	a7,24(sp)
   16080:	00050813          	mv	a6,a0
   16084:	42050063          	beqz	a0,0x164a4
   16088:	00a12823          	sw	a0,16(sp)
   1608c:	00800613          	li	a2,8
   16090:	00000593          	li	a1,0
   16094:	05810513          	add	a0,sp,88
   16098:	03112023          	sw	a7,32(sp)
   1609c:	01c12e23          	sw	t3,28(sp)
   160a0:	01012c23          	sw	a6,24(sp)
   160a4:	e81fa0ef          	jal	0x10f24
   160a8:	01812803          	lw	a6,24(sp)
   160ac:	05810713          	add	a4,sp,88
   160b0:	000d0693          	mv	a3,s10
   160b4:	00080593          	mv	a1,a6
   160b8:	04c10613          	add	a2,sp,76
   160bc:	00040513          	mv	a0,s0
   160c0:	37d060ef          	jal	0x1cc3c
   160c4:	01812803          	lw	a6,24(sp)
   160c8:	01c12e03          	lw	t3,28(sp)
   160cc:	02012883          	lw	a7,32(sp)
   160d0:	40ad1063          	bne	s10,a0,0x164d0
   160d4:	fffd4e93          	not	t4,s10
   160d8:	01a807b3          	add	a5,a6,s10
   160dc:	41fede93          	sra	t4,t4,0x1f
   160e0:	00078023          	sb	zero,0(a5)
   160e4:	01dd7eb3          	and	t4,s10,t4
   160e8:	2140006f          	j	0x162fc
   160ec:	010e7613          	and	a2,t3,16
   160f0:	000aa783          	lw	a5,0(s5)
   160f4:	004a8a93          	add	s5,s5,4
   160f8:	02061263          	bnez	a2,0x1611c
   160fc:	040e7613          	and	a2,t3,64
   16100:	00060a63          	beqz	a2,0x16114
   16104:	01079793          	sll	a5,a5,0x10
   16108:	0107d793          	srl	a5,a5,0x10
   1610c:	00000593          	li	a1,0
   16110:	e1dff06f          	j	0x15f2c
   16114:	200e7613          	and	a2,t3,512
   16118:	22061e63          	bnez	a2,0x16354
   1611c:	00000593          	li	a1,0
   16120:	e0dff06f          	j	0x15f2c
   16124:	400e7793          	and	a5,t3,1024
   16128:	00000693          	li	a3,0
   1612c:	11010e93          	add	t4,sp,272
   16130:	01812823          	sw	s8,16(sp)
   16134:	02812223          	sw	s0,36(sp)
   16138:	03912c23          	sw	s9,56(sp)
   1613c:	03512e23          	sw	s5,60(sp)
   16140:	02c12c83          	lw	s9,44(sp)
   16144:	01c12c23          	sw	t3,24(sp)
   16148:	01112e23          	sw	a7,28(sp)
   1614c:	02e12023          	sw	a4,32(sp)
   16150:	00078c13          	mv	s8,a5
   16154:	00068413          	mv	s0,a3
   16158:	03312423          	sw	s3,40(sp)
   1615c:	000e8a93          	mv	s5,t4
   16160:	0280006f          	j	0x16188
   16164:	00a00613          	li	a2,10
   16168:	00000693          	li	a3,0
   1616c:	000d8513          	mv	a0,s11
   16170:	000d0593          	mv	a1,s10
   16174:	104080ef          	jal	0x1e278
   16178:	220d0a63          	beqz	s10,0x163ac
   1617c:	00050d93          	mv	s11,a0
   16180:	00058d13          	mv	s10,a1
   16184:	00098a93          	mv	s5,s3
   16188:	00a00613          	li	a2,10
   1618c:	00000693          	li	a3,0
   16190:	000d8513          	mv	a0,s11
   16194:	000d0593          	mv	a1,s10
   16198:	78c080ef          	jal	0x1e924
   1619c:	03050513          	add	a0,a0,48
   161a0:	feaa8fa3          	sb	a0,-1(s5)
   161a4:	fffa8993          	add	s3,s5,-1
   161a8:	00140413          	add	s0,s0,1
   161ac:	fa0c0ce3          	beqz	s8,0x16164
   161b0:	000cc783          	lbu	a5,0(s9)
   161b4:	fa8798e3          	bne	a5,s0,0x16164
   161b8:	0ff00793          	li	a5,255
   161bc:	faf404e3          	beq	s0,a5,0x16164
   161c0:	0e0d1a63          	bnez	s10,0x162b4
   161c4:	00900793          	li	a5,9
   161c8:	0fb7e663          	bltu	a5,s11,0x162b4
   161cc:	00098813          	mv	a6,s3
   161d0:	03912623          	sw	s9,44(sp)
   161d4:	01012c03          	lw	s8,16(sp)
   161d8:	01812e03          	lw	t3,24(sp)
   161dc:	01c12883          	lw	a7,28(sp)
   161e0:	02012703          	lw	a4,32(sp)
   161e4:	02412403          	lw	s0,36(sp)
   161e8:	02812983          	lw	s3,40(sp)
   161ec:	03812c83          	lw	s9,56(sp)
   161f0:	03c12a83          	lw	s5,60(sp)
   161f4:	9a1ff06f          	j	0x15b94
   161f8:	00068e13          	mv	t3,a3
   161fc:	00000693          	li	a3,0
   16200:	c0068263          	beqz	a3,0x15604
   16204:	95dff06f          	j	0x15b60
   16208:	00040513          	mv	a0,s0
   1620c:	e54fa0ef          	jal	0x10860
   16210:	b65fe06f          	j	0x14d74
   16214:	001cc683          	lbu	a3,1(s9)
   16218:	200ded93          	or	s11,s11,512
   1621c:	001c8c93          	add	s9,s9,1
   16220:	c89fe06f          	j	0x14ea8
   16224:	001cc683          	lbu	a3,1(s9)
   16228:	020ded93          	or	s11,s11,32
   1622c:	001c8c93          	add	s9,s9,1
   16230:	c79fe06f          	j	0x14ea8
   16234:	000aa783          	lw	a5,0(s5)
   16238:	00c12703          	lw	a4,12(sp)
   1623c:	004a8a93          	add	s5,s5,4
   16240:	00e7a023          	sw	a4,0(a5)
   16244:	bfdfe06f          	j	0x14e40
   16248:	00600793          	li	a5,6
   1624c:	00070d13          	mv	s10,a4
   16250:	0ce7e863          	bltu	a5,a4,0x16320
   16254:	000d0e93          	mv	t4,s10
   16258:	0000c817          	auipc	a6,0xc
   1625c:	a3880813          	add	a6,a6,-1480 # 0x21c90
   16260:	cb9fe06f          	j	0x14f18
   16264:	00000793          	li	a5,0
   16268:	00000593          	li	a1,0
   1626c:	8f5ff06f          	j	0x15b60
   16270:	05810713          	add	a4,sp,88
   16274:	00000693          	li	a3,0
   16278:	04c10613          	add	a2,sp,76
   1627c:	00000593          	li	a1,0
   16280:	00040513          	mv	a0,s0
   16284:	01112e23          	sw	a7,28(sp)
   16288:	01012c23          	sw	a6,24(sp)
   1628c:	01c12823          	sw	t3,16(sp)
   16290:	1ad060ef          	jal	0x1cc3c
   16294:	fff00793          	li	a5,-1
   16298:	01012e03          	lw	t3,16(sp)
   1629c:	01812803          	lw	a6,24(sp)
   162a0:	01c12883          	lw	a7,28(sp)
   162a4:	00050d13          	mv	s10,a0
   162a8:	1ef50e63          	beq	a0,a5,0x164a4
   162ac:	05012623          	sw	a6,76(sp)
   162b0:	da9ff06f          	j	0x16058
   162b4:	03012783          	lw	a5,48(sp)
   162b8:	03412583          	lw	a1,52(sp)
   162bc:	00000413          	li	s0,0
   162c0:	40f989b3          	sub	s3,s3,a5
   162c4:	00078613          	mv	a2,a5
   162c8:	00098513          	mv	a0,s3
   162cc:	2cc010ef          	jal	0x17598
   162d0:	001cc783          	lbu	a5,1(s9)
   162d4:	00a00613          	li	a2,10
   162d8:	00000693          	li	a3,0
   162dc:	00f037b3          	snez	a5,a5
   162e0:	000d8513          	mv	a0,s11
   162e4:	000d0593          	mv	a1,s10
   162e8:	00fc8cb3          	add	s9,s9,a5
   162ec:	78d070ef          	jal	0x1e278
   162f0:	e8dff06f          	j	0x1617c
   162f4:	00000e93          	li	t4,0
   162f8:	00012823          	sw	zero,16(sp)
   162fc:	04314783          	lbu	a5,67(sp)
   16300:	00000713          	li	a4,0
   16304:	00000f93          	li	t6,0
   16308:	a0079063          	bnez	a5,0x15508
   1630c:	c19fe06f          	j	0x14f24
   16310:	00100f13          	li	t5,1
   16314:	00000613          	li	a2,0
   16318:	000a0c13          	mv	s8,s4
   1631c:	ce9fe06f          	j	0x15004
   16320:	00600d13          	li	s10,6
   16324:	f31ff06f          	j	0x16254
   16328:	00100f13          	li	t5,1
   1632c:	000a0c13          	mv	s8,s4
   16330:	c4dfe06f          	j	0x14f7c
   16334:	000aa783          	lw	a5,0(s5)
   16338:	00c12703          	lw	a4,12(sp)
   1633c:	004a8a93          	add	s5,s5,4
   16340:	00e79023          	sh	a4,0(a5)
   16344:	afdfe06f          	j	0x14e40
   16348:	0ff7fd93          	zext.b	s11,a5
   1634c:	00000d13          	li	s10,0
   16350:	a04ff06f          	j	0x15554
   16354:	0ff7f793          	zext.b	a5,a5
   16358:	00000593          	li	a1,0
   1635c:	bd1ff06f          	j	0x15f2c
   16360:	0ff7f793          	zext.b	a5,a5
   16364:	00000593          	li	a1,0
   16368:	a5cff06f          	j	0x155c4
   1636c:	01879d93          	sll	s11,a5,0x18
   16370:	418ddd93          	sra	s11,s11,0x18
   16374:	41fddd13          	sra	s10,s11,0x1f
   16378:	000d0693          	mv	a3,s10
   1637c:	95cff06f          	j	0x154d8
   16380:	03000793          	li	a5,48
   16384:	c8cff06f          	j	0x15810
   16388:	00012823          	sw	zero,16(sp)
   1638c:	0ac10813          	add	a6,sp,172
   16390:	cfdff06f          	j	0x1608c
   16394:	0589a503          	lw	a0,88(s3)
   16398:	b89fa0ef          	jal	0x10f20
   1639c:	d51fe06f          	j	0x150ec
   163a0:	00070e93          	mv	t4,a4
   163a4:	00070d13          	mv	s10,a4
   163a8:	f55ff06f          	j	0x162fc
   163ac:	00900793          	li	a5,9
   163b0:	ddb7e6e3          	bltu	a5,s11,0x1617c
   163b4:	e19ff06f          	j	0x161cc
   163b8:	00058513          	mv	a0,a1
   163bc:	0000c317          	auipc	t1,0xc
   163c0:	f3430313          	add	t1,t1,-204 # 0x222f0
   163c4:	8cdff06f          	j	0x15c90
   163c8:	00080513          	mv	a0,a6
   163cc:	03112023          	sw	a7,32(sp)
   163d0:	01012c23          	sw	a6,24(sp)
   163d4:	01b12e23          	sw	s11,28(sp)
   163d8:	2ac020ef          	jal	0x18684
   163dc:	fff54e93          	not	t4,a0
   163e0:	41fede93          	sra	t4,t4,0x1f
   163e4:	01812803          	lw	a6,24(sp)
   163e8:	01c12e03          	lw	t3,28(sp)
   163ec:	02012883          	lw	a7,32(sp)
   163f0:	00050d13          	mv	s10,a0
   163f4:	01d57eb3          	and	t4,a0,t4
   163f8:	00012823          	sw	zero,16(sp)
   163fc:	f01ff06f          	j	0x162fc
   16400:	06010613          	add	a2,sp,96
   16404:	00098593          	mv	a1,s3
   16408:	00040513          	mv	a0,s0
   1640c:	fe4fe0ef          	jal	0x14bf0
   16410:	00051463          	bnez	a0,0x16418
   16414:	dc5fe06f          	j	0x151d8
   16418:	df5fe06f          	j	0x1520c
   1641c:	00168613          	add	a2,a3,1
   16420:	0000c317          	auipc	t1,0xc
   16424:	ed030313          	add	t1,t1,-304 # 0x222f0
   16428:	f19fe06f          	j	0x15340
   1642c:	000f0513          	mv	a0,t5
   16430:	0000cf97          	auipc	t6,0xc
   16434:	eb0f8f93          	add	t6,t6,-336 # 0x222e0
   16438:	d10ff06f          	j	0x15948
   1643c:	0649a783          	lw	a5,100(s3)
   16440:	0017f793          	and	a5,a5,1
   16444:	00079c63          	bnez	a5,0x1645c
   16448:	00c9d783          	lhu	a5,12(s3)
   1644c:	2007f793          	and	a5,a5,512
   16450:	00079663          	bnez	a5,0x1645c
   16454:	0589a503          	lw	a0,88(s3)
   16458:	ac9fa0ef          	jal	0x10f20
   1645c:	fff00793          	li	a5,-1
   16460:	00f12623          	sw	a5,12(sp)
   16464:	de5fe06f          	j	0x15248
   16468:	00098713          	mv	a4,s3
   1646c:	000c8a93          	mv	s5,s9
   16470:	000d0993          	mv	s3,s10
   16474:	01012c03          	lw	s8,16(sp)
   16478:	01812e03          	lw	t3,24(sp)
   1647c:	01c12803          	lw	a6,28(sp)
   16480:	02012883          	lw	a7,32(sp)
   16484:	000d8c93          	mv	s9,s11
   16488:	00070d13          	mv	s10,a4
   1648c:	bcdff06f          	j	0x16058
   16490:	00cd1783          	lh	a5,12(s10)
   16494:	000d0993          	mv	s3,s10
   16498:	0407e793          	or	a5,a5,64
   1649c:	00fd1623          	sh	a5,12(s10)
   164a0:	d71fe06f          	j	0x15210
   164a4:	00c99783          	lh	a5,12(s3)
   164a8:	0407e793          	or	a5,a5,64
   164ac:	00f99623          	sh	a5,12(s3)
   164b0:	d61fe06f          	j	0x15210
   164b4:	000aa703          	lw	a4,0(s5)
   164b8:	004a8a93          	add	s5,s5,4
   164bc:	00075463          	bgez	a4,0x164c4
   164c0:	fff00713          	li	a4,-1
   164c4:	001cc683          	lbu	a3,1(s9)
   164c8:	00058c93          	mv	s9,a1
   164cc:	9ddfe06f          	j	0x14ea8
   164d0:	00c9d783          	lhu	a5,12(s3)
   164d4:	0407e793          	or	a5,a5,64
   164d8:	00f99623          	sh	a5,12(s3)
   164dc:	d1dfe06f          	j	0x151f8
   164e0:	00060693          	mv	a3,a2
   164e4:	00058613          	mv	a2,a1
   164e8:	00050593          	mv	a1,a0
   164ec:	f341a503          	lw	a0,-204(gp)
   164f0:	83dfe06f          	j	0x14d2c
   164f4:	b7010113          	add	sp,sp,-1168
   164f8:	00c59783          	lh	a5,12(a1)
   164fc:	00e5d703          	lhu	a4,14(a1)
   16500:	48812423          	sw	s0,1160(sp)
   16504:	00058413          	mv	s0,a1
   16508:	000105b7          	lui	a1,0x10
   1650c:	ffd58593          	add	a1,a1,-3 # 0xfffd
   16510:	06442303          	lw	t1,100(s0)
   16514:	01c42883          	lw	a7,28(s0)
   16518:	02442803          	lw	a6,36(s0)
   1651c:	01071713          	sll	a4,a4,0x10
   16520:	00b7f7b3          	and	a5,a5,a1
   16524:	00e7e7b3          	or	a5,a5,a4
   16528:	40000593          	li	a1,1024
   1652c:	49212023          	sw	s2,1152(sp)
   16530:	00f12a23          	sw	a5,20(sp)
   16534:	00050913          	mv	s2,a0
   16538:	07010793          	add	a5,sp,112
   1653c:	06010513          	add	a0,sp,96
   16540:	48112623          	sw	ra,1164(sp)
   16544:	48912223          	sw	s1,1156(sp)
   16548:	47312e23          	sw	s3,1148(sp)
   1654c:	00060493          	mv	s1,a2
   16550:	00068993          	mv	s3,a3
   16554:	06612623          	sw	t1,108(sp)
   16558:	03112223          	sw	a7,36(sp)
   1655c:	03012623          	sw	a6,44(sp)
   16560:	00f12423          	sw	a5,8(sp)
   16564:	00f12c23          	sw	a5,24(sp)
   16568:	00b12823          	sw	a1,16(sp)
   1656c:	00b12e23          	sw	a1,28(sp)
   16570:	02012023          	sw	zero,32(sp)
   16574:	985fa0ef          	jal	0x10ef8
   16578:	00048613          	mv	a2,s1
   1657c:	00098693          	mv	a3,s3
   16580:	00810593          	add	a1,sp,8
   16584:	00090513          	mv	a0,s2
   16588:	fa4fe0ef          	jal	0x14d2c
   1658c:	00050493          	mv	s1,a0
   16590:	04055263          	bgez	a0,0x165d4
   16594:	01415783          	lhu	a5,20(sp)
   16598:	0407f793          	and	a5,a5,64
   1659c:	00078863          	beqz	a5,0x165ac
   165a0:	00c45783          	lhu	a5,12(s0)
   165a4:	0407e793          	or	a5,a5,64
   165a8:	00f41623          	sh	a5,12(s0)
   165ac:	06012503          	lw	a0,96(sp)
   165b0:	951fa0ef          	jal	0x10f00
   165b4:	48c12083          	lw	ra,1164(sp)
   165b8:	48812403          	lw	s0,1160(sp)
   165bc:	48012903          	lw	s2,1152(sp)
   165c0:	47c12983          	lw	s3,1148(sp)
   165c4:	00048513          	mv	a0,s1
   165c8:	48412483          	lw	s1,1156(sp)
   165cc:	49010113          	add	sp,sp,1168
   165d0:	00008067          	ret
   165d4:	00810593          	add	a1,sp,8
   165d8:	00090513          	mv	a0,s2
   165dc:	3d8000ef          	jal	0x169b4
   165e0:	fa050ae3          	beqz	a0,0x16594
   165e4:	fff00493          	li	s1,-1
   165e8:	fadff06f          	j	0x16594
   165ec:	ff010113          	add	sp,sp,-16
   165f0:	00112623          	sw	ra,12(sp)
   165f4:	01212023          	sw	s2,0(sp)
   165f8:	0e058263          	beqz	a1,0x166dc
   165fc:	00812423          	sw	s0,8(sp)
   16600:	00912223          	sw	s1,4(sp)
   16604:	00058413          	mv	s0,a1
   16608:	00050493          	mv	s1,a0
   1660c:	00050663          	beqz	a0,0x16618
   16610:	03452783          	lw	a5,52(a0)
   16614:	10078063          	beqz	a5,0x16714
   16618:	06442783          	lw	a5,100(s0)
   1661c:	00c41703          	lh	a4,12(s0)
   16620:	0017f793          	and	a5,a5,1
   16624:	0a079663          	bnez	a5,0x166d0
   16628:	20077713          	and	a4,a4,512
   1662c:	0e070863          	beqz	a4,0x1671c
   16630:	00040593          	mv	a1,s0
   16634:	00048513          	mv	a0,s1
   16638:	130000ef          	jal	0x16768
   1663c:	02c42783          	lw	a5,44(s0)
   16640:	00050913          	mv	s2,a0
   16644:	00078a63          	beqz	a5,0x16658
   16648:	01c42583          	lw	a1,28(s0)
   1664c:	00048513          	mv	a0,s1
   16650:	000780e7          	jalr	a5
   16654:	0a054063          	bltz	a0,0x166f4
   16658:	00c45783          	lhu	a5,12(s0)
   1665c:	0807f793          	and	a5,a5,128
   16660:	0a079263          	bnez	a5,0x16704
   16664:	03042583          	lw	a1,48(s0)
   16668:	00058c63          	beqz	a1,0x16680
   1666c:	04040793          	add	a5,s0,64
   16670:	00f58663          	beq	a1,a5,0x1667c
   16674:	00048513          	mv	a0,s1
   16678:	cf5fa0ef          	jal	0x1136c
   1667c:	02042823          	sw	zero,48(s0)
   16680:	04442583          	lw	a1,68(s0)
   16684:	00058863          	beqz	a1,0x16694
   16688:	00048513          	mv	a0,s1
   1668c:	ce1fa0ef          	jal	0x1136c
   16690:	04042223          	sw	zero,68(s0)
   16694:	a2cfa0ef          	jal	0x108c0
   16698:	06442783          	lw	a5,100(s0)
   1669c:	00041623          	sh	zero,12(s0)
   166a0:	0017f793          	and	a5,a5,1
   166a4:	0a078663          	beqz	a5,0x16750
   166a8:	05842503          	lw	a0,88(s0)
   166ac:	855fa0ef          	jal	0x10f00
   166b0:	a18fa0ef          	jal	0x108c8
   166b4:	00c12083          	lw	ra,12(sp)
   166b8:	00812403          	lw	s0,8(sp)
   166bc:	00412483          	lw	s1,4(sp)
   166c0:	00090513          	mv	a0,s2
   166c4:	00012903          	lw	s2,0(sp)
   166c8:	01010113          	add	sp,sp,16
   166cc:	00008067          	ret
   166d0:	f60710e3          	bnez	a4,0x16630
   166d4:	00812403          	lw	s0,8(sp)
   166d8:	00412483          	lw	s1,4(sp)
   166dc:	00000913          	li	s2,0
   166e0:	00c12083          	lw	ra,12(sp)
   166e4:	00090513          	mv	a0,s2
   166e8:	00012903          	lw	s2,0(sp)
   166ec:	01010113          	add	sp,sp,16
   166f0:	00008067          	ret
   166f4:	00c45783          	lhu	a5,12(s0)
   166f8:	fff00913          	li	s2,-1
   166fc:	0807f793          	and	a5,a5,128
   16700:	f60782e3          	beqz	a5,0x16664
   16704:	01042583          	lw	a1,16(s0)
   16708:	00048513          	mv	a0,s1
   1670c:	c61fa0ef          	jal	0x1136c
   16710:	f55ff06f          	j	0x16664
   16714:	94cfa0ef          	jal	0x10860
   16718:	f01ff06f          	j	0x16618
   1671c:	05842503          	lw	a0,88(s0)
   16720:	fe8fa0ef          	jal	0x10f08
   16724:	00c41783          	lh	a5,12(s0)
   16728:	f00794e3          	bnez	a5,0x16630
   1672c:	06442783          	lw	a5,100(s0)
   16730:	0017f793          	and	a5,a5,1
   16734:	fa0790e3          	bnez	a5,0x166d4
   16738:	05842503          	lw	a0,88(s0)
   1673c:	00000913          	li	s2,0
   16740:	fe0fa0ef          	jal	0x10f20
   16744:	00812403          	lw	s0,8(sp)
   16748:	00412483          	lw	s1,4(sp)
   1674c:	f95ff06f          	j	0x166e0
   16750:	05842503          	lw	a0,88(s0)
   16754:	fccfa0ef          	jal	0x10f20
   16758:	f51ff06f          	j	0x166a8
   1675c:	00050593          	mv	a1,a0
   16760:	f341a503          	lw	a0,-204(gp)
   16764:	e89ff06f          	j	0x165ec
   16768:	00c59703          	lh	a4,12(a1)
   1676c:	fe010113          	add	sp,sp,-32
   16770:	00812c23          	sw	s0,24(sp)
   16774:	01312623          	sw	s3,12(sp)
   16778:	00112e23          	sw	ra,28(sp)
   1677c:	00877793          	and	a5,a4,8
   16780:	00058413          	mv	s0,a1
   16784:	00050993          	mv	s3,a0
   16788:	12079063          	bnez	a5,0x168a8
   1678c:	000017b7          	lui	a5,0x1
   16790:	80078793          	add	a5,a5,-2048 # 0x800
   16794:	0045a683          	lw	a3,4(a1)
   16798:	00f767b3          	or	a5,a4,a5
   1679c:	00f59623          	sh	a5,12(a1)
   167a0:	18d05263          	blez	a3,0x16924
   167a4:	02842803          	lw	a6,40(s0)
   167a8:	0e080463          	beqz	a6,0x16890
   167ac:	00912a23          	sw	s1,20(sp)
   167b0:	01371693          	sll	a3,a4,0x13
   167b4:	0009a483          	lw	s1,0(s3)
   167b8:	0009a023          	sw	zero,0(s3)
   167bc:	01c42583          	lw	a1,28(s0)
   167c0:	1606ce63          	bltz	a3,0x1693c
   167c4:	00000613          	li	a2,0
   167c8:	00100693          	li	a3,1
   167cc:	00098513          	mv	a0,s3
   167d0:	000800e7          	jalr	a6
   167d4:	fff00793          	li	a5,-1
   167d8:	00050613          	mv	a2,a0
   167dc:	1af50463          	beq	a0,a5,0x16984
   167e0:	00c41783          	lh	a5,12(s0)
   167e4:	02842803          	lw	a6,40(s0)
   167e8:	01c42583          	lw	a1,28(s0)
   167ec:	0047f793          	and	a5,a5,4
   167f0:	00078e63          	beqz	a5,0x1680c
   167f4:	00442703          	lw	a4,4(s0)
   167f8:	03042783          	lw	a5,48(s0)
   167fc:	40e60633          	sub	a2,a2,a4
   16800:	00078663          	beqz	a5,0x1680c
   16804:	03c42783          	lw	a5,60(s0)
   16808:	40f60633          	sub	a2,a2,a5
   1680c:	00000693          	li	a3,0
   16810:	00098513          	mv	a0,s3
   16814:	000800e7          	jalr	a6
   16818:	fff00793          	li	a5,-1
   1681c:	12f51463          	bne	a0,a5,0x16944
   16820:	0009a683          	lw	a3,0(s3)
   16824:	01d00793          	li	a5,29
   16828:	00c41703          	lh	a4,12(s0)
   1682c:	16d7ea63          	bltu	a5,a3,0x169a0
   16830:	204007b7          	lui	a5,0x20400
   16834:	00178793          	add	a5,a5,1 # 0x20400001
   16838:	00d7d7b3          	srl	a5,a5,a3
   1683c:	0017f793          	and	a5,a5,1
   16840:	16078063          	beqz	a5,0x169a0
   16844:	01042603          	lw	a2,16(s0)
   16848:	fffff7b7          	lui	a5,0xfffff
   1684c:	7ff78793          	add	a5,a5,2047 # 0xfffff7ff
   16850:	00f777b3          	and	a5,a4,a5
   16854:	00f41623          	sh	a5,12(s0)
   16858:	00042223          	sw	zero,4(s0)
   1685c:	00c42023          	sw	a2,0(s0)
   16860:	01371793          	sll	a5,a4,0x13
   16864:	0007d463          	bgez	a5,0x1686c
   16868:	10068263          	beqz	a3,0x1696c
   1686c:	03042583          	lw	a1,48(s0)
   16870:	0099a023          	sw	s1,0(s3)
   16874:	10058463          	beqz	a1,0x1697c
   16878:	04040793          	add	a5,s0,64
   1687c:	00f58663          	beq	a1,a5,0x16888
   16880:	00098513          	mv	a0,s3
   16884:	ae9fa0ef          	jal	0x1136c
   16888:	01412483          	lw	s1,20(sp)
   1688c:	02042823          	sw	zero,48(s0)
   16890:	00000513          	li	a0,0
   16894:	01c12083          	lw	ra,28(sp)
   16898:	01812403          	lw	s0,24(sp)
   1689c:	00c12983          	lw	s3,12(sp)
   168a0:	02010113          	add	sp,sp,32
   168a4:	00008067          	ret
   168a8:	01212823          	sw	s2,16(sp)
   168ac:	0105a903          	lw	s2,16(a1)
   168b0:	08090263          	beqz	s2,0x16934
   168b4:	00912a23          	sw	s1,20(sp)
   168b8:	0005a483          	lw	s1,0(a1)
   168bc:	00377713          	and	a4,a4,3
   168c0:	0125a023          	sw	s2,0(a1)
   168c4:	412484b3          	sub	s1,s1,s2
   168c8:	00000793          	li	a5,0
   168cc:	00071463          	bnez	a4,0x168d4
   168d0:	0145a783          	lw	a5,20(a1)
   168d4:	00f42423          	sw	a5,8(s0)
   168d8:	00904863          	bgtz	s1,0x168e8
   168dc:	0540006f          	j	0x16930
   168e0:	00a90933          	add	s2,s2,a0
   168e4:	04905663          	blez	s1,0x16930
   168e8:	02442783          	lw	a5,36(s0)
   168ec:	01c42583          	lw	a1,28(s0)
   168f0:	00048693          	mv	a3,s1
   168f4:	00090613          	mv	a2,s2
   168f8:	00098513          	mv	a0,s3
   168fc:	000780e7          	jalr	a5
   16900:	40a484b3          	sub	s1,s1,a0
   16904:	fca04ee3          	bgtz	a0,0x168e0
   16908:	00c41703          	lh	a4,12(s0)
   1690c:	01012903          	lw	s2,16(sp)
   16910:	04076713          	or	a4,a4,64
   16914:	01412483          	lw	s1,20(sp)
   16918:	00e41623          	sh	a4,12(s0)
   1691c:	fff00513          	li	a0,-1
   16920:	f75ff06f          	j	0x16894
   16924:	03c5a683          	lw	a3,60(a1)
   16928:	e6d04ee3          	bgtz	a3,0x167a4
   1692c:	f65ff06f          	j	0x16890
   16930:	01412483          	lw	s1,20(sp)
   16934:	01012903          	lw	s2,16(sp)
   16938:	f59ff06f          	j	0x16890
   1693c:	05042603          	lw	a2,80(s0)
   16940:	eadff06f          	j	0x167ec
   16944:	00c41703          	lh	a4,12(s0)
   16948:	01042683          	lw	a3,16(s0)
   1694c:	fffff7b7          	lui	a5,0xfffff
   16950:	7ff78793          	add	a5,a5,2047 # 0xfffff7ff
   16954:	00f777b3          	and	a5,a4,a5
   16958:	00f41623          	sh	a5,12(s0)
   1695c:	00042223          	sw	zero,4(s0)
   16960:	00d42023          	sw	a3,0(s0)
   16964:	01371793          	sll	a5,a4,0x13
   16968:	f007d2e3          	bgez	a5,0x1686c
   1696c:	03042583          	lw	a1,48(s0)
   16970:	04a42823          	sw	a0,80(s0)
   16974:	0099a023          	sw	s1,0(s3)
   16978:	f00590e3          	bnez	a1,0x16878
   1697c:	01412483          	lw	s1,20(sp)
   16980:	f11ff06f          	j	0x16890
   16984:	0009a783          	lw	a5,0(s3)
   16988:	e4078ce3          	beqz	a5,0x167e0
   1698c:	01d00713          	li	a4,29
   16990:	00e78c63          	beq	a5,a4,0x169a8
   16994:	01600713          	li	a4,22
   16998:	00e78863          	beq	a5,a4,0x169a8
   1699c:	00c41703          	lh	a4,12(s0)
   169a0:	04076713          	or	a4,a4,64
   169a4:	f71ff06f          	j	0x16914
   169a8:	0099a023          	sw	s1,0(s3)
   169ac:	01412483          	lw	s1,20(sp)
   169b0:	ee1ff06f          	j	0x16890
   169b4:	ff010113          	add	sp,sp,-16
   169b8:	00812423          	sw	s0,8(sp)
   169bc:	00912223          	sw	s1,4(sp)
   169c0:	00112623          	sw	ra,12(sp)
   169c4:	01212023          	sw	s2,0(sp)
   169c8:	00050493          	mv	s1,a0
   169cc:	00058413          	mv	s0,a1
   169d0:	00050663          	beqz	a0,0x169dc
   169d4:	03452783          	lw	a5,52(a0)
   169d8:	0a078a63          	beqz	a5,0x16a8c
   169dc:	00c41783          	lh	a5,12(s0)
   169e0:	00000913          	li	s2,0
   169e4:	04078063          	beqz	a5,0x16a24
   169e8:	06442703          	lw	a4,100(s0)
   169ec:	00177713          	and	a4,a4,1
   169f0:	00071663          	bnez	a4,0x169fc
   169f4:	2007f793          	and	a5,a5,512
   169f8:	04078463          	beqz	a5,0x16a40
   169fc:	00040593          	mv	a1,s0
   16a00:	00048513          	mv	a0,s1
   16a04:	d65ff0ef          	jal	0x16768
   16a08:	06442783          	lw	a5,100(s0)
   16a0c:	00050913          	mv	s2,a0
   16a10:	0017f793          	and	a5,a5,1
   16a14:	00079863          	bnez	a5,0x16a24
   16a18:	00c45783          	lhu	a5,12(s0)
   16a1c:	2007f793          	and	a5,a5,512
   16a20:	04078463          	beqz	a5,0x16a68
   16a24:	00c12083          	lw	ra,12(sp)
   16a28:	00812403          	lw	s0,8(sp)
   16a2c:	00412483          	lw	s1,4(sp)
   16a30:	00090513          	mv	a0,s2
   16a34:	00012903          	lw	s2,0(sp)
   16a38:	01010113          	add	sp,sp,16
   16a3c:	00008067          	ret
   16a40:	05842503          	lw	a0,88(s0)
   16a44:	cc4fa0ef          	jal	0x10f08
   16a48:	00040593          	mv	a1,s0
   16a4c:	00048513          	mv	a0,s1
   16a50:	d19ff0ef          	jal	0x16768
   16a54:	06442783          	lw	a5,100(s0)
   16a58:	00050913          	mv	s2,a0
   16a5c:	0017f793          	and	a5,a5,1
   16a60:	fc0792e3          	bnez	a5,0x16a24
   16a64:	fb5ff06f          	j	0x16a18
   16a68:	05842503          	lw	a0,88(s0)
   16a6c:	cb4fa0ef          	jal	0x10f20
   16a70:	00c12083          	lw	ra,12(sp)
   16a74:	00812403          	lw	s0,8(sp)
   16a78:	00412483          	lw	s1,4(sp)
   16a7c:	00090513          	mv	a0,s2
   16a80:	00012903          	lw	s2,0(sp)
   16a84:	01010113          	add	sp,sp,16
   16a88:	00008067          	ret
   16a8c:	dd5f90ef          	jal	0x10860
   16a90:	f4dff06f          	j	0x169dc
   16a94:	0a050a63          	beqz	a0,0x16b48
   16a98:	ff010113          	add	sp,sp,-16
   16a9c:	00812423          	sw	s0,8(sp)
   16aa0:	01212023          	sw	s2,0(sp)
   16aa4:	00112623          	sw	ra,12(sp)
   16aa8:	00912223          	sw	s1,4(sp)
   16aac:	f341a903          	lw	s2,-204(gp)
   16ab0:	00050413          	mv	s0,a0
   16ab4:	00090663          	beqz	s2,0x16ac0
   16ab8:	03492783          	lw	a5,52(s2)
   16abc:	06078463          	beqz	a5,0x16b24
   16ac0:	00c41783          	lh	a5,12(s0)
   16ac4:	00000493          	li	s1,0
   16ac8:	04078063          	beqz	a5,0x16b08
   16acc:	06442703          	lw	a4,100(s0)
   16ad0:	00177713          	and	a4,a4,1
   16ad4:	00071663          	bnez	a4,0x16ae0
   16ad8:	2007f793          	and	a5,a5,512
   16adc:	04078a63          	beqz	a5,0x16b30
   16ae0:	00040593          	mv	a1,s0
   16ae4:	00090513          	mv	a0,s2
   16ae8:	c81ff0ef          	jal	0x16768
   16aec:	06442783          	lw	a5,100(s0)
   16af0:	00050493          	mv	s1,a0
   16af4:	0017f793          	and	a5,a5,1
   16af8:	00079863          	bnez	a5,0x16b08
   16afc:	00c45783          	lhu	a5,12(s0)
   16b00:	2007f793          	and	a5,a5,512
   16b04:	02078c63          	beqz	a5,0x16b3c
   16b08:	00c12083          	lw	ra,12(sp)
   16b0c:	00812403          	lw	s0,8(sp)
   16b10:	00012903          	lw	s2,0(sp)
   16b14:	00048513          	mv	a0,s1
   16b18:	00412483          	lw	s1,4(sp)
   16b1c:	01010113          	add	sp,sp,16
   16b20:	00008067          	ret
   16b24:	00090513          	mv	a0,s2
   16b28:	d39f90ef          	jal	0x10860
   16b2c:	f95ff06f          	j	0x16ac0
   16b30:	05842503          	lw	a0,88(s0)
   16b34:	bd4fa0ef          	jal	0x10f08
   16b38:	fa9ff06f          	j	0x16ae0
   16b3c:	05842503          	lw	a0,88(s0)
   16b40:	be0fa0ef          	jal	0x10f20
   16b44:	fc5ff06f          	j	0x16b08
   16b48:	0000c617          	auipc	a2,0xc
   16b4c:	68860613          	add	a2,a2,1672 # 0x231d0
   16b50:	00000597          	auipc	a1,0x0
   16b54:	e6458593          	add	a1,a1,-412 # 0x169b4
   16b58:	0000c517          	auipc	a0,0xc
   16b5c:	68850513          	add	a0,a0,1672 # 0x231e0
   16b60:	dd1f906f          	j	0x10930
   16b64:	00862783          	lw	a5,8(a2)
   16b68:	2c078463          	beqz	a5,0x16e30
   16b6c:	00c59683          	lh	a3,12(a1)
   16b70:	fd010113          	add	sp,sp,-48
   16b74:	02812423          	sw	s0,40(sp)
   16b78:	01412c23          	sw	s4,24(sp)
   16b7c:	01612823          	sw	s6,16(sp)
   16b80:	02112623          	sw	ra,44(sp)
   16b84:	0086f793          	and	a5,a3,8
   16b88:	00060b13          	mv	s6,a2
   16b8c:	00050a13          	mv	s4,a0
   16b90:	00058413          	mv	s0,a1
   16b94:	08078e63          	beqz	a5,0x16c30
   16b98:	0105a783          	lw	a5,16(a1)
   16b9c:	08078a63          	beqz	a5,0x16c30
   16ba0:	02912223          	sw	s1,36(sp)
   16ba4:	03212023          	sw	s2,32(sp)
   16ba8:	01312e23          	sw	s3,28(sp)
   16bac:	01512a23          	sw	s5,20(sp)
   16bb0:	0026f793          	and	a5,a3,2
   16bb4:	000b2483          	lw	s1,0(s6)
   16bb8:	0a078463          	beqz	a5,0x16c60
   16bbc:	02442783          	lw	a5,36(s0)
   16bc0:	01c42583          	lw	a1,28(s0)
   16bc4:	80000ab7          	lui	s5,0x80000
   16bc8:	00000993          	li	s3,0
   16bcc:	00000913          	li	s2,0
   16bd0:	c00a8a93          	add	s5,s5,-1024 # 0x7ffffc00
   16bd4:	00098613          	mv	a2,s3
   16bd8:	000a0513          	mv	a0,s4
   16bdc:	04090263          	beqz	s2,0x16c20
   16be0:	00090693          	mv	a3,s2
   16be4:	012af463          	bgeu	s5,s2,0x16bec
   16be8:	000a8693          	mv	a3,s5
   16bec:	000780e7          	jalr	a5
   16bf0:	46a05263          	blez	a0,0x17054
   16bf4:	008b2783          	lw	a5,8(s6)
   16bf8:	00a989b3          	add	s3,s3,a0
   16bfc:	40a90933          	sub	s2,s2,a0
   16c00:	40a787b3          	sub	a5,a5,a0
   16c04:	00fb2423          	sw	a5,8(s6)
   16c08:	1a078663          	beqz	a5,0x16db4
   16c0c:	02442783          	lw	a5,36(s0)
   16c10:	01c42583          	lw	a1,28(s0)
   16c14:	00098613          	mv	a2,s3
   16c18:	000a0513          	mv	a0,s4
   16c1c:	fc0912e3          	bnez	s2,0x16be0
   16c20:	0004a983          	lw	s3,0(s1)
   16c24:	0044a903          	lw	s2,4(s1)
   16c28:	00848493          	add	s1,s1,8
   16c2c:	fa9ff06f          	j	0x16bd4
   16c30:	00040593          	mv	a1,s0
   16c34:	000a0513          	mv	a0,s4
   16c38:	440000ef          	jal	0x17078
   16c3c:	1c051c63          	bnez	a0,0x16e14
   16c40:	00c41683          	lh	a3,12(s0)
   16c44:	02912223          	sw	s1,36(sp)
   16c48:	03212023          	sw	s2,32(sp)
   16c4c:	01312e23          	sw	s3,28(sp)
   16c50:	01512a23          	sw	s5,20(sp)
   16c54:	0026f793          	and	a5,a3,2
   16c58:	000b2483          	lw	s1,0(s6)
   16c5c:	f60790e3          	bnez	a5,0x16bbc
   16c60:	01712623          	sw	s7,12(sp)
   16c64:	01812423          	sw	s8,8(sp)
   16c68:	0016f793          	and	a5,a3,1
   16c6c:	1c079663          	bnez	a5,0x16e38
   16c70:	00042783          	lw	a5,0(s0)
   16c74:	00842703          	lw	a4,8(s0)
   16c78:	80000ab7          	lui	s5,0x80000
   16c7c:	01912223          	sw	s9,4(sp)
   16c80:	00000b93          	li	s7,0
   16c84:	00000993          	li	s3,0
   16c88:	fffa8a93          	add	s5,s5,-1 # 0x7fffffff
   16c8c:	00078513          	mv	a0,a5
   16c90:	00070c13          	mv	s8,a4
   16c94:	10098263          	beqz	s3,0x16d98
   16c98:	2006f613          	and	a2,a3,512
   16c9c:	28060863          	beqz	a2,0x16f2c
   16ca0:	00070c93          	mv	s9,a4
   16ca4:	32e9e863          	bltu	s3,a4,0x16fd4
   16ca8:	4806f713          	and	a4,a3,1152
   16cac:	08070a63          	beqz	a4,0x16d40
   16cb0:	01442603          	lw	a2,20(s0)
   16cb4:	01042583          	lw	a1,16(s0)
   16cb8:	00161713          	sll	a4,a2,0x1
   16cbc:	00c70733          	add	a4,a4,a2
   16cc0:	40b78933          	sub	s2,a5,a1
   16cc4:	01f75c13          	srl	s8,a4,0x1f
   16cc8:	00ec0c33          	add	s8,s8,a4
   16ccc:	00190793          	add	a5,s2,1
   16cd0:	401c5c13          	sra	s8,s8,0x1
   16cd4:	013787b3          	add	a5,a5,s3
   16cd8:	000c0613          	mv	a2,s8
   16cdc:	00fc7663          	bgeu	s8,a5,0x16ce8
   16ce0:	00078c13          	mv	s8,a5
   16ce4:	00078613          	mv	a2,a5
   16ce8:	4006f693          	and	a3,a3,1024
   16cec:	32068063          	beqz	a3,0x1700c
   16cf0:	00060593          	mv	a1,a2
   16cf4:	000a0513          	mv	a0,s4
   16cf8:	979fa0ef          	jal	0x11670
   16cfc:	00050c93          	mv	s9,a0
   16d00:	34050e63          	beqz	a0,0x1705c
   16d04:	01042583          	lw	a1,16(s0)
   16d08:	00090613          	mv	a2,s2
   16d0c:	7d4010ef          	jal	0x184e0
   16d10:	00c45783          	lhu	a5,12(s0)
   16d14:	b7f7f793          	and	a5,a5,-1153
   16d18:	0807e793          	or	a5,a5,128
   16d1c:	00f41623          	sh	a5,12(s0)
   16d20:	012c8533          	add	a0,s9,s2
   16d24:	412c07b3          	sub	a5,s8,s2
   16d28:	01942823          	sw	s9,16(s0)
   16d2c:	01842a23          	sw	s8,20(s0)
   16d30:	00a42023          	sw	a0,0(s0)
   16d34:	00098c13          	mv	s8,s3
   16d38:	00f42423          	sw	a5,8(s0)
   16d3c:	00098c93          	mv	s9,s3
   16d40:	000c8613          	mv	a2,s9
   16d44:	000b8593          	mv	a1,s7
   16d48:	68c010ef          	jal	0x183d4
   16d4c:	00842703          	lw	a4,8(s0)
   16d50:	00042783          	lw	a5,0(s0)
   16d54:	00098913          	mv	s2,s3
   16d58:	41870733          	sub	a4,a4,s8
   16d5c:	019787b3          	add	a5,a5,s9
   16d60:	00e42423          	sw	a4,8(s0)
   16d64:	00f42023          	sw	a5,0(s0)
   16d68:	00000993          	li	s3,0
   16d6c:	008b2783          	lw	a5,8(s6)
   16d70:	012b8bb3          	add	s7,s7,s2
   16d74:	412787b3          	sub	a5,a5,s2
   16d78:	00fb2423          	sw	a5,8(s6)
   16d7c:	02078663          	beqz	a5,0x16da8
   16d80:	00042783          	lw	a5,0(s0)
   16d84:	00842703          	lw	a4,8(s0)
   16d88:	00c41683          	lh	a3,12(s0)
   16d8c:	00078513          	mv	a0,a5
   16d90:	00070c13          	mv	s8,a4
   16d94:	f00992e3          	bnez	s3,0x16c98
   16d98:	0004ab83          	lw	s7,0(s1)
   16d9c:	0044a983          	lw	s3,4(s1)
   16da0:	00848493          	add	s1,s1,8
   16da4:	ee9ff06f          	j	0x16c8c
   16da8:	00c12b83          	lw	s7,12(sp)
   16dac:	00812c03          	lw	s8,8(sp)
   16db0:	00412c83          	lw	s9,4(sp)
   16db4:	02c12083          	lw	ra,44(sp)
   16db8:	02812403          	lw	s0,40(sp)
   16dbc:	02412483          	lw	s1,36(sp)
   16dc0:	02012903          	lw	s2,32(sp)
   16dc4:	01c12983          	lw	s3,28(sp)
   16dc8:	01412a83          	lw	s5,20(sp)
   16dcc:	01812a03          	lw	s4,24(sp)
   16dd0:	01012b03          	lw	s6,16(sp)
   16dd4:	00000513          	li	a0,0
   16dd8:	03010113          	add	sp,sp,48
   16ddc:	00008067          	ret
   16de0:	00040593          	mv	a1,s0
   16de4:	000a0513          	mv	a0,s4
   16de8:	bcdff0ef          	jal	0x169b4
   16dec:	0a050e63          	beqz	a0,0x16ea8
   16df0:	00c41783          	lh	a5,12(s0)
   16df4:	00c12b83          	lw	s7,12(sp)
   16df8:	00812c03          	lw	s8,8(sp)
   16dfc:	02412483          	lw	s1,36(sp)
   16e00:	02012903          	lw	s2,32(sp)
   16e04:	01c12983          	lw	s3,28(sp)
   16e08:	01412a83          	lw	s5,20(sp)
   16e0c:	0407e793          	or	a5,a5,64
   16e10:	00f41623          	sh	a5,12(s0)
   16e14:	02c12083          	lw	ra,44(sp)
   16e18:	02812403          	lw	s0,40(sp)
   16e1c:	01812a03          	lw	s4,24(sp)
   16e20:	01012b03          	lw	s6,16(sp)
   16e24:	fff00513          	li	a0,-1
   16e28:	03010113          	add	sp,sp,48
   16e2c:	00008067          	ret
   16e30:	00000513          	li	a0,0
   16e34:	00008067          	ret
   16e38:	00000a93          	li	s5,0
   16e3c:	00000513          	li	a0,0
   16e40:	00000c13          	li	s8,0
   16e44:	00000993          	li	s3,0
   16e48:	08098263          	beqz	s3,0x16ecc
   16e4c:	08050a63          	beqz	a0,0x16ee0
   16e50:	000a8793          	mv	a5,s5
   16e54:	00098b93          	mv	s7,s3
   16e58:	0137f463          	bgeu	a5,s3,0x16e60
   16e5c:	00078b93          	mv	s7,a5
   16e60:	00042503          	lw	a0,0(s0)
   16e64:	01042783          	lw	a5,16(s0)
   16e68:	00842903          	lw	s2,8(s0)
   16e6c:	01442683          	lw	a3,20(s0)
   16e70:	00a7f663          	bgeu	a5,a0,0x16e7c
   16e74:	00d90933          	add	s2,s2,a3
   16e78:	09794463          	blt	s2,s7,0x16f00
   16e7c:	16dbc263          	blt	s7,a3,0x16fe0
   16e80:	02442783          	lw	a5,36(s0)
   16e84:	01c42583          	lw	a1,28(s0)
   16e88:	000c0613          	mv	a2,s8
   16e8c:	000a0513          	mv	a0,s4
   16e90:	000780e7          	jalr	a5
   16e94:	00050913          	mv	s2,a0
   16e98:	f4a05ce3          	blez	a0,0x16df0
   16e9c:	412a8ab3          	sub	s5,s5,s2
   16ea0:	00100513          	li	a0,1
   16ea4:	f20a8ee3          	beqz	s5,0x16de0
   16ea8:	008b2783          	lw	a5,8(s6)
   16eac:	012c0c33          	add	s8,s8,s2
   16eb0:	412989b3          	sub	s3,s3,s2
   16eb4:	412787b3          	sub	a5,a5,s2
   16eb8:	00fb2423          	sw	a5,8(s6)
   16ebc:	f80796e3          	bnez	a5,0x16e48
   16ec0:	00c12b83          	lw	s7,12(sp)
   16ec4:	00812c03          	lw	s8,8(sp)
   16ec8:	eedff06f          	j	0x16db4
   16ecc:	0044a983          	lw	s3,4(s1)
   16ed0:	00048793          	mv	a5,s1
   16ed4:	00848493          	add	s1,s1,8
   16ed8:	fe098ae3          	beqz	s3,0x16ecc
   16edc:	0007ac03          	lw	s8,0(a5)
   16ee0:	00098613          	mv	a2,s3
   16ee4:	00a00593          	li	a1,10
   16ee8:	000c0513          	mv	a0,s8
   16eec:	5e8000ef          	jal	0x174d4
   16ef0:	14050c63          	beqz	a0,0x17048
   16ef4:	00150513          	add	a0,a0,1
   16ef8:	41850ab3          	sub	s5,a0,s8
   16efc:	f55ff06f          	j	0x16e50
   16f00:	000c0593          	mv	a1,s8
   16f04:	00090613          	mv	a2,s2
   16f08:	4cc010ef          	jal	0x183d4
   16f0c:	00042783          	lw	a5,0(s0)
   16f10:	00040593          	mv	a1,s0
   16f14:	000a0513          	mv	a0,s4
   16f18:	012787b3          	add	a5,a5,s2
   16f1c:	00f42023          	sw	a5,0(s0)
   16f20:	a95ff0ef          	jal	0x169b4
   16f24:	f6050ce3          	beqz	a0,0x16e9c
   16f28:	ec9ff06f          	j	0x16df0
   16f2c:	01042683          	lw	a3,16(s0)
   16f30:	04f6e463          	bltu	a3,a5,0x16f78
   16f34:	01442583          	lw	a1,20(s0)
   16f38:	04b9e063          	bltu	s3,a1,0x16f78
   16f3c:	00098913          	mv	s2,s3
   16f40:	013af463          	bgeu	s5,s3,0x16f48
   16f44:	000a8913          	mv	s2,s5
   16f48:	00090513          	mv	a0,s2
   16f4c:	3a90a0ef          	jal	0x21af4
   16f50:	02442783          	lw	a5,36(s0)
   16f54:	01c42583          	lw	a1,28(s0)
   16f58:	40a906b3          	sub	a3,s2,a0
   16f5c:	000b8613          	mv	a2,s7
   16f60:	000a0513          	mv	a0,s4
   16f64:	000780e7          	jalr	a5
   16f68:	00050913          	mv	s2,a0
   16f6c:	04a05a63          	blez	a0,0x16fc0
   16f70:	412989b3          	sub	s3,s3,s2
   16f74:	df9ff06f          	j	0x16d6c
   16f78:	00070913          	mv	s2,a4
   16f7c:	00e9f463          	bgeu	s3,a4,0x16f84
   16f80:	00098913          	mv	s2,s3
   16f84:	00078513          	mv	a0,a5
   16f88:	00090613          	mv	a2,s2
   16f8c:	000b8593          	mv	a1,s7
   16f90:	444010ef          	jal	0x183d4
   16f94:	00842703          	lw	a4,8(s0)
   16f98:	00042783          	lw	a5,0(s0)
   16f9c:	41270733          	sub	a4,a4,s2
   16fa0:	012787b3          	add	a5,a5,s2
   16fa4:	00e42423          	sw	a4,8(s0)
   16fa8:	00f42023          	sw	a5,0(s0)
   16fac:	fc0712e3          	bnez	a4,0x16f70
   16fb0:	00040593          	mv	a1,s0
   16fb4:	000a0513          	mv	a0,s4
   16fb8:	9fdff0ef          	jal	0x169b4
   16fbc:	fa050ae3          	beqz	a0,0x16f70
   16fc0:	00c41783          	lh	a5,12(s0)
   16fc4:	00c12b83          	lw	s7,12(sp)
   16fc8:	00812c03          	lw	s8,8(sp)
   16fcc:	00412c83          	lw	s9,4(sp)
   16fd0:	e2dff06f          	j	0x16dfc
   16fd4:	00098c13          	mv	s8,s3
   16fd8:	00098c93          	mv	s9,s3
   16fdc:	d65ff06f          	j	0x16d40
   16fe0:	000b8613          	mv	a2,s7
   16fe4:	000c0593          	mv	a1,s8
   16fe8:	3ec010ef          	jal	0x183d4
   16fec:	00842703          	lw	a4,8(s0)
   16ff0:	00042783          	lw	a5,0(s0)
   16ff4:	000b8913          	mv	s2,s7
   16ff8:	41770733          	sub	a4,a4,s7
   16ffc:	017787b3          	add	a5,a5,s7
   17000:	00e42423          	sw	a4,8(s0)
   17004:	00f42023          	sw	a5,0(s0)
   17008:	e95ff06f          	j	0x16e9c
   1700c:	000a0513          	mv	a0,s4
   17010:	7d1040ef          	jal	0x1bfe0
   17014:	00050c93          	mv	s9,a0
   17018:	d00514e3          	bnez	a0,0x16d20
   1701c:	01042583          	lw	a1,16(s0)
   17020:	000a0513          	mv	a0,s4
   17024:	b48fa0ef          	jal	0x1136c
   17028:	00c41783          	lh	a5,12(s0)
   1702c:	00c00713          	li	a4,12
   17030:	00c12b83          	lw	s7,12(sp)
   17034:	00812c03          	lw	s8,8(sp)
   17038:	00412c83          	lw	s9,4(sp)
   1703c:	00ea2023          	sw	a4,0(s4)
   17040:	f7f7f793          	and	a5,a5,-129
   17044:	db9ff06f          	j	0x16dfc
   17048:	00198793          	add	a5,s3,1
   1704c:	00078a93          	mv	s5,a5
   17050:	e05ff06f          	j	0x16e54
   17054:	00c41783          	lh	a5,12(s0)
   17058:	da5ff06f          	j	0x16dfc
   1705c:	00c00713          	li	a4,12
   17060:	00c41783          	lh	a5,12(s0)
   17064:	00c12b83          	lw	s7,12(sp)
   17068:	00812c03          	lw	s8,8(sp)
   1706c:	00412c83          	lw	s9,4(sp)
   17070:	00ea2023          	sw	a4,0(s4)
   17074:	d89ff06f          	j	0x16dfc
   17078:	ff010113          	add	sp,sp,-16
   1707c:	00812423          	sw	s0,8(sp)
   17080:	00912223          	sw	s1,4(sp)
   17084:	00112623          	sw	ra,12(sp)
   17088:	f341a783          	lw	a5,-204(gp)
   1708c:	00050493          	mv	s1,a0
   17090:	00058413          	mv	s0,a1
   17094:	00078663          	beqz	a5,0x170a0
   17098:	0347a703          	lw	a4,52(a5)
   1709c:	0e070c63          	beqz	a4,0x17194
   170a0:	00c41783          	lh	a5,12(s0)
   170a4:	0087f713          	and	a4,a5,8
   170a8:	06070a63          	beqz	a4,0x1711c
   170ac:	01042703          	lw	a4,16(s0)
   170b0:	08070663          	beqz	a4,0x1713c
   170b4:	0017f693          	and	a3,a5,1
   170b8:	02068863          	beqz	a3,0x170e8
   170bc:	01442683          	lw	a3,20(s0)
   170c0:	00042423          	sw	zero,8(s0)
   170c4:	00000513          	li	a0,0
   170c8:	40d006b3          	neg	a3,a3
   170cc:	00d42c23          	sw	a3,24(s0)
   170d0:	02070a63          	beqz	a4,0x17104
   170d4:	00c12083          	lw	ra,12(sp)
   170d8:	00812403          	lw	s0,8(sp)
   170dc:	00412483          	lw	s1,4(sp)
   170e0:	01010113          	add	sp,sp,16
   170e4:	00008067          	ret
   170e8:	0027f693          	and	a3,a5,2
   170ec:	00000613          	li	a2,0
   170f0:	00069463          	bnez	a3,0x170f8
   170f4:	01442603          	lw	a2,20(s0)
   170f8:	00c42423          	sw	a2,8(s0)
   170fc:	00000513          	li	a0,0
   17100:	fc071ae3          	bnez	a4,0x170d4
   17104:	0807f713          	and	a4,a5,128
   17108:	fc0706e3          	beqz	a4,0x170d4
   1710c:	0407e793          	or	a5,a5,64
   17110:	00f41623          	sh	a5,12(s0)
   17114:	fff00513          	li	a0,-1
   17118:	fbdff06f          	j	0x170d4
   1711c:	0107f713          	and	a4,a5,16
   17120:	08070063          	beqz	a4,0x171a0
   17124:	0047f713          	and	a4,a5,4
   17128:	02071c63          	bnez	a4,0x17160
   1712c:	01042703          	lw	a4,16(s0)
   17130:	0087e793          	or	a5,a5,8
   17134:	00f41623          	sh	a5,12(s0)
   17138:	f6071ee3          	bnez	a4,0x170b4
   1713c:	2807f693          	and	a3,a5,640
   17140:	20000613          	li	a2,512
   17144:	f6c688e3          	beq	a3,a2,0x170b4
   17148:	00040593          	mv	a1,s0
   1714c:	00048513          	mv	a0,s1
   17150:	329050ef          	jal	0x1cc78
   17154:	00c41783          	lh	a5,12(s0)
   17158:	01042703          	lw	a4,16(s0)
   1715c:	f59ff06f          	j	0x170b4
   17160:	03042583          	lw	a1,48(s0)
   17164:	00058e63          	beqz	a1,0x17180
   17168:	04040713          	add	a4,s0,64
   1716c:	00e58863          	beq	a1,a4,0x1717c
   17170:	00048513          	mv	a0,s1
   17174:	9f8fa0ef          	jal	0x1136c
   17178:	00c41783          	lh	a5,12(s0)
   1717c:	02042823          	sw	zero,48(s0)
   17180:	01042703          	lw	a4,16(s0)
   17184:	fdb7f793          	and	a5,a5,-37
   17188:	00042223          	sw	zero,4(s0)
   1718c:	00e42023          	sw	a4,0(s0)
   17190:	fa1ff06f          	j	0x17130
   17194:	00078513          	mv	a0,a5
   17198:	ec8f90ef          	jal	0x10860
   1719c:	f05ff06f          	j	0x170a0
   171a0:	00900713          	li	a4,9
   171a4:	00e4a023          	sw	a4,0(s1)
   171a8:	0407e793          	or	a5,a5,64
   171ac:	00f41623          	sh	a5,12(s0)
   171b0:	fff00513          	li	a0,-1
   171b4:	f21ff06f          	j	0x170d4
   171b8:	fc010113          	add	sp,sp,-64
   171bc:	02812c23          	sw	s0,56(sp)
   171c0:	03412423          	sw	s4,40(sp)
   171c4:	03512223          	sw	s5,36(sp)
   171c8:	02112e23          	sw	ra,60(sp)
   171cc:	02912a23          	sw	s1,52(sp)
   171d0:	03312623          	sw	s3,44(sp)
   171d4:	00050a13          	mv	s4,a0
   171d8:	00058a93          	mv	s5,a1
   171dc:	00060413          	mv	s0,a2
   171e0:	174010ef          	jal	0x18354
   171e4:	00100793          	li	a5,1
   171e8:	02f51663          	bne	a0,a5,0x17214
   171ec:	fffa8793          	add	a5,s5,-1
   171f0:	0fe00713          	li	a4,254
   171f4:	02f76063          	bltu	a4,a5,0x17214
   171f8:	03212823          	sw	s2,48(sp)
   171fc:	03612023          	sw	s6,32(sp)
   17200:	01712e23          	sw	s7,28(sp)
   17204:	01510423          	sb	s5,8(sp)
   17208:	00100993          	li	s3,1
   1720c:	00810493          	add	s1,sp,8
   17210:	0380006f          	j	0x17248
   17214:	00810493          	add	s1,sp,8
   17218:	05c40693          	add	a3,s0,92
   1721c:	000a8613          	mv	a2,s5
   17220:	00048593          	mv	a1,s1
   17224:	000a0513          	mv	a0,s4
   17228:	0f1050ef          	jal	0x1cb18
   1722c:	fff00793          	li	a5,-1
   17230:	00050993          	mv	s3,a0
   17234:	0cf50a63          	beq	a0,a5,0x17308
   17238:	0a050663          	beqz	a0,0x172e4
   1723c:	03212823          	sw	s2,48(sp)
   17240:	03612023          	sw	s6,32(sp)
   17244:	01712e23          	sw	s7,28(sp)
   17248:	00000913          	li	s2,0
   1724c:	fff00b13          	li	s6,-1
   17250:	00a00b93          	li	s7,10
   17254:	0200006f          	j	0x17274
   17258:	00042783          	lw	a5,0(s0)
   1725c:	00178693          	add	a3,a5,1
   17260:	00d42023          	sw	a3,0(s0)
   17264:	00e78023          	sb	a4,0(a5)
   17268:	00190913          	add	s2,s2,1
   1726c:	00148493          	add	s1,s1,1
   17270:	07397463          	bgeu	s2,s3,0x172d8
   17274:	00842783          	lw	a5,8(s0)
   17278:	0004c703          	lbu	a4,0(s1)
   1727c:	fff78793          	add	a5,a5,-1
   17280:	00f42423          	sw	a5,8(s0)
   17284:	fc07dae3          	bgez	a5,0x17258
   17288:	01842683          	lw	a3,24(s0)
   1728c:	00040613          	mv	a2,s0
   17290:	00070593          	mv	a1,a4
   17294:	000a0513          	mv	a0,s4
   17298:	00d7c463          	blt	a5,a3,0x172a0
   1729c:	fb771ee3          	bne	a4,s7,0x17258
   172a0:	449050ef          	jal	0x1cee8
   172a4:	fd6512e3          	bne	a0,s6,0x17268
   172a8:	03012903          	lw	s2,48(sp)
   172ac:	02012b03          	lw	s6,32(sp)
   172b0:	01c12b83          	lw	s7,28(sp)
   172b4:	03c12083          	lw	ra,60(sp)
   172b8:	03812403          	lw	s0,56(sp)
   172bc:	03412483          	lw	s1,52(sp)
   172c0:	02c12983          	lw	s3,44(sp)
   172c4:	02812a03          	lw	s4,40(sp)
   172c8:	02412a83          	lw	s5,36(sp)
   172cc:	fff00513          	li	a0,-1
   172d0:	04010113          	add	sp,sp,64
   172d4:	00008067          	ret
   172d8:	03012903          	lw	s2,48(sp)
   172dc:	02012b03          	lw	s6,32(sp)
   172e0:	01c12b83          	lw	s7,28(sp)
   172e4:	03c12083          	lw	ra,60(sp)
   172e8:	03812403          	lw	s0,56(sp)
   172ec:	03412483          	lw	s1,52(sp)
   172f0:	02c12983          	lw	s3,44(sp)
   172f4:	02812a03          	lw	s4,40(sp)
   172f8:	000a8513          	mv	a0,s5
   172fc:	02412a83          	lw	s5,36(sp)
   17300:	04010113          	add	sp,sp,64
   17304:	00008067          	ret
   17308:	00c45783          	lhu	a5,12(s0)
   1730c:	0407e793          	or	a5,a5,64
   17310:	00f41623          	sh	a5,12(s0)
   17314:	fa1ff06f          	j	0x172b4
   17318:	06462783          	lw	a5,100(a2)
   1731c:	fe010113          	add	sp,sp,-32
   17320:	00812c23          	sw	s0,24(sp)
   17324:	00912a23          	sw	s1,20(sp)
   17328:	0017f713          	and	a4,a5,1
   1732c:	00112e23          	sw	ra,28(sp)
   17330:	00c61783          	lh	a5,12(a2)
   17334:	00060413          	mv	s0,a2
   17338:	00050493          	mv	s1,a0
   1733c:	00071663          	bnez	a4,0x17348
   17340:	2007f713          	and	a4,a5,512
   17344:	08070463          	beqz	a4,0x173cc
   17348:	01279713          	sll	a4,a5,0x12
   1734c:	02074063          	bltz	a4,0x1736c
   17350:	06442703          	lw	a4,100(s0)
   17354:	000026b7          	lui	a3,0x2
   17358:	00d7e7b3          	or	a5,a5,a3
   1735c:	000026b7          	lui	a3,0x2
   17360:	00d76733          	or	a4,a4,a3
   17364:	00f41623          	sh	a5,12(s0)
   17368:	06e42223          	sw	a4,100(s0)
   1736c:	00048513          	mv	a0,s1
   17370:	00040613          	mv	a2,s0
   17374:	e45ff0ef          	jal	0x171b8
   17378:	06442783          	lw	a5,100(s0)
   1737c:	00050493          	mv	s1,a0
   17380:	0017f793          	and	a5,a5,1
   17384:	00079863          	bnez	a5,0x17394
   17388:	00c45783          	lhu	a5,12(s0)
   1738c:	2007f793          	and	a5,a5,512
   17390:	00078e63          	beqz	a5,0x173ac
   17394:	01c12083          	lw	ra,28(sp)
   17398:	01812403          	lw	s0,24(sp)
   1739c:	00048513          	mv	a0,s1
   173a0:	01412483          	lw	s1,20(sp)
   173a4:	02010113          	add	sp,sp,32
   173a8:	00008067          	ret
   173ac:	05842503          	lw	a0,88(s0)
   173b0:	b71f90ef          	jal	0x10f20
   173b4:	01c12083          	lw	ra,28(sp)
   173b8:	01812403          	lw	s0,24(sp)
   173bc:	00048513          	mv	a0,s1
   173c0:	01412483          	lw	s1,20(sp)
   173c4:	02010113          	add	sp,sp,32
   173c8:	00008067          	ret
   173cc:	05862503          	lw	a0,88(a2)
   173d0:	00b12623          	sw	a1,12(sp)
   173d4:	b35f90ef          	jal	0x10f08
   173d8:	00c41783          	lh	a5,12(s0)
   173dc:	00c12583          	lw	a1,12(sp)
   173e0:	f69ff06f          	j	0x17348
   173e4:	fe010113          	add	sp,sp,-32
   173e8:	00812c23          	sw	s0,24(sp)
   173ec:	00912a23          	sw	s1,20(sp)
   173f0:	00112e23          	sw	ra,28(sp)
   173f4:	f341a483          	lw	s1,-204(gp)
   173f8:	00058413          	mv	s0,a1
   173fc:	00050593          	mv	a1,a0
   17400:	00048663          	beqz	s1,0x1740c
   17404:	0344a783          	lw	a5,52(s1)
   17408:	0a078c63          	beqz	a5,0x174c0
   1740c:	06442703          	lw	a4,100(s0)
   17410:	00c41783          	lh	a5,12(s0)
   17414:	00177713          	and	a4,a4,1
   17418:	00071663          	bnez	a4,0x17424
   1741c:	2007f713          	and	a4,a5,512
   17420:	08070463          	beqz	a4,0x174a8
   17424:	01279713          	sll	a4,a5,0x12
   17428:	02074063          	bltz	a4,0x17448
   1742c:	06442703          	lw	a4,100(s0)
   17430:	000026b7          	lui	a3,0x2
   17434:	00d7e7b3          	or	a5,a5,a3
   17438:	000026b7          	lui	a3,0x2
   1743c:	00d76733          	or	a4,a4,a3
   17440:	00f41623          	sh	a5,12(s0)
   17444:	06e42223          	sw	a4,100(s0)
   17448:	00048513          	mv	a0,s1
   1744c:	00040613          	mv	a2,s0
   17450:	d69ff0ef          	jal	0x171b8
   17454:	06442783          	lw	a5,100(s0)
   17458:	00050493          	mv	s1,a0
   1745c:	0017f793          	and	a5,a5,1
   17460:	00079863          	bnez	a5,0x17470
   17464:	00c45783          	lhu	a5,12(s0)
   17468:	2007f793          	and	a5,a5,512
   1746c:	00078e63          	beqz	a5,0x17488
   17470:	01c12083          	lw	ra,28(sp)
   17474:	01812403          	lw	s0,24(sp)
   17478:	00048513          	mv	a0,s1
   1747c:	01412483          	lw	s1,20(sp)
   17480:	02010113          	add	sp,sp,32
   17484:	00008067          	ret
   17488:	05842503          	lw	a0,88(s0)
   1748c:	a95f90ef          	jal	0x10f20
   17490:	01c12083          	lw	ra,28(sp)
   17494:	01812403          	lw	s0,24(sp)
   17498:	00048513          	mv	a0,s1
   1749c:	01412483          	lw	s1,20(sp)
   174a0:	02010113          	add	sp,sp,32
   174a4:	00008067          	ret
   174a8:	05842503          	lw	a0,88(s0)
   174ac:	00b12623          	sw	a1,12(sp)
   174b0:	a59f90ef          	jal	0x10f08
   174b4:	00c41783          	lh	a5,12(s0)
   174b8:	00c12583          	lw	a1,12(sp)
   174bc:	f69ff06f          	j	0x17424
   174c0:	00a12623          	sw	a0,12(sp)
   174c4:	00048513          	mv	a0,s1
   174c8:	b98f90ef          	jal	0x10860
   174cc:	00c12583          	lw	a1,12(sp)
   174d0:	f3dff06f          	j	0x1740c
   174d4:	00357793          	and	a5,a0,3
   174d8:	0ff5f693          	zext.b	a3,a1
   174dc:	02078a63          	beqz	a5,0x17510
   174e0:	fff60793          	add	a5,a2,-1
   174e4:	02060e63          	beqz	a2,0x17520
   174e8:	fff00613          	li	a2,-1
   174ec:	0180006f          	j	0x17504
   174f0:	00150513          	add	a0,a0,1
   174f4:	00357713          	and	a4,a0,3
   174f8:	00070e63          	beqz	a4,0x17514
   174fc:	fff78793          	add	a5,a5,-1
   17500:	02c78063          	beq	a5,a2,0x17520
   17504:	00054703          	lbu	a4,0(a0)
   17508:	fed714e3          	bne	a4,a3,0x174f0
   1750c:	00008067          	ret
   17510:	00060793          	mv	a5,a2
   17514:	00300713          	li	a4,3
   17518:	00f76863          	bltu	a4,a5,0x17528
   1751c:	06079063          	bnez	a5,0x1757c
   17520:	00000513          	li	a0,0
   17524:	00008067          	ret
   17528:	0ff5f593          	zext.b	a1,a1
   1752c:	00859713          	sll	a4,a1,0x8
   17530:	00b705b3          	add	a1,a4,a1
   17534:	01059713          	sll	a4,a1,0x10
   17538:	feff08b7          	lui	a7,0xfeff0
   1753c:	80808837          	lui	a6,0x80808
   17540:	00e585b3          	add	a1,a1,a4
   17544:	eff88893          	add	a7,a7,-257 # 0xfefefeff
   17548:	08080813          	add	a6,a6,128 # 0x80808080
   1754c:	00300313          	li	t1,3
   17550:	0100006f          	j	0x17560
   17554:	ffc78793          	add	a5,a5,-4
   17558:	00450513          	add	a0,a0,4
   1755c:	fcf370e3          	bgeu	t1,a5,0x1751c
   17560:	00052703          	lw	a4,0(a0)
   17564:	00e5c733          	xor	a4,a1,a4
   17568:	01170633          	add	a2,a4,a7
   1756c:	fff74713          	not	a4,a4
   17570:	00e67733          	and	a4,a2,a4
   17574:	01077733          	and	a4,a4,a6
   17578:	fc070ee3          	beqz	a4,0x17554
   1757c:	00f507b3          	add	a5,a0,a5
   17580:	00c0006f          	j	0x1758c
   17584:	00150513          	add	a0,a0,1
   17588:	f8f50ce3          	beq	a0,a5,0x17520
   1758c:	00054703          	lbu	a4,0(a0)
   17590:	fed71ae3          	bne	a4,a3,0x17584
   17594:	00008067          	ret
   17598:	00a5e7b3          	or	a5,a1,a0
   1759c:	0037f793          	and	a5,a5,3
   175a0:	00079663          	bnez	a5,0x175ac
   175a4:	00300793          	li	a5,3
   175a8:	04c7e663          	bltu	a5,a2,0x175f4
   175ac:	00050713          	mv	a4,a0
   175b0:	01c0006f          	j	0x175cc
   175b4:	fff5c683          	lbu	a3,-1(a1)
   175b8:	fff60813          	add	a6,a2,-1
   175bc:	fed78fa3          	sb	a3,-1(a5)
   175c0:	00068e63          	beqz	a3,0x175dc
   175c4:	00078713          	mv	a4,a5
   175c8:	00080613          	mv	a2,a6
   175cc:	00158593          	add	a1,a1,1
   175d0:	00170793          	add	a5,a4,1
   175d4:	fe0610e3          	bnez	a2,0x175b4
   175d8:	00008067          	ret
   175dc:	00c70733          	add	a4,a4,a2
   175e0:	06080063          	beqz	a6,0x17640
   175e4:	00178793          	add	a5,a5,1
   175e8:	fe078fa3          	sb	zero,-1(a5)
   175ec:	fee79ce3          	bne	a5,a4,0x175e4
   175f0:	00008067          	ret
   175f4:	feff0337          	lui	t1,0xfeff0
   175f8:	808088b7          	lui	a7,0x80808
   175fc:	00050713          	mv	a4,a0
   17600:	eff30313          	add	t1,t1,-257 # 0xfefefeff
   17604:	08088893          	add	a7,a7,128 # 0x80808080
   17608:	00300e13          	li	t3,3
   1760c:	0180006f          	j	0x17624
   17610:	00d72023          	sw	a3,0(a4)
   17614:	ffc60613          	add	a2,a2,-4
   17618:	00470713          	add	a4,a4,4
   1761c:	00458593          	add	a1,a1,4
   17620:	face76e3          	bgeu	t3,a2,0x175cc
   17624:	0005a683          	lw	a3,0(a1)
   17628:	006687b3          	add	a5,a3,t1
   1762c:	fff6c813          	not	a6,a3
   17630:	0107f7b3          	and	a5,a5,a6
   17634:	0117f7b3          	and	a5,a5,a7
   17638:	fc078ce3          	beqz	a5,0x17610
   1763c:	f91ff06f          	j	0x175cc
   17640:	00008067          	ret
   17644:	fe010113          	add	sp,sp,-32
   17648:	00912a23          	sw	s1,20(sp)
   1764c:	d5818593          	add	a1,gp,-680
   17650:	45818513          	add	a0,gp,1112
   17654:	d7818493          	add	s1,gp,-648
   17658:	00812c23          	sw	s0,24(sp)
   1765c:	01212823          	sw	s2,16(sp)
   17660:	01312623          	sw	s3,12(sp)
   17664:	00112e23          	sw	ra,28(sp)
   17668:	e1818913          	add	s2,gp,-488
   1766c:	0a4010ef          	jal	0x18710
   17670:	00048413          	mv	s0,s1
   17674:	d5818993          	add	s3,gp,-680
   17678:	00040593          	mv	a1,s0
   1767c:	00098513          	mv	a0,s3
   17680:	140010ef          	jal	0x187c0
   17684:	02040413          	add	s0,s0,32
   17688:	02051463          	bnez	a0,0x176b0
   1768c:	ff2416e3          	bne	s0,s2,0x17678
   17690:	01c12083          	lw	ra,28(sp)
   17694:	01812403          	lw	s0,24(sp)
   17698:	01412483          	lw	s1,20(sp)
   1769c:	01012903          	lw	s2,16(sp)
   176a0:	00c12983          	lw	s3,12(sp)
   176a4:	45818513          	add	a0,gp,1112
   176a8:	02010113          	add	sp,sp,32
   176ac:	00008067          	ret
   176b0:	0000a997          	auipc	s3,0xa
   176b4:	5ec98993          	add	s3,s3,1516 # 0x21c9c
   176b8:	45818413          	add	s0,gp,1112
   176bc:	00098593          	mv	a1,s3
   176c0:	00040513          	mv	a0,s0
   176c4:	231050ef          	jal	0x1d0f4
   176c8:	00048593          	mv	a1,s1
   176cc:	00040513          	mv	a0,s0
   176d0:	02048493          	add	s1,s1,32
   176d4:	221050ef          	jal	0x1d0f4
   176d8:	ff2492e3          	bne	s1,s2,0x176bc
   176dc:	01c12083          	lw	ra,28(sp)
   176e0:	01812403          	lw	s0,24(sp)
   176e4:	01412483          	lw	s1,20(sp)
   176e8:	01012903          	lw	s2,16(sp)
   176ec:	00c12983          	lw	s3,12(sp)
   176f0:	45818513          	add	a0,gp,1112
   176f4:	02010113          	add	sp,sp,32
   176f8:	00008067          	ret
   176fc:	fa010113          	add	sp,sp,-96
   17700:	04912a23          	sw	s1,84(sp)
   17704:	00559493          	sll	s1,a1,0x5
   17708:	009504b3          	add	s1,a0,s1
   1770c:	05212823          	sw	s2,80(sp)
   17710:	05312623          	sw	s3,76(sp)
   17714:	00050913          	mv	s2,a0
   17718:	00058993          	mv	s3,a1
   1771c:	00060513          	mv	a0,a2
   17720:	00048593          	mv	a1,s1
   17724:	04812c23          	sw	s0,88(sp)
   17728:	04112e23          	sw	ra,92(sp)
   1772c:	00060413          	mv	s0,a2
   17730:	090010ef          	jal	0x187c0
   17734:	02051263          	bnez	a0,0x17758
   17738:	05c12083          	lw	ra,92(sp)
   1773c:	05812403          	lw	s0,88(sp)
   17740:	05012903          	lw	s2,80(sp)
   17744:	04c12983          	lw	s3,76(sp)
   17748:	00048513          	mv	a0,s1
   1774c:	05412483          	lw	s1,84(sp)
   17750:	06010113          	add	sp,sp,96
   17754:	00008067          	ret
   17758:	0000a597          	auipc	a1,0xa
   1775c:	54858593          	add	a1,a1,1352 # 0x21ca0
   17760:	00040513          	mv	a0,s0
   17764:	05412423          	sw	s4,72(sp)
   17768:	05512223          	sw	s5,68(sp)
   1776c:	054010ef          	jal	0x187c0
   17770:	08050663          	beqz	a0,0x177fc
   17774:	0000a597          	auipc	a1,0xa
   17778:	53458593          	add	a1,a1,1332 # 0x21ca8
   1777c:	00040513          	mv	a0,s0
   17780:	040010ef          	jal	0x187c0
   17784:	08050e63          	beqz	a0,0x17820
   17788:	00044783          	lbu	a5,0(s0)
   1778c:	04300713          	li	a4,67
   17790:	18e78063          	beq	a5,a4,0x17910
   17794:	f9f78793          	add	a5,a5,-97
   17798:	0ff7f793          	zext.b	a5,a5
   1779c:	01900713          	li	a4,25
   177a0:	04f76063          	bltu	a4,a5,0x177e0
   177a4:	00144783          	lbu	a5,1(s0)
   177a8:	f9f78793          	add	a5,a5,-97
   177ac:	0ff7f793          	zext.b	a5,a5
   177b0:	02f76863          	bltu	a4,a5,0x177e0
   177b4:	00244783          	lbu	a5,2(s0)
   177b8:	00240a93          	add	s5,s0,2
   177bc:	f9f78693          	add	a3,a5,-97
   177c0:	0ff6f693          	zext.b	a3,a3
   177c4:	02d77663          	bgeu	a4,a3,0x177f0
   177c8:	05f00713          	li	a4,95
   177cc:	1ee78e63          	beq	a5,a4,0x179c8
   177d0:	02e00713          	li	a4,46
   177d4:	66e78e63          	beq	a5,a4,0x17e50
   177d8:	0bf7f793          	and	a5,a5,191
   177dc:	18078463          	beqz	a5,0x17964
   177e0:	04812a03          	lw	s4,72(sp)
   177e4:	04412a83          	lw	s5,68(sp)
   177e8:	00000493          	li	s1,0
   177ec:	f4dff06f          	j	0x17738
   177f0:	00344783          	lbu	a5,3(s0)
   177f4:	00340a93          	add	s5,s0,3
   177f8:	fd1ff06f          	j	0x177c8
   177fc:	0000a597          	auipc	a1,0xa
   17800:	4ac58593          	add	a1,a1,1196 # 0x21ca8
   17804:	00040513          	mv	a0,s0
   17808:	709000ef          	jal	0x18710
   1780c:	0000a597          	auipc	a1,0xa
   17810:	49c58593          	add	a1,a1,1180 # 0x21ca8
   17814:	00040513          	mv	a0,s0
   17818:	7a9000ef          	jal	0x187c0
   1781c:	f60516e3          	bnez	a0,0x17788
   17820:	01010a13          	add	s4,sp,16
   17824:	0000a597          	auipc	a1,0xa
   17828:	48858593          	add	a1,a1,1160 # 0x21cac
   1782c:	000a0513          	mv	a0,s4
   17830:	05612023          	sw	s6,64(sp)
   17834:	03712e23          	sw	s7,60(sp)
   17838:	6d9000ef          	jal	0x18710
   1783c:	00000a93          	li	s5,0
   17840:	00000b13          	li	s6,0
   17844:	00000b93          	li	s7,0
   17848:	01014783          	lbu	a5,16(sp)
   1784c:	03400713          	li	a4,52
   17850:	fbf78793          	add	a5,a5,-65
   17854:	0ff7f793          	zext.b	a5,a5
   17858:	16f76263          	bltu	a4,a5,0x179bc
   1785c:	0000b717          	auipc	a4,0xb
   17860:	aa470713          	add	a4,a4,-1372 # 0x22300
   17864:	00279793          	sll	a5,a5,0x2
   17868:	00e787b3          	add	a5,a5,a4
   1786c:	0007a783          	lw	a5,0(a5)
   17870:	03812c23          	sw	s8,56(sp)
   17874:	03912a23          	sw	s9,52(sp)
   17878:	00e787b3          	add	a5,a5,a4
   1787c:	03a12823          	sw	s10,48(sp)
   17880:	00078067          	jr	a5
   17884:	01114783          	lbu	a5,17(sp)
   17888:	05000713          	li	a4,80
   1788c:	0df7f793          	and	a5,a5,223
   17890:	06e79463          	bne	a5,a4,0x178f8
   17894:	00200613          	li	a2,2
   17898:	0000a597          	auipc	a1,0xa
   1789c:	48c58593          	add	a1,a1,1164 # 0x21d24
   178a0:	000a0513          	mv	a0,s4
   178a4:	cf5ff0ef          	jal	0x17598
   178a8:	00a00613          	li	a2,10
   178ac:	00c10593          	add	a1,sp,12
   178b0:	01210513          	add	a0,sp,18
   178b4:	73d040ef          	jal	0x1c7f0
   178b8:	00c12783          	lw	a5,12(sp)
   178bc:	0007c783          	lbu	a5,0(a5)
   178c0:	02079c63          	bnez	a5,0x178f8
   178c4:	3a400793          	li	a5,932
   178c8:	26f50863          	beq	a0,a5,0x17b38
   178cc:	5aa7c463          	blt	a5,a0,0x17e74
   178d0:	36a00793          	li	a5,874
   178d4:	02a7c263          	blt	a5,a0,0x178f8
   178d8:	35100793          	li	a5,849
   178dc:	5aa7d863          	bge	a5,a0,0x17e8c
   178e0:	010117b7          	lui	a5,0x1011
   178e4:	cae50513          	add	a0,a0,-850
   178e8:	1a578793          	add	a5,a5,421 # 0x10111a5
   178ec:	00a7d7b3          	srl	a5,a5,a0
   178f0:	0017f793          	and	a5,a5,1
   178f4:	20079463          	bnez	a5,0x17afc
   178f8:	04012b03          	lw	s6,64(sp)
   178fc:	03c12b83          	lw	s7,60(sp)
   17900:	03812c03          	lw	s8,56(sp)
   17904:	03412c83          	lw	s9,52(sp)
   17908:	03012d03          	lw	s10,48(sp)
   1790c:	ed5ff06f          	j	0x177e0
   17910:	00144783          	lbu	a5,1(s0)
   17914:	00100713          	li	a4,1
   17918:	fd378793          	add	a5,a5,-45
   1791c:	0ff7f793          	zext.b	a5,a5
   17920:	ecf760e3          	bltu	a4,a5,0x177e0
   17924:	05612023          	sw	s6,64(sp)
   17928:	03712e23          	sw	s7,60(sp)
   1792c:	00240a93          	add	s5,s0,2
   17930:	01010a13          	add	s4,sp,16
   17934:	000a8593          	mv	a1,s5
   17938:	000a0513          	mv	a0,s4
   1793c:	5d5000ef          	jal	0x18710
   17940:	04000593          	li	a1,64
   17944:	000a0513          	mv	a0,s4
   17948:	035050ef          	jal	0x1d17c
   1794c:	00050463          	beqz	a0,0x17954
   17950:	00050023          	sb	zero,0(a0)
   17954:	000a0513          	mv	a0,s4
   17958:	52d000ef          	jal	0x18684
   1795c:	00aa8ab3          	add	s5,s5,a0
   17960:	0200006f          	j	0x17980
   17964:	01010a13          	add	s4,sp,16
   17968:	0000a597          	auipc	a1,0xa
   1796c:	34c58593          	add	a1,a1,844 # 0x21cb4
   17970:	000a0513          	mv	a0,s4
   17974:	05612023          	sw	s6,64(sp)
   17978:	03712e23          	sw	s7,60(sp)
   1797c:	595000ef          	jal	0x18710
   17980:	000ac703          	lbu	a4,0(s5)
   17984:	04000793          	li	a5,64
   17988:	eaf71ae3          	bne	a4,a5,0x1783c
   1798c:	03812c23          	sw	s8,56(sp)
   17990:	001a8c13          	add	s8,s5,1
   17994:	0000a597          	auipc	a1,0xa
   17998:	32c58593          	add	a1,a1,812 # 0x21cc0
   1799c:	000c0513          	mv	a0,s8
   179a0:	621000ef          	jal	0x187c0
   179a4:	00050b13          	mv	s6,a0
   179a8:	00000a93          	li	s5,0
   179ac:	00100b93          	li	s7,1
   179b0:	40051463          	bnez	a0,0x17db8
   179b4:	03812c03          	lw	s8,56(sp)
   179b8:	e91ff06f          	j	0x17848
   179bc:	04012b03          	lw	s6,64(sp)
   179c0:	03c12b83          	lw	s7,60(sp)
   179c4:	e1dff06f          	j	0x177e0
   179c8:	001ac783          	lbu	a5,1(s5)
   179cc:	01900713          	li	a4,25
   179d0:	fbf78793          	add	a5,a5,-65
   179d4:	0ff7f793          	zext.b	a5,a5
   179d8:	e0f764e3          	bltu	a4,a5,0x177e0
   179dc:	002ac783          	lbu	a5,2(s5)
   179e0:	fbf78793          	add	a5,a5,-65
   179e4:	0ff7f793          	zext.b	a5,a5
   179e8:	def76ce3          	bltu	a4,a5,0x177e0
   179ec:	003ac783          	lbu	a5,3(s5)
   179f0:	003a8a93          	add	s5,s5,3
   179f4:	dddff06f          	j	0x177d0
   179f8:	0000a597          	auipc	a1,0xa
   179fc:	2e858593          	add	a1,a1,744 # 0x21ce0
   17a00:	000a0513          	mv	a0,s4
   17a04:	684050ef          	jal	0x1d088
   17a08:	00050c63          	beqz	a0,0x17a20
   17a0c:	0000a597          	auipc	a1,0xa
   17a10:	2dc58593          	add	a1,a1,732 # 0x21ce8
   17a14:	000a0513          	mv	a0,s4
   17a18:	670050ef          	jal	0x1d088
   17a1c:	ec051ee3          	bnez	a0,0x178f8
   17a20:	0000a597          	auipc	a1,0xa
   17a24:	2c058593          	add	a1,a1,704 # 0x21ce0
   17a28:	000a0513          	mv	a0,s4
   17a2c:	4e5000ef          	jal	0x18710
   17a30:	00003c97          	auipc	s9,0x3
   17a34:	a60c8c93          	add	s9,s9,-1440 # 0x1a490
   17a38:	00005d17          	auipc	s10,0x5
   17a3c:	e04d0d13          	add	s10,s10,-508 # 0x1c83c
   17a40:	00600c13          	li	s8,6
   17a44:	00200793          	li	a5,2
   17a48:	3af98863          	beq	s3,a5,0x17df8
   17a4c:	00600793          	li	a5,6
   17a50:	00f99863          	bne	s3,a5,0x17a60
   17a54:	000a0593          	mv	a1,s4
   17a58:	14a90513          	add	a0,s2,330
   17a5c:	4b5000ef          	jal	0x18710
   17a60:	00040593          	mv	a1,s0
   17a64:	00048513          	mv	a0,s1
   17a68:	4a9000ef          	jal	0x18710
   17a6c:	05c12083          	lw	ra,92(sp)
   17a70:	05812403          	lw	s0,88(sp)
   17a74:	00050493          	mv	s1,a0
   17a78:	04812a03          	lw	s4,72(sp)
   17a7c:	04412a83          	lw	s5,68(sp)
   17a80:	04012b03          	lw	s6,64(sp)
   17a84:	03c12b83          	lw	s7,60(sp)
   17a88:	03812c03          	lw	s8,56(sp)
   17a8c:	03412c83          	lw	s9,52(sp)
   17a90:	03012d03          	lw	s10,48(sp)
   17a94:	05012903          	lw	s2,80(sp)
   17a98:	04c12983          	lw	s3,76(sp)
   17a9c:	00048513          	mv	a0,s1
   17aa0:	05412483          	lw	s1,84(sp)
   17aa4:	06010113          	add	sp,sp,96
   17aa8:	00008067          	ret
   17aac:	00300613          	li	a2,3
   17ab0:	0000a597          	auipc	a1,0xa
   17ab4:	2b858593          	add	a1,a1,696 # 0x21d68
   17ab8:	000a0513          	mv	a0,s4
   17abc:	045050ef          	jal	0x1d300
   17ac0:	e2051ce3          	bnez	a0,0x178f8
   17ac4:	01314503          	lbu	a0,19(sp)
   17ac8:	0000a597          	auipc	a1,0xa
   17acc:	2a458593          	add	a1,a1,676 # 0x21d6c
   17ad0:	fd350513          	add	a0,a0,-45
   17ad4:	00153513          	seqz	a0,a0
   17ad8:	03050793          	add	a5,a0,48
   17adc:	00278533          	add	a0,a5,sp
   17ae0:	fe350513          	add	a0,a0,-29
   17ae4:	4dd000ef          	jal	0x187c0
   17ae8:	e00518e3          	bnez	a0,0x178f8
   17aec:	0000a597          	auipc	a1,0xa
   17af0:	28458593          	add	a1,a1,644 # 0x21d70
   17af4:	000a0513          	mv	a0,s4
   17af8:	419000ef          	jal	0x18710
   17afc:	00003c97          	auipc	s9,0x3
   17b00:	92cc8c93          	add	s9,s9,-1748 # 0x1a428
   17b04:	00005d17          	auipc	s10,0x5
   17b08:	d08d0d13          	add	s10,s10,-760 # 0x1c80c
   17b0c:	00100c13          	li	s8,1
   17b10:	f35ff06f          	j	0x17a44
   17b14:	0000a597          	auipc	a1,0xa
   17b18:	1f058593          	add	a1,a1,496 # 0x21d04
   17b1c:	000a0513          	mv	a0,s4
   17b20:	568050ef          	jal	0x1d088
   17b24:	dc051ae3          	bnez	a0,0x178f8
   17b28:	0000a597          	auipc	a1,0xa
   17b2c:	1dc58593          	add	a1,a1,476 # 0x21d04
   17b30:	000a0513          	mv	a0,s4
   17b34:	3dd000ef          	jal	0x18710
   17b38:	00003c97          	auipc	s9,0x3
   17b3c:	c50c8c93          	add	s9,s9,-944 # 0x1a788
   17b40:	00005d17          	auipc	s10,0x5
   17b44:	de8d0d13          	add	s10,s10,-536 # 0x1c928
   17b48:	00200c13          	li	s8,2
   17b4c:	ef9ff06f          	j	0x17a44
   17b50:	0000a597          	auipc	a1,0xa
   17b54:	20858593          	add	a1,a1,520 # 0x21d58
   17b58:	000a0513          	mv	a0,s4
   17b5c:	52c050ef          	jal	0x1d088
   17b60:	d8051ce3          	bnez	a0,0x178f8
   17b64:	0000a597          	auipc	a1,0xa
   17b68:	1fc58593          	add	a1,a1,508 # 0x21d60
   17b6c:	000a0513          	mv	a0,s4
   17b70:	3a1000ef          	jal	0x18710
   17b74:	f89ff06f          	j	0x17afc
   17b78:	00400613          	li	a2,4
   17b7c:	0000a597          	auipc	a1,0xa
   17b80:	1ac58593          	add	a1,a1,428 # 0x21d28
   17b84:	000a0513          	mv	a0,s4
   17b88:	778050ef          	jal	0x1d300
   17b8c:	d60516e3          	bnez	a0,0x178f8
   17b90:	01414783          	lbu	a5,20(sp)
   17b94:	02d00713          	li	a4,45
   17b98:	00e79463          	bne	a5,a4,0x17ba0
   17b9c:	01514783          	lbu	a5,21(sp)
   17ba0:	0df7f793          	and	a5,a5,223
   17ba4:	05200713          	li	a4,82
   17ba8:	2ae78c63          	beq	a5,a4,0x17e60
   17bac:	05500713          	li	a4,85
   17bb0:	d4e794e3          	bne	a5,a4,0x178f8
   17bb4:	0000a597          	auipc	a1,0xa
   17bb8:	18458593          	add	a1,a1,388 # 0x21d38
   17bbc:	000a0513          	mv	a0,s4
   17bc0:	351000ef          	jal	0x18710
   17bc4:	f39ff06f          	j	0x17afc
   17bc8:	0000a597          	auipc	a1,0xa
   17bcc:	12858593          	add	a1,a1,296 # 0x21cf0
   17bd0:	000a0513          	mv	a0,s4
   17bd4:	4b4050ef          	jal	0x1d088
   17bd8:	d20510e3          	bnez	a0,0x178f8
   17bdc:	0000a597          	auipc	a1,0xa
   17be0:	11458593          	add	a1,a1,276 # 0x21cf0
   17be4:	000a0513          	mv	a0,s4
   17be8:	329000ef          	jal	0x18710
   17bec:	00003c97          	auipc	s9,0x3
   17bf0:	f18c8c93          	add	s9,s9,-232 # 0x1ab04
   17bf4:	00005d17          	auipc	s10,0x5
   17bf8:	e64d0d13          	add	s10,s10,-412 # 0x1ca58
   17bfc:	00800c13          	li	s8,8
   17c00:	e45ff06f          	j	0x17a44
   17c04:	00300613          	li	a2,3
   17c08:	0000a597          	auipc	a1,0xa
   17c0c:	10458593          	add	a1,a1,260 # 0x21d0c
   17c10:	000a0513          	mv	a0,s4
   17c14:	6ec050ef          	jal	0x1d300
   17c18:	ce0510e3          	bnez	a0,0x178f8
   17c1c:	01314783          	lbu	a5,19(sp)
   17c20:	00400613          	li	a2,4
   17c24:	0000a597          	auipc	a1,0xa
   17c28:	0ec58593          	add	a1,a1,236 # 0x21d10
   17c2c:	fd378793          	add	a5,a5,-45
   17c30:	0017b793          	seqz	a5,a5
   17c34:	03078793          	add	a5,a5,48
   17c38:	002787b3          	add	a5,a5,sp
   17c3c:	fe378c13          	add	s8,a5,-29
   17c40:	000c0513          	mv	a0,s8
   17c44:	6bc050ef          	jal	0x1d300
   17c48:	ca0518e3          	bnez	a0,0x178f8
   17c4c:	004c4503          	lbu	a0,4(s8)
   17c50:	00a00613          	li	a2,10
   17c54:	00c10593          	add	a1,sp,12
   17c58:	fd350513          	add	a0,a0,-45
   17c5c:	00153513          	seqz	a0,a0
   17c60:	00ac0533          	add	a0,s8,a0
   17c64:	00450513          	add	a0,a0,4
   17c68:	389040ef          	jal	0x1c7f0
   17c6c:	fff50713          	add	a4,a0,-1
   17c70:	00f00793          	li	a5,15
   17c74:	00050c13          	mv	s8,a0
   17c78:	c8e7e0e3          	bltu	a5,a4,0x178f8
   17c7c:	00c00793          	li	a5,12
   17c80:	c6f50ce3          	beq	a0,a5,0x178f8
   17c84:	00c12783          	lw	a5,12(sp)
   17c88:	0007c783          	lbu	a5,0(a5)
   17c8c:	c60796e3          	bnez	a5,0x178f8
   17c90:	0000a597          	auipc	a1,0xa
   17c94:	08858593          	add	a1,a1,136 # 0x21d18
   17c98:	000a0513          	mv	a0,s4
   17c9c:	275000ef          	jal	0x18710
   17ca0:	00a00793          	li	a5,10
   17ca4:	01910c93          	add	s9,sp,25
   17ca8:	0187d863          	bge	a5,s8,0x17cb8
   17cac:	03100793          	li	a5,49
   17cb0:	00f10ca3          	sb	a5,25(sp)
   17cb4:	01a10c93          	add	s9,sp,26
   17cb8:	00a00593          	li	a1,10
   17cbc:	000c0513          	mv	a0,s8
   17cc0:	635090ef          	jal	0x21af4
   17cc4:	03050793          	add	a5,a0,48
   17cc8:	00fc8023          	sb	a5,0(s9)
   17ccc:	000c80a3          	sb	zero,1(s9)
   17cd0:	e2dff06f          	j	0x17afc
   17cd4:	00800613          	li	a2,8
   17cd8:	0000a597          	auipc	a1,0xa
   17cdc:	06858593          	add	a1,a1,104 # 0x21d40
   17ce0:	000a0513          	mv	a0,s4
   17ce4:	61c050ef          	jal	0x1d300
   17ce8:	c00518e3          	bnez	a0,0x178f8
   17cec:	01814503          	lbu	a0,24(sp)
   17cf0:	0000a597          	auipc	a1,0xa
   17cf4:	05c58593          	add	a1,a1,92 # 0x21d4c
   17cf8:	fd350513          	add	a0,a0,-45
   17cfc:	00153513          	seqz	a0,a0
   17d00:	03050793          	add	a5,a0,48
   17d04:	00278533          	add	a0,a5,sp
   17d08:	fe850513          	add	a0,a0,-24
   17d0c:	37c050ef          	jal	0x1d088
   17d10:	be0514e3          	bnez	a0,0x178f8
   17d14:	0000a597          	auipc	a1,0xa
   17d18:	03c58593          	add	a1,a1,60 # 0x21d50
   17d1c:	000a0513          	mv	a0,s4
   17d20:	1f1000ef          	jal	0x18710
   17d24:	dd9ff06f          	j	0x17afc
   17d28:	00300613          	li	a2,3
   17d2c:	0000a597          	auipc	a1,0xa
   17d30:	fc858593          	add	a1,a1,-56 # 0x21cf4
   17d34:	000a0513          	mv	a0,s4
   17d38:	5c8050ef          	jal	0x1d300
   17d3c:	ba051ee3          	bnez	a0,0x178f8
   17d40:	01314503          	lbu	a0,19(sp)
   17d44:	0000a597          	auipc	a1,0xa
   17d48:	fb458593          	add	a1,a1,-76 # 0x21cf8
   17d4c:	fd350513          	add	a0,a0,-45
   17d50:	00153513          	seqz	a0,a0
   17d54:	03050793          	add	a5,a0,48
   17d58:	00278533          	add	a0,a5,sp
   17d5c:	fe350513          	add	a0,a0,-29
   17d60:	328050ef          	jal	0x1d088
   17d64:	b8051ae3          	bnez	a0,0x178f8
   17d68:	0000a597          	auipc	a1,0xa
   17d6c:	f9458593          	add	a1,a1,-108 # 0x21cfc
   17d70:	000a0513          	mv	a0,s4
   17d74:	19d000ef          	jal	0x18710
   17d78:	00003c97          	auipc	s9,0x3
   17d7c:	b80c8c93          	add	s9,s9,-1152 # 0x1a8f8
   17d80:	00005d17          	auipc	s10,0x5
   17d84:	c2cd0d13          	add	s10,s10,-980 # 0x1c9ac
   17d88:	00300c13          	li	s8,3
   17d8c:	cb9ff06f          	j	0x17a44
   17d90:	0000a597          	auipc	a1,0xa
   17d94:	f1c58593          	add	a1,a1,-228 # 0x21cac
   17d98:	000a0513          	mv	a0,s4
   17d9c:	2ec050ef          	jal	0x1d088
   17da0:	b4051ce3          	bnez	a0,0x178f8
   17da4:	0000a597          	auipc	a1,0xa
   17da8:	f0858593          	add	a1,a1,-248 # 0x21cac
   17dac:	000a0513          	mv	a0,s4
   17db0:	161000ef          	jal	0x18710
   17db4:	d49ff06f          	j	0x17afc
   17db8:	0000a597          	auipc	a1,0xa
   17dbc:	f1458593          	add	a1,a1,-236 # 0x21ccc
   17dc0:	000c0513          	mv	a0,s8
   17dc4:	1fd000ef          	jal	0x187c0
   17dc8:	00050a93          	mv	s5,a0
   17dcc:	00000b93          	li	s7,0
   17dd0:	00100b13          	li	s6,1
   17dd4:	be0500e3          	beqz	a0,0x179b4
   17dd8:	000c0513          	mv	a0,s8
   17ddc:	0000a597          	auipc	a1,0xa
   17de0:	efc58593          	add	a1,a1,-260 # 0x21cd8
   17de4:	1dd000ef          	jal	0x187c0
   17de8:	00153a93          	seqz	s5,a0
   17dec:	03812c03          	lw	s8,56(sp)
   17df0:	00000b13          	li	s6,0
   17df4:	a55ff06f          	j	0x17848
   17df8:	000a0593          	mv	a1,s4
   17dfc:	12a90513          	add	a0,s2,298
   17e00:	111000ef          	jal	0x18710
   17e04:	000a0593          	mv	a1,s4
   17e08:	13890423          	sb	s8,296(s2)
   17e0c:	0fa92023          	sw	s10,224(s2)
   17e10:	0f992223          	sw	s9,228(s2)
   17e14:	00090513          	mv	a0,s2
   17e18:	651040ef          	jal	0x1cc68
   17e1c:	000a9e63          	bnez	s5,0x17e38
   17e20:	000b1c63          	bnez	s6,0x17e38
   17e24:	00100793          	li	a5,1
   17e28:	00fc0863          	beq	s8,a5,0x17e38
   17e2c:	01014a83          	lbu	s5,16(sp)
   17e30:	faba8a93          	add	s5,s5,-85
   17e34:	01503ab3          	snez	s5,s5
   17e38:	000b9663          	bnez	s7,0x17e44
   17e3c:	0f592423          	sw	s5,232(s2)
   17e40:	c21ff06f          	j	0x17a60
   17e44:	fff00793          	li	a5,-1
   17e48:	0ef92423          	sw	a5,232(s2)
   17e4c:	c15ff06f          	j	0x17a60
   17e50:	05612023          	sw	s6,64(sp)
   17e54:	03712e23          	sw	s7,60(sp)
   17e58:	001a8a93          	add	s5,s5,1
   17e5c:	ad5ff06f          	j	0x17930
   17e60:	0000a597          	auipc	a1,0xa
   17e64:	ed058593          	add	a1,a1,-304 # 0x21d30
   17e68:	000a0513          	mv	a0,s4
   17e6c:	0a5000ef          	jal	0x18710
   17e70:	c8dff06f          	j	0x17afc
   17e74:	46500793          	li	a5,1125
   17e78:	c8f502e3          	beq	a0,a5,0x17afc
   17e7c:	b1e50513          	add	a0,a0,-1250
   17e80:	00800793          	li	a5,8
   17e84:	c6a7fce3          	bgeu	a5,a0,0x17afc
   17e88:	a71ff06f          	j	0x178f8
   17e8c:	2e100793          	li	a5,737
   17e90:	c6f506e3          	beq	a0,a5,0x17afc
   17e94:	00a7cc63          	blt	a5,a0,0x17eac
   17e98:	1b500793          	li	a5,437
   17e9c:	c6f500e3          	beq	a0,a5,0x17afc
   17ea0:	2d000793          	li	a5,720
   17ea4:	a4f51ae3          	bne	a0,a5,0x178f8
   17ea8:	c55ff06f          	j	0x17afc
   17eac:	30700793          	li	a5,775
   17eb0:	a4f514e3          	bne	a0,a5,0x178f8
   17eb4:	c49ff06f          	j	0x17afc
   17eb8:	ff010113          	add	sp,sp,-16
   17ebc:	00812423          	sw	s0,8(sp)
   17ec0:	00058413          	mv	s0,a1
   17ec4:	0000a597          	auipc	a1,0xa
   17ec8:	eb458593          	add	a1,a1,-332 # 0x21d78
   17ecc:	00912223          	sw	s1,4(sp)
   17ed0:	00112623          	sw	ra,12(sp)
   17ed4:	00050493          	mv	s1,a0
   17ed8:	52c020ef          	jal	0x1a404
   17edc:	00050663          	beqz	a0,0x17ee8
   17ee0:	00054783          	lbu	a5,0(a0)
   17ee4:	04079663          	bnez	a5,0x17f30
   17ee8:	00241793          	sll	a5,s0,0x2
   17eec:	0000a717          	auipc	a4,0xa
   17ef0:	65470713          	add	a4,a4,1620 # 0x22540
   17ef4:	00f707b3          	add	a5,a4,a5
   17ef8:	0007a583          	lw	a1,0(a5)
   17efc:	00048513          	mv	a0,s1
   17f00:	504020ef          	jal	0x1a404
   17f04:	00050663          	beqz	a0,0x17f10
   17f08:	00054783          	lbu	a5,0(a0)
   17f0c:	02079263          	bnez	a5,0x17f30
   17f10:	0000a597          	auipc	a1,0xa
   17f14:	e7058593          	add	a1,a1,-400 # 0x21d80
   17f18:	00048513          	mv	a0,s1
   17f1c:	4e8020ef          	jal	0x1a404
   17f20:	00050663          	beqz	a0,0x17f2c
   17f24:	00054783          	lbu	a5,0(a0)
   17f28:	00079463          	bnez	a5,0x17f30
   17f2c:	ea418513          	add	a0,gp,-348
   17f30:	00c12083          	lw	ra,12(sp)
   17f34:	00812403          	lw	s0,8(sp)
   17f38:	00412483          	lw	s1,4(sp)
   17f3c:	01010113          	add	sp,sp,16
   17f40:	00008067          	ret
   17f44:	fd010113          	add	sp,sp,-48
   17f48:	01312e23          	sw	s3,28(sp)
   17f4c:	02112623          	sw	ra,44(sp)
   17f50:	01512a23          	sw	s5,20(sp)
   17f54:	00600793          	li	a5,6
   17f58:	00050993          	mv	s3,a0
   17f5c:	1ab7e063          	bltu	a5,a1,0x180fc
   17f60:	01612823          	sw	s6,16(sp)
   17f64:	01712623          	sw	s7,12(sp)
   17f68:	00060b13          	mv	s6,a2
   17f6c:	00058b93          	mv	s7,a1
   17f70:	28060863          	beqz	a2,0x18200
   17f74:	03212023          	sw	s2,32(sp)
   17f78:	01412c23          	sw	s4,24(sp)
   17f7c:	d5818913          	add	s2,gp,-680
   17f80:	39818a13          	add	s4,gp,920
   17f84:	02812423          	sw	s0,40(sp)
   17f88:	02912223          	sw	s1,36(sp)
   17f8c:	45818a93          	add	s5,gp,1112
   17f90:	00090493          	mv	s1,s2
   17f94:	000a0413          	mv	s0,s4
   17f98:	00048593          	mv	a1,s1
   17f9c:	00040513          	mv	a0,s0
   17fa0:	02040413          	add	s0,s0,32
   17fa4:	76c000ef          	jal	0x18710
   17fa8:	02048493          	add	s1,s1,32
   17fac:	ff5416e3          	bne	s0,s5,0x17f98
   17fb0:	000b4783          	lbu	a5,0(s6)
   17fb4:	0c079663          	bnez	a5,0x18080
   17fb8:	260b9a63          	bnez	s7,0x1822c
   17fbc:	39818a93          	add	s5,gp,920
   17fc0:	00100413          	li	s0,1
   17fc4:	01f00b13          	li	s6,31
   17fc8:	00700b93          	li	s7,7
   17fcc:	00040593          	mv	a1,s0
   17fd0:	00098513          	mv	a0,s3
   17fd4:	ee5ff0ef          	jal	0x17eb8
   17fd8:	00050493          	mv	s1,a0
   17fdc:	6a8000ef          	jal	0x18684
   17fe0:	00050793          	mv	a5,a0
   17fe4:	00048593          	mv	a1,s1
   17fe8:	000a8513          	mv	a0,s5
   17fec:	0efb6c63          	bltu	s6,a5,0x180e4
   17ff0:	00140413          	add	s0,s0,1
   17ff4:	71c000ef          	jal	0x18710
   17ff8:	020a8a93          	add	s5,s5,32
   17ffc:	fd7418e3          	bne	s0,s7,0x17fcc
   18000:	01812423          	sw	s8,8(sp)
   18004:	2b818c13          	add	s8,gp,696
   18008:	39818a93          	add	s5,gp,920
   1800c:	000c0493          	mv	s1,s8
   18010:	00100413          	li	s0,1
   18014:	d3818b93          	add	s7,gp,-712
   18018:	00700b13          	li	s6,7
   1801c:	00090593          	mv	a1,s2
   18020:	00048513          	mv	a0,s1
   18024:	6ec000ef          	jal	0x18710
   18028:	000a8613          	mv	a2,s5
   1802c:	00040593          	mv	a1,s0
   18030:	000b8513          	mv	a0,s7
   18034:	ec8ff0ef          	jal	0x176fc
   18038:	22050663          	beqz	a0,0x18264
   1803c:	00140413          	add	s0,s0,1
   18040:	02048493          	add	s1,s1,32
   18044:	02090913          	add	s2,s2,32
   18048:	020a8a93          	add	s5,s5,32
   1804c:	fd6418e3          	bne	s0,s6,0x1801c
   18050:	02812403          	lw	s0,40(sp)
   18054:	02412483          	lw	s1,36(sp)
   18058:	02012903          	lw	s2,32(sp)
   1805c:	01812a03          	lw	s4,24(sp)
   18060:	01012b03          	lw	s6,16(sp)
   18064:	00c12b83          	lw	s7,12(sp)
   18068:	00812c03          	lw	s8,8(sp)
   1806c:	02c12083          	lw	ra,44(sp)
   18070:	01c12983          	lw	s3,28(sp)
   18074:	01412a83          	lw	s5,20(sp)
   18078:	03010113          	add	sp,sp,48
   1807c:	dc8ff06f          	j	0x17644
   18080:	080b8e63          	beqz	s7,0x1811c
   18084:	000b0513          	mv	a0,s6
   18088:	5fc000ef          	jal	0x18684
   1808c:	01f00793          	li	a5,31
   18090:	04a7ea63          	bltu	a5,a0,0x180e4
   18094:	005b9413          	sll	s0,s7,0x5
   18098:	37818793          	add	a5,gp,888
   1809c:	00f40433          	add	s0,s0,a5
   180a0:	000b0593          	mv	a1,s6
   180a4:	00040513          	mv	a0,s0
   180a8:	668000ef          	jal	0x18710
   180ac:	00040613          	mv	a2,s0
   180b0:	02812403          	lw	s0,40(sp)
   180b4:	02412483          	lw	s1,36(sp)
   180b8:	02012903          	lw	s2,32(sp)
   180bc:	01812a03          	lw	s4,24(sp)
   180c0:	01012b03          	lw	s6,16(sp)
   180c4:	02c12083          	lw	ra,44(sp)
   180c8:	01c12983          	lw	s3,28(sp)
   180cc:	01412a83          	lw	s5,20(sp)
   180d0:	000b8593          	mv	a1,s7
   180d4:	00c12b83          	lw	s7,12(sp)
   180d8:	d3818513          	add	a0,gp,-712
   180dc:	03010113          	add	sp,sp,48
   180e0:	e1cff06f          	j	0x176fc
   180e4:	02812403          	lw	s0,40(sp)
   180e8:	02412483          	lw	s1,36(sp)
   180ec:	02012903          	lw	s2,32(sp)
   180f0:	01812a03          	lw	s4,24(sp)
   180f4:	01012b03          	lw	s6,16(sp)
   180f8:	00c12b83          	lw	s7,12(sp)
   180fc:	01600a93          	li	s5,22
   18100:	02c12083          	lw	ra,44(sp)
   18104:	0159a023          	sw	s5,0(s3)
   18108:	00000513          	li	a0,0
   1810c:	01c12983          	lw	s3,28(sp)
   18110:	01412a83          	lw	s5,20(sp)
   18114:	03010113          	add	sp,sp,48
   18118:	00008067          	ret
   1811c:	02f00593          	li	a1,47
   18120:	000b0513          	mv	a0,s6
   18124:	058050ef          	jal	0x1d17c
   18128:	00050413          	mv	s0,a0
   1812c:	1c050863          	beqz	a0,0x182fc
   18130:	00154783          	lbu	a5,1(a0)
   18134:	02f00693          	li	a3,47
   18138:	02f00713          	li	a4,47
   1813c:	00d79863          	bne	a5,a3,0x1814c
   18140:	00244783          	lbu	a5,2(s0)
   18144:	00140413          	add	s0,s0,1
   18148:	fee78ce3          	beq	a5,a4,0x18140
   1814c:	f8078ce3          	beqz	a5,0x180e4
   18150:	01812423          	sw	s8,8(sp)
   18154:	01912223          	sw	s9,4(sp)
   18158:	01a12023          	sw	s10,0(sp)
   1815c:	00100c93          	li	s9,1
   18160:	39818d13          	add	s10,gp,920
   18164:	01f00b93          	li	s7,31
   18168:	02f00493          	li	s1,47
   1816c:	00700c13          	li	s8,7
   18170:	41640633          	sub	a2,s0,s6
   18174:	1acbcc63          	blt	s7,a2,0x1832c
   18178:	00160613          	add	a2,a2,1
   1817c:	000b0593          	mv	a1,s6
   18180:	000d0513          	mv	a0,s10
   18184:	138050ef          	jal	0x1d2bc
   18188:	00044783          	lbu	a5,0(s0)
   1818c:	001c8c93          	add	s9,s9,1
   18190:	00979863          	bne	a5,s1,0x181a0
   18194:	00144783          	lbu	a5,1(s0)
   18198:	00140413          	add	s0,s0,1
   1819c:	fe978ce3          	beq	a5,s1,0x18194
   181a0:	02078663          	beqz	a5,0x181cc
   181a4:	00040793          	mv	a5,s0
   181a8:	0017c703          	lbu	a4,1(a5)
   181ac:	00178793          	add	a5,a5,1
   181b0:	00070463          	beqz	a4,0x181b8
   181b4:	fe971ae3          	bne	a4,s1,0x181a8
   181b8:	020d0d13          	add	s10,s10,32
   181bc:	038c8c63          	beq	s9,s8,0x181f4
   181c0:	00040b13          	mv	s6,s0
   181c4:	00078413          	mv	s0,a5
   181c8:	fa9ff06f          	j	0x18170
   181cc:	00700793          	li	a5,7
   181d0:	02fc8263          	beq	s9,a5,0x181f4
   181d4:	005c9413          	sll	s0,s9,0x5
   181d8:	37818793          	add	a5,gp,888
   181dc:	00f40433          	add	s0,s0,a5
   181e0:	fe040593          	add	a1,s0,-32
   181e4:	00040513          	mv	a0,s0
   181e8:	02040413          	add	s0,s0,32
   181ec:	524000ef          	jal	0x18710
   181f0:	ff5418e3          	bne	s0,s5,0x181e0
   181f4:	00412c83          	lw	s9,4(sp)
   181f8:	00012d03          	lw	s10,0(sp)
   181fc:	e09ff06f          	j	0x18004
   18200:	0e058863          	beqz	a1,0x182f0
   18204:	02c12083          	lw	ra,44(sp)
   18208:	00559513          	sll	a0,a1,0x5
   1820c:	d3818793          	add	a5,gp,-712
   18210:	01012b03          	lw	s6,16(sp)
   18214:	00c12b83          	lw	s7,12(sp)
   18218:	01c12983          	lw	s3,28(sp)
   1821c:	01412a83          	lw	s5,20(sp)
   18220:	00f50533          	add	a0,a0,a5
   18224:	03010113          	add	sp,sp,48
   18228:	00008067          	ret
   1822c:	000b8593          	mv	a1,s7
   18230:	00098513          	mv	a0,s3
   18234:	c85ff0ef          	jal	0x17eb8
   18238:	00050493          	mv	s1,a0
   1823c:	448000ef          	jal	0x18684
   18240:	01f00793          	li	a5,31
   18244:	eaa7e0e3          	bltu	a5,a0,0x180e4
   18248:	005b9413          	sll	s0,s7,0x5
   1824c:	37818793          	add	a5,gp,888
   18250:	00f40433          	add	s0,s0,a5
   18254:	00048593          	mv	a1,s1
   18258:	00040513          	mv	a0,s0
   1825c:	4b4000ef          	jal	0x18710
   18260:	e4dff06f          	j	0x180ac
   18264:	00100493          	li	s1,1
   18268:	0009aa83          	lw	s5,0(s3)
   1826c:	d3818913          	add	s2,gp,-712
   18270:	0000ab17          	auipc	s6,0xa
   18274:	a38b0b13          	add	s6,s6,-1480 # 0x21ca8
   18278:	00941c63          	bne	s0,s1,0x18290
   1827c:	0540006f          	j	0x182d0
   18280:	00148493          	add	s1,s1,1
   18284:	020a0a13          	add	s4,s4,32
   18288:	020c0c13          	add	s8,s8,32
   1828c:	04848263          	beq	s1,s0,0x182d0
   18290:	000c0593          	mv	a1,s8
   18294:	000a0513          	mv	a0,s4
   18298:	478000ef          	jal	0x18710
   1829c:	000a0613          	mv	a2,s4
   182a0:	00048593          	mv	a1,s1
   182a4:	00090513          	mv	a0,s2
   182a8:	c54ff0ef          	jal	0x176fc
   182ac:	fc051ae3          	bnez	a0,0x18280
   182b0:	000b0593          	mv	a1,s6
   182b4:	000a0513          	mv	a0,s4
   182b8:	458000ef          	jal	0x18710
   182bc:	000a0613          	mv	a2,s4
   182c0:	00048593          	mv	a1,s1
   182c4:	00090513          	mv	a0,s2
   182c8:	c34ff0ef          	jal	0x176fc
   182cc:	fb5ff06f          	j	0x18280
   182d0:	02812403          	lw	s0,40(sp)
   182d4:	02412483          	lw	s1,36(sp)
   182d8:	02012903          	lw	s2,32(sp)
   182dc:	01812a03          	lw	s4,24(sp)
   182e0:	01012b03          	lw	s6,16(sp)
   182e4:	00c12b83          	lw	s7,12(sp)
   182e8:	00812c03          	lw	s8,8(sp)
   182ec:	e15ff06f          	j	0x18100
   182f0:	01012b03          	lw	s6,16(sp)
   182f4:	00c12b83          	lw	s7,12(sp)
   182f8:	d75ff06f          	j	0x1806c
   182fc:	000b0513          	mv	a0,s6
   18300:	384000ef          	jal	0x18684
   18304:	01f00793          	li	a5,31
   18308:	dca7eee3          	bltu	a5,a0,0x180e4
   1830c:	01812423          	sw	s8,8(sp)
   18310:	39818413          	add	s0,gp,920
   18314:	00040513          	mv	a0,s0
   18318:	000b0593          	mv	a1,s6
   1831c:	02040413          	add	s0,s0,32
   18320:	3f0000ef          	jal	0x18710
   18324:	ff5418e3          	bne	s0,s5,0x18314
   18328:	cddff06f          	j	0x18004
   1832c:	02812403          	lw	s0,40(sp)
   18330:	02412483          	lw	s1,36(sp)
   18334:	02012903          	lw	s2,32(sp)
   18338:	01812a03          	lw	s4,24(sp)
   1833c:	01012b03          	lw	s6,16(sp)
   18340:	00c12b83          	lw	s7,12(sp)
   18344:	00812c03          	lw	s8,8(sp)
   18348:	00412c83          	lw	s9,4(sp)
   1834c:	00012d03          	lw	s10,0(sp)
   18350:	dadff06f          	j	0x180fc
   18354:	e601c503          	lbu	a0,-416(gp)
   18358:	00008067          	ret
   1835c:	00058613          	mv	a2,a1
   18360:	00050593          	mv	a1,a0
   18364:	f341a503          	lw	a0,-204(gp)
   18368:	bddff06f          	j	0x17f44
   1836c:	0f050513          	add	a0,a0,240
   18370:	00008067          	ret
   18374:	e2818513          	add	a0,gp,-472
   18378:	00008067          	ret
   1837c:	e2818513          	add	a0,gp,-472
   18380:	00008067          	ret
   18384:	ff010113          	add	sp,sp,-16
   18388:	00812423          	sw	s0,8(sp)
   1838c:	00050413          	mv	s0,a0
   18390:	00058513          	mv	a0,a1
   18394:	f401a823          	sw	zero,-176(gp)
   18398:	00112623          	sw	ra,12(sp)
   1839c:	575050ef          	jal	0x1e110
   183a0:	fff00793          	li	a5,-1
   183a4:	00f50a63          	beq	a0,a5,0x183b8
   183a8:	00c12083          	lw	ra,12(sp)
   183ac:	00812403          	lw	s0,8(sp)
   183b0:	01010113          	add	sp,sp,16
   183b4:	00008067          	ret
   183b8:	f501a783          	lw	a5,-176(gp)
   183bc:	fe0786e3          	beqz	a5,0x183a8
   183c0:	00c12083          	lw	ra,12(sp)
   183c4:	00f42023          	sw	a5,0(s0)
   183c8:	00812403          	lw	s0,8(sp)
   183cc:	01010113          	add	sp,sp,16
   183d0:	00008067          	ret
   183d4:	02a5f663          	bgeu	a1,a0,0x18400
   183d8:	00c58733          	add	a4,a1,a2
   183dc:	02e57263          	bgeu	a0,a4,0x18400
   183e0:	00c507b3          	add	a5,a0,a2
   183e4:	04060663          	beqz	a2,0x18430
   183e8:	fff74683          	lbu	a3,-1(a4)
   183ec:	fff78793          	add	a5,a5,-1
   183f0:	fff70713          	add	a4,a4,-1
   183f4:	00d78023          	sb	a3,0(a5)
   183f8:	fef518e3          	bne	a0,a5,0x183e8
   183fc:	00008067          	ret
   18400:	00f00793          	li	a5,15
   18404:	02c7e863          	bltu	a5,a2,0x18434
   18408:	00050793          	mv	a5,a0
   1840c:	fff60693          	add	a3,a2,-1
   18410:	0c060263          	beqz	a2,0x184d4
   18414:	00168693          	add	a3,a3,1 # 0x2001
   18418:	00d786b3          	add	a3,a5,a3
   1841c:	0005c703          	lbu	a4,0(a1)
   18420:	00178793          	add	a5,a5,1
   18424:	00158593          	add	a1,a1,1
   18428:	fee78fa3          	sb	a4,-1(a5)
   1842c:	fed798e3          	bne	a5,a3,0x1841c
   18430:	00008067          	ret
   18434:	00b567b3          	or	a5,a0,a1
   18438:	0037f793          	and	a5,a5,3
   1843c:	08079663          	bnez	a5,0x184c8
   18440:	ff060893          	add	a7,a2,-16
   18444:	ff08f893          	and	a7,a7,-16
   18448:	01088893          	add	a7,a7,16
   1844c:	011506b3          	add	a3,a0,a7
   18450:	00058713          	mv	a4,a1
   18454:	00050793          	mv	a5,a0
   18458:	00072803          	lw	a6,0(a4)
   1845c:	01070713          	add	a4,a4,16
   18460:	01078793          	add	a5,a5,16
   18464:	ff07a823          	sw	a6,-16(a5)
   18468:	ff472803          	lw	a6,-12(a4)
   1846c:	ff07aa23          	sw	a6,-12(a5)
   18470:	ff872803          	lw	a6,-8(a4)
   18474:	ff07ac23          	sw	a6,-8(a5)
   18478:	ffc72803          	lw	a6,-4(a4)
   1847c:	ff07ae23          	sw	a6,-4(a5)
   18480:	fcd79ce3          	bne	a5,a3,0x18458
   18484:	00c67813          	and	a6,a2,12
   18488:	011585b3          	add	a1,a1,a7
   1848c:	00f67713          	and	a4,a2,15
   18490:	04080463          	beqz	a6,0x184d8
   18494:	ffc70813          	add	a6,a4,-4
   18498:	ffc87813          	and	a6,a6,-4
   1849c:	00480813          	add	a6,a6,4
   184a0:	010687b3          	add	a5,a3,a6
   184a4:	00058713          	mv	a4,a1
   184a8:	00072883          	lw	a7,0(a4)
   184ac:	00468693          	add	a3,a3,4
   184b0:	00470713          	add	a4,a4,4
   184b4:	ff16ae23          	sw	a7,-4(a3)
   184b8:	fef698e3          	bne	a3,a5,0x184a8
   184bc:	00367613          	and	a2,a2,3
   184c0:	010585b3          	add	a1,a1,a6
   184c4:	f49ff06f          	j	0x1840c
   184c8:	fff60693          	add	a3,a2,-1
   184cc:	00050793          	mv	a5,a0
   184d0:	f45ff06f          	j	0x18414
   184d4:	00008067          	ret
   184d8:	00070613          	mv	a2,a4
   184dc:	f31ff06f          	j	0x1840c
   184e0:	00a5c7b3          	xor	a5,a1,a0
   184e4:	0037f793          	and	a5,a5,3
   184e8:	00c508b3          	add	a7,a0,a2
   184ec:	06079463          	bnez	a5,0x18554
   184f0:	00300793          	li	a5,3
   184f4:	06c7f063          	bgeu	a5,a2,0x18554
   184f8:	00357793          	and	a5,a0,3
   184fc:	00050713          	mv	a4,a0
   18500:	06079a63          	bnez	a5,0x18574
   18504:	ffc8f613          	and	a2,a7,-4
   18508:	40e606b3          	sub	a3,a2,a4
   1850c:	02000793          	li	a5,32
   18510:	08d7ce63          	blt	a5,a3,0x185ac
   18514:	00058693          	mv	a3,a1
   18518:	00070793          	mv	a5,a4
   1851c:	02c77863          	bgeu	a4,a2,0x1854c
   18520:	0006a803          	lw	a6,0(a3)
   18524:	00478793          	add	a5,a5,4
   18528:	00468693          	add	a3,a3,4
   1852c:	ff07ae23          	sw	a6,-4(a5)
   18530:	fec7e8e3          	bltu	a5,a2,0x18520
   18534:	fff60793          	add	a5,a2,-1
   18538:	40e787b3          	sub	a5,a5,a4
   1853c:	ffc7f793          	and	a5,a5,-4
   18540:	00478793          	add	a5,a5,4
   18544:	00f70733          	add	a4,a4,a5
   18548:	00f585b3          	add	a1,a1,a5
   1854c:	01176863          	bltu	a4,a7,0x1855c
   18550:	00008067          	ret
   18554:	00050713          	mv	a4,a0
   18558:	05157863          	bgeu	a0,a7,0x185a8
   1855c:	0005c783          	lbu	a5,0(a1)
   18560:	00170713          	add	a4,a4,1
   18564:	00158593          	add	a1,a1,1
   18568:	fef70fa3          	sb	a5,-1(a4)
   1856c:	fee898e3          	bne	a7,a4,0x1855c
   18570:	00008067          	ret
   18574:	0005c683          	lbu	a3,0(a1)
   18578:	00170713          	add	a4,a4,1
   1857c:	00377793          	and	a5,a4,3
   18580:	fed70fa3          	sb	a3,-1(a4)
   18584:	00158593          	add	a1,a1,1
   18588:	f6078ee3          	beqz	a5,0x18504
   1858c:	0005c683          	lbu	a3,0(a1)
   18590:	00170713          	add	a4,a4,1
   18594:	00377793          	and	a5,a4,3
   18598:	fed70fa3          	sb	a3,-1(a4)
   1859c:	00158593          	add	a1,a1,1
   185a0:	fc079ae3          	bnez	a5,0x18574
   185a4:	f61ff06f          	j	0x18504
   185a8:	00008067          	ret
   185ac:	ff010113          	add	sp,sp,-16
   185b0:	00812623          	sw	s0,12(sp)
   185b4:	02000413          	li	s0,32
   185b8:	0005a383          	lw	t2,0(a1)
   185bc:	0045a283          	lw	t0,4(a1)
   185c0:	0085af83          	lw	t6,8(a1)
   185c4:	00c5af03          	lw	t5,12(a1)
   185c8:	0105ae83          	lw	t4,16(a1)
   185cc:	0145ae03          	lw	t3,20(a1)
   185d0:	0185a303          	lw	t1,24(a1)
   185d4:	01c5a803          	lw	a6,28(a1)
   185d8:	0205a683          	lw	a3,32(a1)
   185dc:	02470713          	add	a4,a4,36
   185e0:	40e607b3          	sub	a5,a2,a4
   185e4:	fc772e23          	sw	t2,-36(a4)
   185e8:	fe572023          	sw	t0,-32(a4)
   185ec:	fff72223          	sw	t6,-28(a4)
   185f0:	ffe72423          	sw	t5,-24(a4)
   185f4:	ffd72623          	sw	t4,-20(a4)
   185f8:	ffc72823          	sw	t3,-16(a4)
   185fc:	fe672a23          	sw	t1,-12(a4)
   18600:	ff072c23          	sw	a6,-8(a4)
   18604:	fed72e23          	sw	a3,-4(a4)
   18608:	02458593          	add	a1,a1,36
   1860c:	faf446e3          	blt	s0,a5,0x185b8
   18610:	00058693          	mv	a3,a1
   18614:	00070793          	mv	a5,a4
   18618:	02c77863          	bgeu	a4,a2,0x18648
   1861c:	0006a803          	lw	a6,0(a3)
   18620:	00478793          	add	a5,a5,4
   18624:	00468693          	add	a3,a3,4
   18628:	ff07ae23          	sw	a6,-4(a5)
   1862c:	fec7e8e3          	bltu	a5,a2,0x1861c
   18630:	fff60793          	add	a5,a2,-1
   18634:	40e787b3          	sub	a5,a5,a4
   18638:	ffc7f793          	and	a5,a5,-4
   1863c:	00478793          	add	a5,a5,4
   18640:	00f70733          	add	a4,a4,a5
   18644:	00f585b3          	add	a1,a1,a5
   18648:	01176863          	bltu	a4,a7,0x18658
   1864c:	00c12403          	lw	s0,12(sp)
   18650:	01010113          	add	sp,sp,16
   18654:	00008067          	ret
   18658:	0005c783          	lbu	a5,0(a1)
   1865c:	00170713          	add	a4,a4,1
   18660:	00158593          	add	a1,a1,1
   18664:	fef70fa3          	sb	a5,-1(a4)
   18668:	fee882e3          	beq	a7,a4,0x1864c
   1866c:	0005c783          	lbu	a5,0(a1)
   18670:	00170713          	add	a4,a4,1
   18674:	00158593          	add	a1,a1,1
   18678:	fef70fa3          	sb	a5,-1(a4)
   1867c:	fce89ee3          	bne	a7,a4,0x18658
   18680:	fcdff06f          	j	0x1864c
   18684:	00357793          	and	a5,a0,3
   18688:	00050713          	mv	a4,a0
   1868c:	04079c63          	bnez	a5,0x186e4
   18690:	7f7f86b7          	lui	a3,0x7f7f8
   18694:	f7f68693          	add	a3,a3,-129 # 0x7f7f7f7f
   18698:	fff00593          	li	a1,-1
   1869c:	00072603          	lw	a2,0(a4)
   186a0:	00470713          	add	a4,a4,4
   186a4:	00d677b3          	and	a5,a2,a3
   186a8:	00d787b3          	add	a5,a5,a3
   186ac:	00c7e7b3          	or	a5,a5,a2
   186b0:	00d7e7b3          	or	a5,a5,a3
   186b4:	feb784e3          	beq	a5,a1,0x1869c
   186b8:	ffc74683          	lbu	a3,-4(a4)
   186bc:	40a707b3          	sub	a5,a4,a0
   186c0:	04068463          	beqz	a3,0x18708
   186c4:	ffd74683          	lbu	a3,-3(a4)
   186c8:	02068c63          	beqz	a3,0x18700
   186cc:	ffe74503          	lbu	a0,-2(a4)
   186d0:	00a03533          	snez	a0,a0
   186d4:	00f50533          	add	a0,a0,a5
   186d8:	ffe50513          	add	a0,a0,-2
   186dc:	00008067          	ret
   186e0:	fa0688e3          	beqz	a3,0x18690
   186e4:	00074783          	lbu	a5,0(a4)
   186e8:	00170713          	add	a4,a4,1
   186ec:	00377693          	and	a3,a4,3
   186f0:	fe0798e3          	bnez	a5,0x186e0
   186f4:	40a70733          	sub	a4,a4,a0
   186f8:	fff70513          	add	a0,a4,-1
   186fc:	00008067          	ret
   18700:	ffd78513          	add	a0,a5,-3
   18704:	00008067          	ret
   18708:	ffc78513          	add	a0,a5,-4
   1870c:	00008067          	ret
   18710:	00b567b3          	or	a5,a0,a1
   18714:	0037f793          	and	a5,a5,3
   18718:	08079263          	bnez	a5,0x1879c
   1871c:	0005a703          	lw	a4,0(a1)
   18720:	7f7f86b7          	lui	a3,0x7f7f8
   18724:	f7f68693          	add	a3,a3,-129 # 0x7f7f7f7f
   18728:	00d777b3          	and	a5,a4,a3
   1872c:	00d787b3          	add	a5,a5,a3
   18730:	00e7e7b3          	or	a5,a5,a4
   18734:	00d7e7b3          	or	a5,a5,a3
   18738:	fff00613          	li	a2,-1
   1873c:	06c79e63          	bne	a5,a2,0x187b8
   18740:	00050613          	mv	a2,a0
   18744:	fff00813          	li	a6,-1
   18748:	00e62023          	sw	a4,0(a2)
   1874c:	0045a703          	lw	a4,4(a1)
   18750:	00458593          	add	a1,a1,4
   18754:	00460613          	add	a2,a2,4
   18758:	00d777b3          	and	a5,a4,a3
   1875c:	00d787b3          	add	a5,a5,a3
   18760:	00e7e7b3          	or	a5,a5,a4
   18764:	00d7e7b3          	or	a5,a5,a3
   18768:	ff0780e3          	beq	a5,a6,0x18748
   1876c:	0005c783          	lbu	a5,0(a1)
   18770:	0015c703          	lbu	a4,1(a1)
   18774:	0025c683          	lbu	a3,2(a1)
   18778:	00f60023          	sb	a5,0(a2)
   1877c:	00078a63          	beqz	a5,0x18790
   18780:	00e600a3          	sb	a4,1(a2)
   18784:	00070663          	beqz	a4,0x18790
   18788:	00d60123          	sb	a3,2(a2)
   1878c:	00069463          	bnez	a3,0x18794
   18790:	00008067          	ret
   18794:	000601a3          	sb	zero,3(a2)
   18798:	00008067          	ret
   1879c:	00050793          	mv	a5,a0
   187a0:	0005c703          	lbu	a4,0(a1)
   187a4:	00178793          	add	a5,a5,1
   187a8:	00158593          	add	a1,a1,1
   187ac:	fee78fa3          	sb	a4,-1(a5)
   187b0:	fe0718e3          	bnez	a4,0x187a0
   187b4:	00008067          	ret
   187b8:	00050613          	mv	a2,a0
   187bc:	fb1ff06f          	j	0x1876c
   187c0:	00b56733          	or	a4,a0,a1
   187c4:	fff00393          	li	t2,-1
   187c8:	00377713          	and	a4,a4,3
   187cc:	10071063          	bnez	a4,0x188cc
   187d0:	7f7f87b7          	lui	a5,0x7f7f8
   187d4:	f7f78793          	add	a5,a5,-129 # 0x7f7f7f7f
   187d8:	00052603          	lw	a2,0(a0)
   187dc:	0005a683          	lw	a3,0(a1)
   187e0:	00f672b3          	and	t0,a2,a5
   187e4:	00f66333          	or	t1,a2,a5
   187e8:	00f282b3          	add	t0,t0,a5
   187ec:	0062e2b3          	or	t0,t0,t1
   187f0:	10729263          	bne	t0,t2,0x188f4
   187f4:	08d61663          	bne	a2,a3,0x18880
   187f8:	00452603          	lw	a2,4(a0)
   187fc:	0045a683          	lw	a3,4(a1)
   18800:	00f672b3          	and	t0,a2,a5
   18804:	00f66333          	or	t1,a2,a5
   18808:	00f282b3          	add	t0,t0,a5
   1880c:	0062e2b3          	or	t0,t0,t1
   18810:	0c729e63          	bne	t0,t2,0x188ec
   18814:	06d61663          	bne	a2,a3,0x18880
   18818:	00852603          	lw	a2,8(a0)
   1881c:	0085a683          	lw	a3,8(a1)
   18820:	00f672b3          	and	t0,a2,a5
   18824:	00f66333          	or	t1,a2,a5
   18828:	00f282b3          	add	t0,t0,a5
   1882c:	0062e2b3          	or	t0,t0,t1
   18830:	0c729863          	bne	t0,t2,0x18900
   18834:	04d61663          	bne	a2,a3,0x18880
   18838:	00c52603          	lw	a2,12(a0)
   1883c:	00c5a683          	lw	a3,12(a1)
   18840:	00f672b3          	and	t0,a2,a5
   18844:	00f66333          	or	t1,a2,a5
   18848:	00f282b3          	add	t0,t0,a5
   1884c:	0062e2b3          	or	t0,t0,t1
   18850:	0c729263          	bne	t0,t2,0x18914
   18854:	02d61663          	bne	a2,a3,0x18880
   18858:	01052603          	lw	a2,16(a0)
   1885c:	0105a683          	lw	a3,16(a1)
   18860:	00f672b3          	and	t0,a2,a5
   18864:	00f66333          	or	t1,a2,a5
   18868:	00f282b3          	add	t0,t0,a5
   1886c:	0062e2b3          	or	t0,t0,t1
   18870:	0a729c63          	bne	t0,t2,0x18928
   18874:	01450513          	add	a0,a0,20
   18878:	01458593          	add	a1,a1,20
   1887c:	f4d60ee3          	beq	a2,a3,0x187d8
   18880:	01061713          	sll	a4,a2,0x10
   18884:	01069793          	sll	a5,a3,0x10
   18888:	00f71e63          	bne	a4,a5,0x188a4
   1888c:	01065713          	srl	a4,a2,0x10
   18890:	0106d793          	srl	a5,a3,0x10
   18894:	40f70533          	sub	a0,a4,a5
   18898:	0ff57593          	zext.b	a1,a0
   1889c:	02059063          	bnez	a1,0x188bc
   188a0:	00008067          	ret
   188a4:	01075713          	srl	a4,a4,0x10
   188a8:	0107d793          	srl	a5,a5,0x10
   188ac:	40f70533          	sub	a0,a4,a5
   188b0:	0ff57593          	zext.b	a1,a0
   188b4:	00059463          	bnez	a1,0x188bc
   188b8:	00008067          	ret
   188bc:	0ff77713          	zext.b	a4,a4
   188c0:	0ff7f793          	zext.b	a5,a5
   188c4:	40f70533          	sub	a0,a4,a5
   188c8:	00008067          	ret
   188cc:	00054603          	lbu	a2,0(a0)
   188d0:	0005c683          	lbu	a3,0(a1)
   188d4:	00150513          	add	a0,a0,1
   188d8:	00158593          	add	a1,a1,1
   188dc:	00d61463          	bne	a2,a3,0x188e4
   188e0:	fe0616e3          	bnez	a2,0x188cc
   188e4:	40d60533          	sub	a0,a2,a3
   188e8:	00008067          	ret
   188ec:	00450513          	add	a0,a0,4
   188f0:	00458593          	add	a1,a1,4
   188f4:	fcd61ce3          	bne	a2,a3,0x188cc
   188f8:	00000513          	li	a0,0
   188fc:	00008067          	ret
   18900:	00850513          	add	a0,a0,8
   18904:	00858593          	add	a1,a1,8
   18908:	fcd612e3          	bne	a2,a3,0x188cc
   1890c:	00000513          	li	a0,0
   18910:	00008067          	ret
   18914:	00c50513          	add	a0,a0,12
   18918:	00c58593          	add	a1,a1,12
   1891c:	fad618e3          	bne	a2,a3,0x188cc
   18920:	00000513          	li	a0,0
   18924:	00008067          	ret
   18928:	01050513          	add	a0,a0,16
   1892c:	01058593          	add	a1,a1,16
   18930:	f8d61ee3          	bne	a2,a3,0x188cc
   18934:	00000513          	li	a0,0
   18938:	00008067          	ret
   1893c:	ff010113          	add	sp,sp,-16
   18940:	00912223          	sw	s1,4(sp)
   18944:	800004b7          	lui	s1,0x80000
   18948:	00812423          	sw	s0,8(sp)
   1894c:	00112623          	sw	ra,12(sp)
   18950:	fff48493          	add	s1,s1,-1 # 0x7fffffff
   18954:	00060413          	mv	s0,a2
   18958:	00062023          	sw	zero,0(a2)
   1895c:	00b4f6b3          	and	a3,s1,a1
   18960:	7ff00637          	lui	a2,0x7ff00
   18964:	00058793          	mv	a5,a1
   18968:	00050713          	mv	a4,a0
   1896c:	04c6f063          	bgeu	a3,a2,0x189ac
   18970:	00a6e633          	or	a2,a3,a0
   18974:	02060c63          	beqz	a2,0x189ac
   18978:	0145d613          	srl	a2,a1,0x14
   1897c:	7ff67613          	and	a2,a2,2047
   18980:	04060463          	beqz	a2,0x189c8
   18984:	00000593          	li	a1,0
   18988:	80100637          	lui	a2,0x80100
   1898c:	4146d693          	sra	a3,a3,0x14
   18990:	fff60613          	add	a2,a2,-1 # 0x800fffff
   18994:	c0268693          	add	a3,a3,-1022
   18998:	00c7f7b3          	and	a5,a5,a2
   1899c:	00b686b3          	add	a3,a3,a1
   189a0:	3fe00637          	lui	a2,0x3fe00
   189a4:	00c7e7b3          	or	a5,a5,a2
   189a8:	00d42023          	sw	a3,0(s0)
   189ac:	00c12083          	lw	ra,12(sp)
   189b0:	00812403          	lw	s0,8(sp)
   189b4:	00412483          	lw	s1,4(sp)
   189b8:	00070513          	mv	a0,a4
   189bc:	00078593          	mv	a1,a5
   189c0:	01010113          	add	sp,sp,16
   189c4:	00008067          	ret
   189c8:	0000b797          	auipc	a5,0xb
   189cc:	ef078793          	add	a5,a5,-272 # 0x238b8
   189d0:	0047a683          	lw	a3,4(a5)
   189d4:	0007a603          	lw	a2,0(a5)
   189d8:	1ad070ef          	jal	0x20384
   189dc:	00058793          	mv	a5,a1
   189e0:	00b4f6b3          	and	a3,s1,a1
   189e4:	00050713          	mv	a4,a0
   189e8:	fca00593          	li	a1,-54
   189ec:	f9dff06f          	j	0x18988
   189f0:	fb010113          	add	sp,sp,-80
   189f4:	04912223          	sw	s1,68(sp)
   189f8:	01052783          	lw	a5,16(a0)
   189fc:	0105a483          	lw	s1,16(a1)
   18a00:	04112623          	sw	ra,76(sp)
   18a04:	00b12423          	sw	a1,8(sp)
   18a08:	2097ca63          	blt	a5,s1,0x18c1c
   18a0c:	fff48493          	add	s1,s1,-1
   18a10:	03512a23          	sw	s5,52(sp)
   18a14:	03812423          	sw	s8,40(sp)
   18a18:	00249a93          	sll	s5,s1,0x2
   18a1c:	01458c13          	add	s8,a1,20
   18a20:	05212023          	sw	s2,64(sp)
   18a24:	03312e23          	sw	s3,60(sp)
   18a28:	015c0933          	add	s2,s8,s5
   18a2c:	01450993          	add	s3,a0,20
   18a30:	015987b3          	add	a5,s3,s5
   18a34:	03712623          	sw	s7,44(sp)
   18a38:	00092b83          	lw	s7,0(s2)
   18a3c:	03912223          	sw	s9,36(sp)
   18a40:	0007ac83          	lw	s9,0(a5)
   18a44:	001b8b93          	add	s7,s7,1
   18a48:	03412c23          	sw	s4,56(sp)
   18a4c:	000b8593          	mv	a1,s7
   18a50:	00050a13          	mv	s4,a0
   18a54:	000c8513          	mv	a0,s9
   18a58:	04812423          	sw	s0,72(sp)
   18a5c:	00f12623          	sw	a5,12(sp)
   18a60:	018090ef          	jal	0x21a78
   18a64:	00050413          	mv	s0,a0
   18a68:	0d7cee63          	bltu	s9,s7,0x18b44
   18a6c:	03a12023          	sw	s10,32(sp)
   18a70:	00010d37          	lui	s10,0x10
   18a74:	01b12e23          	sw	s11,28(sp)
   18a78:	03612823          	sw	s6,48(sp)
   18a7c:	000c0a93          	mv	s5,s8
   18a80:	00098d93          	mv	s11,s3
   18a84:	00000c93          	li	s9,0
   18a88:	00000b93          	li	s7,0
   18a8c:	fffd0d13          	add	s10,s10,-1 # 0xffff
   18a90:	000aab03          	lw	s6,0(s5)
   18a94:	00040593          	mv	a1,s0
   18a98:	004d8d93          	add	s11,s11,4
   18a9c:	01ab7533          	and	a0,s6,s10
   18aa0:	7ad080ef          	jal	0x21a4c
   18aa4:	00050793          	mv	a5,a0
   18aa8:	00040593          	mv	a1,s0
   18aac:	010b5513          	srl	a0,s6,0x10
   18ab0:	01978cb3          	add	s9,a5,s9
   18ab4:	799080ef          	jal	0x21a4c
   18ab8:	ffcda603          	lw	a2,-4(s11)
   18abc:	01acf733          	and	a4,s9,s10
   18ac0:	010cdc93          	srl	s9,s9,0x10
   18ac4:	01a677b3          	and	a5,a2,s10
   18ac8:	40e787b3          	sub	a5,a5,a4
   18acc:	017787b3          	add	a5,a5,s7
   18ad0:	01950533          	add	a0,a0,s9
   18ad4:	4107d713          	sra	a4,a5,0x10
   18ad8:	01a575b3          	and	a1,a0,s10
   18adc:	01065613          	srl	a2,a2,0x10
   18ae0:	40b70733          	sub	a4,a4,a1
   18ae4:	00c70733          	add	a4,a4,a2
   18ae8:	01a7f7b3          	and	a5,a5,s10
   18aec:	01071613          	sll	a2,a4,0x10
   18af0:	00c7e7b3          	or	a5,a5,a2
   18af4:	004a8a93          	add	s5,s5,4
   18af8:	fefdae23          	sw	a5,-4(s11)
   18afc:	01055c93          	srl	s9,a0,0x10
   18b00:	41075b93          	sra	s7,a4,0x10
   18b04:	f95976e3          	bgeu	s2,s5,0x18a90
   18b08:	00c12703          	lw	a4,12(sp)
   18b0c:	00072783          	lw	a5,0(a4)
   18b10:	12079063          	bnez	a5,0x18c30
   18b14:	ffc70a93          	add	s5,a4,-4
   18b18:	0159e863          	bltu	s3,s5,0x18b28
   18b1c:	0180006f          	j	0x18b34
   18b20:	fff48493          	add	s1,s1,-1
   18b24:	0159f863          	bgeu	s3,s5,0x18b34
   18b28:	000aa783          	lw	a5,0(s5)
   18b2c:	ffca8a93          	add	s5,s5,-4
   18b30:	fe0788e3          	beqz	a5,0x18b20
   18b34:	03012b03          	lw	s6,48(sp)
   18b38:	02012d03          	lw	s10,32(sp)
   18b3c:	01c12d83          	lw	s11,28(sp)
   18b40:	009a2823          	sw	s1,16(s4)
   18b44:	00812583          	lw	a1,8(sp)
   18b48:	000a0513          	mv	a0,s4
   18b4c:	4e9020ef          	jal	0x1b834
   18b50:	08054c63          	bltz	a0,0x18be8
   18b54:	00010537          	lui	a0,0x10
   18b58:	00098593          	mv	a1,s3
   18b5c:	00000713          	li	a4,0
   18b60:	fff50513          	add	a0,a0,-1 # 0xffff
   18b64:	0005a683          	lw	a3,0(a1)
   18b68:	000c2603          	lw	a2,0(s8)
   18b6c:	00458593          	add	a1,a1,4
   18b70:	00a6f7b3          	and	a5,a3,a0
   18b74:	00a67833          	and	a6,a2,a0
   18b78:	410787b3          	sub	a5,a5,a6
   18b7c:	00e787b3          	add	a5,a5,a4
   18b80:	4107d713          	sra	a4,a5,0x10
   18b84:	01065613          	srl	a2,a2,0x10
   18b88:	0106d693          	srl	a3,a3,0x10
   18b8c:	40c70733          	sub	a4,a4,a2
   18b90:	00d70733          	add	a4,a4,a3
   18b94:	01071693          	sll	a3,a4,0x10
   18b98:	00a7f7b3          	and	a5,a5,a0
   18b9c:	00d7e7b3          	or	a5,a5,a3
   18ba0:	004c0c13          	add	s8,s8,4
   18ba4:	fef5ae23          	sw	a5,-4(a1)
   18ba8:	41075713          	sra	a4,a4,0x10
   18bac:	fb897ce3          	bgeu	s2,s8,0x18b64
   18bb0:	00249793          	sll	a5,s1,0x2
   18bb4:	00f987b3          	add	a5,s3,a5
   18bb8:	0007a703          	lw	a4,0(a5)
   18bbc:	02071463          	bnez	a4,0x18be4
   18bc0:	ffc78793          	add	a5,a5,-4
   18bc4:	00f9e863          	bltu	s3,a5,0x18bd4
   18bc8:	0180006f          	j	0x18be0
   18bcc:	fff48493          	add	s1,s1,-1
   18bd0:	00f9f863          	bgeu	s3,a5,0x18be0
   18bd4:	0007a703          	lw	a4,0(a5)
   18bd8:	ffc78793          	add	a5,a5,-4
   18bdc:	fe0708e3          	beqz	a4,0x18bcc
   18be0:	009a2823          	sw	s1,16(s4)
   18be4:	00140413          	add	s0,s0,1
   18be8:	04c12083          	lw	ra,76(sp)
   18bec:	00040513          	mv	a0,s0
   18bf0:	04812403          	lw	s0,72(sp)
   18bf4:	04012903          	lw	s2,64(sp)
   18bf8:	03c12983          	lw	s3,60(sp)
   18bfc:	03812a03          	lw	s4,56(sp)
   18c00:	03412a83          	lw	s5,52(sp)
   18c04:	02c12b83          	lw	s7,44(sp)
   18c08:	02812c03          	lw	s8,40(sp)
   18c0c:	02412c83          	lw	s9,36(sp)
   18c10:	04412483          	lw	s1,68(sp)
   18c14:	05010113          	add	sp,sp,80
   18c18:	00008067          	ret
   18c1c:	04c12083          	lw	ra,76(sp)
   18c20:	04412483          	lw	s1,68(sp)
   18c24:	00000513          	li	a0,0
   18c28:	05010113          	add	sp,sp,80
   18c2c:	00008067          	ret
   18c30:	00812583          	lw	a1,8(sp)
   18c34:	000a0513          	mv	a0,s4
   18c38:	03012b03          	lw	s6,48(sp)
   18c3c:	02012d03          	lw	s10,32(sp)
   18c40:	01c12d83          	lw	s11,28(sp)
   18c44:	3f1020ef          	jal	0x1b834
   18c48:	f00556e3          	bgez	a0,0x18b54
   18c4c:	f9dff06f          	j	0x18be8
   18c50:	03852303          	lw	t1,56(a0)
   18c54:	f5010113          	add	sp,sp,-176
   18c58:	0a812423          	sw	s0,168(sp)
   18c5c:	0a912223          	sw	s1,164(sp)
   18c60:	0b212023          	sw	s2,160(sp)
   18c64:	09412c23          	sw	s4,152(sp)
   18c68:	07b12e23          	sw	s11,124(sp)
   18c6c:	0a112623          	sw	ra,172(sp)
   18c70:	09312e23          	sw	s3,156(sp)
   18c74:	09512a23          	sw	s5,148(sp)
   18c78:	00e12a23          	sw	a4,20(sp)
   18c7c:	00f12623          	sw	a5,12(sp)
   18c80:	01112423          	sw	a7,8(sp)
   18c84:	02b12223          	sw	a1,36(sp)
   18c88:	00c12023          	sw	a2,0(sp)
   18c8c:	00050413          	mv	s0,a0
   18c90:	00058d93          	mv	s11,a1
   18c94:	00060493          	mv	s1,a2
   18c98:	00068a13          	mv	s4,a3
   18c9c:	00080913          	mv	s2,a6
   18ca0:	02030263          	beqz	t1,0x18cc4
   18ca4:	03c52703          	lw	a4,60(a0)
   18ca8:	00100793          	li	a5,1
   18cac:	00030593          	mv	a1,t1
   18cb0:	00e797b3          	sll	a5,a5,a4
   18cb4:	00e32223          	sw	a4,4(t1)
   18cb8:	00f32423          	sw	a5,8(t1)
   18cbc:	0e4020ef          	jal	0x1ada0
   18cc0:	02042c23          	sw	zero,56(s0)
   18cc4:	00048993          	mv	s3,s1
   18cc8:	00000693          	li	a3,0
   18ccc:	0004dc63          	bgez	s1,0x18ce4
   18cd0:	00149493          	sll	s1,s1,0x1
   18cd4:	0014d793          	srl	a5,s1,0x1
   18cd8:	00f12023          	sw	a5,0(sp)
   18cdc:	00078993          	mv	s3,a5
   18ce0:	00100693          	li	a3,1
   18ce4:	7ff00737          	lui	a4,0x7ff00
   18ce8:	00d92023          	sw	a3,0(s2)
   18cec:	00e9f6b3          	and	a3,s3,a4
   18cf0:	64e68463          	beq	a3,a4,0x19338
   18cf4:	00012483          	lw	s1,0(sp)
   18cf8:	000d8513          	mv	a0,s11
   18cfc:	00000613          	li	a2,0
   18d00:	00048593          	mv	a1,s1
   18d04:	00000693          	li	a3,0
   18d08:	01b12c23          	sw	s11,24(sp)
   18d0c:	00912e23          	sw	s1,28(sp)
   18d10:	3e0070ef          	jal	0x200f0
   18d14:	04051c63          	bnez	a0,0x18d6c
   18d18:	00c12703          	lw	a4,12(sp)
   18d1c:	00100793          	li	a5,1
   18d20:	00f72023          	sw	a5,0(a4) # 0x7ff00000
   18d24:	00812703          	lw	a4,8(sp)
   18d28:	00070863          	beqz	a4,0x18d38
   18d2c:	00009797          	auipc	a5,0x9
   18d30:	f6d78793          	add	a5,a5,-147 # 0x21c99
   18d34:	00f72023          	sw	a5,0(a4)
   18d38:	00009a97          	auipc	s5,0x9
   18d3c:	f60a8a93          	add	s5,s5,-160 # 0x21c98
   18d40:	0ac12083          	lw	ra,172(sp)
   18d44:	0a812403          	lw	s0,168(sp)
   18d48:	0a412483          	lw	s1,164(sp)
   18d4c:	0a012903          	lw	s2,160(sp)
   18d50:	09c12983          	lw	s3,156(sp)
   18d54:	09812a03          	lw	s4,152(sp)
   18d58:	07c12d83          	lw	s11,124(sp)
   18d5c:	000a8513          	mv	a0,s5
   18d60:	09412a83          	lw	s5,148(sp)
   18d64:	0b010113          	add	sp,sp,176
   18d68:	00008067          	ret
   18d6c:	00048613          	mv	a2,s1
   18d70:	06810713          	add	a4,sp,104
   18d74:	06c10693          	add	a3,sp,108
   18d78:	000d8593          	mv	a1,s11
   18d7c:	00040513          	mv	a0,s0
   18d80:	09612823          	sw	s6,144(sp)
   18d84:	09712623          	sw	s7,140(sp)
   18d88:	09812423          	sw	s8,136(sp)
   18d8c:	09912223          	sw	s9,132(sp)
   18d90:	09a12023          	sw	s10,128(sp)
   18d94:	0149d913          	srl	s2,s3,0x14
   18d98:	6d9020ef          	jal	0x1bc70
   18d9c:	00050493          	mv	s1,a0
   18da0:	5c091e63          	bnez	s2,0x1937c
   18da4:	06812a83          	lw	s5,104(sp)
   18da8:	06c12903          	lw	s2,108(sp)
   18dac:	02000793          	li	a5,32
   18db0:	012a8933          	add	s2,s5,s2
   18db4:	43290713          	add	a4,s2,1074
   18db8:	36e7dae3          	bge	a5,a4,0x1992c
   18dbc:	04000793          	li	a5,64
   18dc0:	40e787b3          	sub	a5,a5,a4
   18dc4:	41290513          	add	a0,s2,1042
   18dc8:	00f997b3          	sll	a5,s3,a5
   18dcc:	00add533          	srl	a0,s11,a0
   18dd0:	00a7e533          	or	a0,a5,a0
   18dd4:	7d8080ef          	jal	0x215ac
   18dd8:	fe1007b7          	lui	a5,0xfe100
   18ddc:	00100693          	li	a3,1
   18de0:	00050713          	mv	a4,a0
   18de4:	00b787b3          	add	a5,a5,a1
   18de8:	fff90913          	add	s2,s2,-1
   18dec:	02d12c23          	sw	a3,56(sp)
   18df0:	0000b697          	auipc	a3,0xb
   18df4:	ad068693          	add	a3,a3,-1328 # 0x238c0
   18df8:	0006a603          	lw	a2,0(a3)
   18dfc:	0046a683          	lw	a3,4(a3)
   18e00:	00070513          	mv	a0,a4
   18e04:	00078593          	mv	a1,a5
   18e08:	50d070ef          	jal	0x20b14
   18e0c:	0000b797          	auipc	a5,0xb
   18e10:	abc78793          	add	a5,a5,-1348 # 0x238c8
   18e14:	0007a603          	lw	a2,0(a5)
   18e18:	0047a683          	lw	a3,4(a5)
   18e1c:	568070ef          	jal	0x20384
   18e20:	0000b797          	auipc	a5,0xb
   18e24:	ab078793          	add	a5,a5,-1360 # 0x238d0
   18e28:	0007a603          	lw	a2,0(a5)
   18e2c:	0047a683          	lw	a3,4(a5)
   18e30:	14c060ef          	jal	0x1ef7c
   18e34:	00050b13          	mv	s6,a0
   18e38:	00090513          	mv	a0,s2
   18e3c:	00058993          	mv	s3,a1
   18e40:	6b4080ef          	jal	0x214f4
   18e44:	0000b797          	auipc	a5,0xb
   18e48:	a9478793          	add	a5,a5,-1388 # 0x238d8
   18e4c:	0007a603          	lw	a2,0(a5)
   18e50:	0047a683          	lw	a3,4(a5)
   18e54:	530070ef          	jal	0x20384
   18e58:	00050613          	mv	a2,a0
   18e5c:	00058693          	mv	a3,a1
   18e60:	000b0513          	mv	a0,s6
   18e64:	00098593          	mv	a1,s3
   18e68:	114060ef          	jal	0x1ef7c
   18e6c:	00050b93          	mv	s7,a0
   18e70:	00058b13          	mv	s6,a1
   18e74:	5fc080ef          	jal	0x21470
   18e78:	00050993          	mv	s3,a0
   18e7c:	000b0593          	mv	a1,s6
   18e80:	000b8513          	mv	a0,s7
   18e84:	00000613          	li	a2,0
   18e88:	00000693          	li	a3,0
   18e8c:	3f0070ef          	jal	0x2027c
   18e90:	02055063          	bgez	a0,0x18eb0
   18e94:	00098513          	mv	a0,s3
   18e98:	65c080ef          	jal	0x214f4
   18e9c:	000b8613          	mv	a2,s7
   18ea0:	000b0693          	mv	a3,s6
   18ea4:	24c070ef          	jal	0x200f0
   18ea8:	00a03533          	snez	a0,a0
   18eac:	40a989b3          	sub	s3,s3,a0
   18eb0:	412a8ab3          	sub	s5,s5,s2
   18eb4:	01600793          	li	a5,22
   18eb8:	fffa8b13          	add	s6,s5,-1
   18ebc:	2137e2e3          	bltu	a5,s3,0x198c0
   18ec0:	00399713          	sll	a4,s3,0x3
   18ec4:	0000a797          	auipc	a5,0xa
   18ec8:	85c78793          	add	a5,a5,-1956 # 0x22720
   18ecc:	00e787b3          	add	a5,a5,a4
   18ed0:	0007a603          	lw	a2,0(a5)
   18ed4:	0047a683          	lw	a3,4(a5)
   18ed8:	01812503          	lw	a0,24(sp)
   18edc:	01c12583          	lw	a1,28(sp)
   18ee0:	39c070ef          	jal	0x2027c
   18ee4:	220554e3          	bgez	a0,0x1990c
   18ee8:	fff98993          	add	s3,s3,-1
   18eec:	02012a23          	sw	zero,52(sp)
   18ef0:	00012823          	sw	zero,16(sp)
   18ef4:	4a0b4863          	bltz	s6,0x193a4
   18ef8:	4c09d063          	bgez	s3,0x193b8
   18efc:	01012783          	lw	a5,16(sp)
   18f00:	03312023          	sw	s3,32(sp)
   18f04:	413787b3          	sub	a5,a5,s3
   18f08:	00f12823          	sw	a5,16(sp)
   18f0c:	413007b3          	neg	a5,s3
   18f10:	02f12823          	sw	a5,48(sp)
   18f14:	00900793          	li	a5,9
   18f18:	00000993          	li	s3,0
   18f1c:	4b47e863          	bltu	a5,s4,0x193cc
   18f20:	00500793          	li	a5,5
   18f24:	2147dae3          	bge	a5,s4,0x19938
   18f28:	ffca0a13          	add	s4,s4,-4
   18f2c:	00300793          	li	a5,3
   18f30:	00000913          	li	s2,0
   18f34:	66fa02e3          	beq	s4,a5,0x19d98
   18f38:	6147dae3          	bge	a5,s4,0x19d4c
   18f3c:	00400793          	li	a5,4
   18f40:	54fa1ae3          	bne	s4,a5,0x19c94
   18f44:	00100793          	li	a5,1
   18f48:	02f12423          	sw	a5,40(sp)
   18f4c:	01412603          	lw	a2,20(sp)
   18f50:	62c05ce3          	blez	a2,0x19d88
   18f54:	02c12e23          	sw	a2,60(sp)
   18f58:	00060c13          	mv	s8,a2
   18f5c:	01700693          	li	a3,23
   18f60:	00100713          	li	a4,1
   18f64:	00400793          	li	a5,4
   18f68:	00c6c463          	blt	a3,a2,0x18f70
   18f6c:	3540106f          	j	0x1a2c0
   18f70:	00179793          	sll	a5,a5,0x1
   18f74:	01478693          	add	a3,a5,20
   18f78:	00070593          	mv	a1,a4
   18f7c:	00170713          	add	a4,a4,1
   18f80:	fed678e3          	bgeu	a2,a3,0x18f70
   18f84:	02b42e23          	sw	a1,60(s0)
   18f88:	00040513          	mv	a0,s0
   18f8c:	561010ef          	jal	0x1acec
   18f90:	00050a93          	mv	s5,a0
   18f94:	00051463          	bnez	a0,0x18f9c
   18f98:	30c0106f          	j	0x1a2a4
   18f9c:	02a42c23          	sw	a0,56(s0)
   18fa0:	00e00793          	li	a5,14
   18fa4:	5187ea63          	bltu	a5,s8,0x194b8
   18fa8:	50090863          	beqz	s2,0x194b8
   18fac:	02012783          	lw	a5,32(sp)
   18fb0:	62f054e3          	blez	a5,0x19dd8
   18fb4:	00f7f713          	and	a4,a5,15
   18fb8:	00371713          	sll	a4,a4,0x3
   18fbc:	4047dc93          	sra	s9,a5,0x4
   18fc0:	00009797          	auipc	a5,0x9
   18fc4:	76078793          	add	a5,a5,1888 # 0x22720
   18fc8:	00e787b3          	add	a5,a5,a4
   18fcc:	010cf693          	and	a3,s9,16
   18fd0:	0007a803          	lw	a6,0(a5)
   18fd4:	0047a703          	lw	a4,4(a5)
   18fd8:	560682e3          	beqz	a3,0x19d3c
   18fdc:	00009797          	auipc	a5,0x9
   18fe0:	71c78793          	add	a5,a5,1820 # 0x226f8
   18fe4:	0207a603          	lw	a2,32(a5)
   18fe8:	0247a683          	lw	a3,36(a5)
   18fec:	01812503          	lw	a0,24(sp)
   18ff0:	01c12583          	lw	a1,28(sp)
   18ff4:	04e12423          	sw	a4,72(sp)
   18ff8:	05012023          	sw	a6,64(sp)
   18ffc:	049060ef          	jal	0x1f844
   19000:	04012803          	lw	a6,64(sp)
   19004:	04812703          	lw	a4,72(sp)
   19008:	00fcfc93          	and	s9,s9,15
   1900c:	00050313          	mv	t1,a0
   19010:	00058d13          	mv	s10,a1
   19014:	00300913          	li	s2,3
   19018:	040c8c63          	beqz	s9,0x19070
   1901c:	04812023          	sw	s0,64(sp)
   19020:	00009b97          	auipc	s7,0x9
   19024:	6d8b8b93          	add	s7,s7,1752 # 0x226f8
   19028:	00090413          	mv	s0,s2
   1902c:	00070593          	mv	a1,a4
   19030:	00030913          	mv	s2,t1
   19034:	001cf793          	and	a5,s9,1
   19038:	00078e63          	beqz	a5,0x19054
   1903c:	000ba603          	lw	a2,0(s7)
   19040:	004ba683          	lw	a3,4(s7)
   19044:	00080513          	mv	a0,a6
   19048:	00140413          	add	s0,s0,1
   1904c:	338070ef          	jal	0x20384
   19050:	00050813          	mv	a6,a0
   19054:	401cdc93          	sra	s9,s9,0x1
   19058:	008b8b93          	add	s7,s7,8
   1905c:	fc0c9ce3          	bnez	s9,0x19034
   19060:	00090313          	mv	t1,s2
   19064:	00040913          	mv	s2,s0
   19068:	04012403          	lw	s0,64(sp)
   1906c:	00058713          	mv	a4,a1
   19070:	00070693          	mv	a3,a4
   19074:	00080613          	mv	a2,a6
   19078:	00030513          	mv	a0,t1
   1907c:	000d0593          	mv	a1,s10
   19080:	7c4060ef          	jal	0x1f844
   19084:	00050713          	mv	a4,a0
   19088:	00058793          	mv	a5,a1
   1908c:	03412683          	lw	a3,52(sp)
   19090:	02068c63          	beqz	a3,0x190c8
   19094:	0000b697          	auipc	a3,0xb
   19098:	84c68693          	add	a3,a3,-1972 # 0x238e0
   1909c:	0006a603          	lw	a2,0(a3)
   190a0:	0046a683          	lw	a3,4(a3)
   190a4:	00070513          	mv	a0,a4
   190a8:	00078593          	mv	a1,a5
   190ac:	04e12423          	sw	a4,72(sp)
   190b0:	04f12023          	sw	a5,64(sp)
   190b4:	1c8070ef          	jal	0x2027c
   190b8:	04012783          	lw	a5,64(sp)
   190bc:	04812703          	lw	a4,72(sp)
   190c0:	00055463          	bgez	a0,0x190c8
   190c4:	04c0106f          	j	0x1a110
   190c8:	00090513          	mv	a0,s2
   190cc:	04f12623          	sw	a5,76(sp)
   190d0:	04e12023          	sw	a4,64(sp)
   190d4:	420080ef          	jal	0x214f4
   190d8:	04012703          	lw	a4,64(sp)
   190dc:	04c12783          	lw	a5,76(sp)
   190e0:	00070613          	mv	a2,a4
   190e4:	00078693          	mv	a3,a5
   190e8:	04e12423          	sw	a4,72(sp)
   190ec:	04f12023          	sw	a5,64(sp)
   190f0:	294070ef          	jal	0x20384
   190f4:	0000a697          	auipc	a3,0xa
   190f8:	7fc68693          	add	a3,a3,2044 # 0x238f0
   190fc:	0006a603          	lw	a2,0(a3)
   19100:	0046a683          	lw	a3,4(a3)
   19104:	679050ef          	jal	0x1ef7c
   19108:	fcc006b7          	lui	a3,0xfcc00
   1910c:	04012783          	lw	a5,64(sp)
   19110:	04812703          	lw	a4,72(sp)
   19114:	00050c93          	mv	s9,a0
   19118:	00b68bb3          	add	s7,a3,a1
   1911c:	340c0463          	beqz	s8,0x19464
   19120:	02012683          	lw	a3,32(sp)
   19124:	05812423          	sw	s8,72(sp)
   19128:	04d12e23          	sw	a3,92(sp)
   1912c:	00070513          	mv	a0,a4
   19130:	00078593          	mv	a1,a5
   19134:	04e12623          	sw	a4,76(sp)
   19138:	04f12023          	sw	a5,64(sp)
   1913c:	334080ef          	jal	0x21470
   19140:	04812783          	lw	a5,72(sp)
   19144:	00050913          	mv	s2,a0
   19148:	05912c23          	sw	s9,88(sp)
   1914c:	fff78693          	add	a3,a5,-1
   19150:	00369693          	sll	a3,a3,0x3
   19154:	00009797          	auipc	a5,0x9
   19158:	5cc78793          	add	a5,a5,1484 # 0x22720
   1915c:	00d786b3          	add	a3,a5,a3
   19160:	0006a783          	lw	a5,0(a3) # 0xfcc00000
   19164:	0046a803          	lw	a6,4(a3)
   19168:	001a8d13          	add	s10,s5,1
   1916c:	04f12823          	sw	a5,80(sp)
   19170:	05012a23          	sw	a6,84(sp)
   19174:	380080ef          	jal	0x214f4
   19178:	04c12703          	lw	a4,76(sp)
   1917c:	04012783          	lw	a5,64(sp)
   19180:	00050613          	mv	a2,a0
   19184:	00058693          	mv	a3,a1
   19188:	00070513          	mv	a0,a4
   1918c:	00078593          	mv	a1,a5
   19190:	185070ef          	jal	0x20b14
   19194:	02812703          	lw	a4,40(sp)
   19198:	03090313          	add	t1,s2,48
   1919c:	05a12023          	sw	s10,64(sp)
   191a0:	00050c93          	mv	s9,a0
   191a4:	0ff37313          	zext.b	t1,t1
   191a8:	5c0706e3          	beqz	a4,0x19f74
   191ac:	0000a797          	auipc	a5,0xa
   191b0:	70478793          	add	a5,a5,1796 # 0x238b0
   191b4:	0007a503          	lw	a0,0(a5)
   191b8:	05012603          	lw	a2,80(sp)
   191bc:	05412683          	lw	a3,84(sp)
   191c0:	04b12023          	sw	a1,64(sp)
   191c4:	0047a583          	lw	a1,4(a5)
   191c8:	04612623          	sw	t1,76(sp)
   191cc:	678060ef          	jal	0x1f844
   191d0:	05812603          	lw	a2,88(sp)
   191d4:	000b8693          	mv	a3,s7
   191d8:	13d070ef          	jal	0x20b14
   191dc:	04012883          	lw	a7,64(sp)
   191e0:	04c12303          	lw	t1,76(sp)
   191e4:	000c8613          	mv	a2,s9
   191e8:	00088693          	mv	a3,a7
   191ec:	006a8023          	sb	t1,0(s5)
   191f0:	00050913          	mv	s2,a0
   191f4:	00058b93          	mv	s7,a1
   191f8:	785060ef          	jal	0x2017c
   191fc:	04012883          	lw	a7,64(sp)
   19200:	00a05463          	blez	a0,0x19208
   19204:	7c90006f          	j	0x1a1cc
   19208:	0000a697          	auipc	a3,0xa
   1920c:	6d868693          	add	a3,a3,1752 # 0x238e0
   19210:	0006a783          	lw	a5,0(a3)
   19214:	0046a803          	lw	a6,4(a3)
   19218:	05312623          	sw	s3,76(sp)
   1921c:	04f12023          	sw	a5,64(sp)
   19220:	00000793          	li	a5,0
   19224:	05612823          	sw	s6,80(sp)
   19228:	05812c23          	sw	s8,88(sp)
   1922c:	05012223          	sw	a6,68(sp)
   19230:	04812c03          	lw	s8,72(sp)
   19234:	00078b13          	mv	s6,a5
   19238:	05412423          	sw	s4,72(sp)
   1923c:	00088993          	mv	s3,a7
   19240:	0980006f          	j	0x192d8
   19244:	001b0b13          	add	s6,s6,1
   19248:	018b4463          	blt	s6,s8,0x19250
   1924c:	7d10006f          	j	0x1a21c
   19250:	0000aa17          	auipc	s4,0xa
   19254:	698a0a13          	add	s4,s4,1688 # 0x238e8
   19258:	000a2603          	lw	a2,0(s4)
   1925c:	004a2683          	lw	a3,4(s4)
   19260:	00090513          	mv	a0,s2
   19264:	000b8593          	mv	a1,s7
   19268:	11c070ef          	jal	0x20384
   1926c:	000a2603          	lw	a2,0(s4)
   19270:	004a2683          	lw	a3,4(s4)
   19274:	00050913          	mv	s2,a0
   19278:	00058b93          	mv	s7,a1
   1927c:	000c8513          	mv	a0,s9
   19280:	00098593          	mv	a1,s3
   19284:	100070ef          	jal	0x20384
   19288:	00058c93          	mv	s9,a1
   1928c:	00050a13          	mv	s4,a0
   19290:	1e0080ef          	jal	0x21470
   19294:	00050993          	mv	s3,a0
   19298:	25c080ef          	jal	0x214f4
   1929c:	00050613          	mv	a2,a0
   192a0:	00058693          	mv	a3,a1
   192a4:	000a0513          	mv	a0,s4
   192a8:	000c8593          	mv	a1,s9
   192ac:	069070ef          	jal	0x20b14
   192b0:	03098793          	add	a5,s3,48
   192b4:	00090613          	mv	a2,s2
   192b8:	000b8693          	mv	a3,s7
   192bc:	00fd0023          	sb	a5,0(s10)
   192c0:	001d0d13          	add	s10,s10,1
   192c4:	00050c93          	mv	s9,a0
   192c8:	00058993          	mv	s3,a1
   192cc:	7b1060ef          	jal	0x2027c
   192d0:	00055463          	bgez	a0,0x192d8
   192d4:	6f90006f          	j	0x1a1cc
   192d8:	04012503          	lw	a0,64(sp)
   192dc:	04412583          	lw	a1,68(sp)
   192e0:	000c8613          	mv	a2,s9
   192e4:	00098693          	mv	a3,s3
   192e8:	02d070ef          	jal	0x20b14
   192ec:	00090613          	mv	a2,s2
   192f0:	000b8693          	mv	a3,s7
   192f4:	789060ef          	jal	0x2027c
   192f8:	f40556e3          	bgez	a0,0x19244
   192fc:	05c12783          	lw	a5,92(sp)
   19300:	000d0b93          	mv	s7,s10
   19304:	00178c13          	add	s8,a5,1
   19308:	03900613          	li	a2,57
   1930c:	0080006f          	j	0x19314
   19310:	697a88e3          	beq	s5,s7,0x1a1a0
   19314:	fffbc683          	lbu	a3,-1(s7)
   19318:	000b8d13          	mv	s10,s7
   1931c:	fffb8b93          	add	s7,s7,-1
   19320:	fec688e3          	beq	a3,a2,0x19310
   19324:	00168693          	add	a3,a3,1
   19328:	0ff6f693          	zext.b	a3,a3
   1932c:	00db8023          	sb	a3,0(s7)
   19330:	000c0a13          	mv	s4,s8
   19334:	4f00006f          	j	0x19824
   19338:	00c12683          	lw	a3,12(sp)
   1933c:	00002737          	lui	a4,0x2
   19340:	00c99793          	sll	a5,s3,0xc
   19344:	70f70713          	add	a4,a4,1807 # 0x270f
   19348:	00c7d793          	srl	a5,a5,0xc
   1934c:	00e6a023          	sw	a4,0(a3)
   19350:	01b7e7b3          	or	a5,a5,s11
   19354:	0a078063          	beqz	a5,0x193f4
   19358:	00812783          	lw	a5,8(sp)
   1935c:	00009a97          	auipc	s5,0x9
   19360:	a80a8a93          	add	s5,s5,-1408 # 0x21ddc
   19364:	9c078ee3          	beqz	a5,0x18d40
   19368:	00009797          	auipc	a5,0x9
   1936c:	a7778793          	add	a5,a5,-1417 # 0x21ddf
   19370:	00812703          	lw	a4,8(sp)
   19374:	00f72023          	sw	a5,0(a4)
   19378:	9c9ff06f          	j	0x18d40
   1937c:	01c12783          	lw	a5,28(sp)
   19380:	3ff006b7          	lui	a3,0x3ff00
   19384:	06812a83          	lw	s5,104(sp)
   19388:	00c79793          	sll	a5,a5,0xc
   1938c:	00c7d793          	srl	a5,a5,0xc
   19390:	01812703          	lw	a4,24(sp)
   19394:	00d7e7b3          	or	a5,a5,a3
   19398:	c0190913          	add	s2,s2,-1023
   1939c:	02012c23          	sw	zero,56(sp)
   193a0:	a51ff06f          	j	0x18df0
   193a4:	00100793          	li	a5,1
   193a8:	415787b3          	sub	a5,a5,s5
   193ac:	00f12823          	sw	a5,16(sp)
   193b0:	00000b13          	li	s6,0
   193b4:	b409c4e3          	bltz	s3,0x18efc
   193b8:	03312023          	sw	s3,32(sp)
   193bc:	02012823          	sw	zero,48(sp)
   193c0:	00900793          	li	a5,9
   193c4:	013b0b33          	add	s6,s6,s3
   193c8:	b547fce3          	bgeu	a5,s4,0x18f20
   193cc:	00100793          	li	a5,1
   193d0:	00100913          	li	s2,1
   193d4:	00000a13          	li	s4,0
   193d8:	02f12423          	sw	a5,40(sp)
   193dc:	fff00c13          	li	s8,-1
   193e0:	00012a23          	sw	zero,20(sp)
   193e4:	02042e23          	sw	zero,60(s0)
   193e8:	03812e23          	sw	s8,60(sp)
   193ec:	00000593          	li	a1,0
   193f0:	b99ff06f          	j	0x18f88
   193f4:	00812703          	lw	a4,8(sp)
   193f8:	00009a97          	auipc	s5,0x9
   193fc:	9d8a8a93          	add	s5,s5,-1576 # 0x21dd0
   19400:	00009797          	auipc	a5,0x9
   19404:	9d878793          	add	a5,a5,-1576 # 0x21dd8
   19408:	f60714e3          	bnez	a4,0x19370
   1940c:	935ff06f          	j	0x18d40
   19410:	00090513          	mv	a0,s2
   19414:	04f12623          	sw	a5,76(sp)
   19418:	04e12023          	sw	a4,64(sp)
   1941c:	0d8080ef          	jal	0x214f4
   19420:	04012703          	lw	a4,64(sp)
   19424:	04c12783          	lw	a5,76(sp)
   19428:	00070613          	mv	a2,a4
   1942c:	00078693          	mv	a3,a5
   19430:	04e12423          	sw	a4,72(sp)
   19434:	04f12023          	sw	a5,64(sp)
   19438:	74d060ef          	jal	0x20384
   1943c:	0000a697          	auipc	a3,0xa
   19440:	4b468693          	add	a3,a3,1204 # 0x238f0
   19444:	0006a603          	lw	a2,0(a3)
   19448:	0046a683          	lw	a3,4(a3)
   1944c:	331050ef          	jal	0x1ef7c
   19450:	04012783          	lw	a5,64(sp)
   19454:	04812703          	lw	a4,72(sp)
   19458:	fcc006b7          	lui	a3,0xfcc00
   1945c:	00050c93          	mv	s9,a0
   19460:	00b68bb3          	add	s7,a3,a1
   19464:	0000a697          	auipc	a3,0xa
   19468:	49468693          	add	a3,a3,1172 # 0x238f8
   1946c:	0006a603          	lw	a2,0(a3)
   19470:	0046a683          	lw	a3,4(a3)
   19474:	00070513          	mv	a0,a4
   19478:	00078593          	mv	a1,a5
   1947c:	698070ef          	jal	0x20b14
   19480:	000c8613          	mv	a2,s9
   19484:	000b8693          	mv	a3,s7
   19488:	00050d13          	mv	s10,a0
   1948c:	00058913          	mv	s2,a1
   19490:	4ed060ef          	jal	0x2017c
   19494:	50a04ce3          	bgtz	a0,0x1a1ac
   19498:	800007b7          	lui	a5,0x80000
   1949c:	0177c7b3          	xor	a5,a5,s7
   194a0:	000c8613          	mv	a2,s9
   194a4:	000d0513          	mv	a0,s10
   194a8:	00078693          	mv	a3,a5
   194ac:	00090593          	mv	a1,s2
   194b0:	5cd060ef          	jal	0x2027c
   194b4:	06054c63          	bltz	a0,0x1952c
   194b8:	06c12783          	lw	a5,108(sp)
   194bc:	1a07c663          	bltz	a5,0x19668
   194c0:	02012683          	lw	a3,32(sp)
   194c4:	00e00713          	li	a4,14
   194c8:	1ad74063          	blt	a4,a3,0x19668
   194cc:	02012783          	lw	a5,32(sp)
   194d0:	00379713          	sll	a4,a5,0x3
   194d4:	00009797          	auipc	a5,0x9
   194d8:	24c78793          	add	a5,a5,588 # 0x22720
   194dc:	00e787b3          	add	a5,a5,a4
   194e0:	0007a903          	lw	s2,0(a5)
   194e4:	0047a983          	lw	s3,4(a5)
   194e8:	01412783          	lw	a5,20(sp)
   194ec:	0407dc63          	bgez	a5,0x19544
   194f0:	05804a63          	bgtz	s8,0x19544
   194f4:	020c1c63          	bnez	s8,0x1952c
   194f8:	0000a797          	auipc	a5,0xa
   194fc:	40078793          	add	a5,a5,1024 # 0x238f8
   19500:	0007a603          	lw	a2,0(a5)
   19504:	0047a683          	lw	a3,4(a5)
   19508:	00090513          	mv	a0,s2
   1950c:	00098593          	mv	a1,s3
   19510:	675060ef          	jal	0x20384
   19514:	00050613          	mv	a2,a0
   19518:	00058693          	mv	a3,a1
   1951c:	01812503          	lw	a0,24(sp)
   19520:	01c12583          	lw	a1,28(sp)
   19524:	559060ef          	jal	0x2027c
   19528:	48a042e3          	bgtz	a0,0x1a1ac
   1952c:	000a8d13          	mv	s10,s5
   19530:	00012c23          	sw	zero,24(sp)
   19534:	00000913          	li	s2,0
   19538:	01412783          	lw	a5,20(sp)
   1953c:	fff7ca13          	not	s4,a5
   19540:	6980006f          	j	0x19bd8
   19544:	001a8793          	add	a5,s5,1
   19548:	04f12023          	sw	a5,64(sp)
   1954c:	01812b03          	lw	s6,24(sp)
   19550:	01c12a03          	lw	s4,28(sp)
   19554:	00090613          	mv	a2,s2
   19558:	00098693          	mv	a3,s3
   1955c:	000b0513          	mv	a0,s6
   19560:	000a0593          	mv	a1,s4
   19564:	2e0060ef          	jal	0x1f844
   19568:	709070ef          	jal	0x21470
   1956c:	00050d13          	mv	s10,a0
   19570:	785070ef          	jal	0x214f4
   19574:	00090613          	mv	a2,s2
   19578:	00098693          	mv	a3,s3
   1957c:	609060ef          	jal	0x20384
   19580:	00050613          	mv	a2,a0
   19584:	00058693          	mv	a3,a1
   19588:	000b0513          	mv	a0,s6
   1958c:	000a0593          	mv	a1,s4
   19590:	584070ef          	jal	0x20b14
   19594:	030d0793          	add	a5,s10,48
   19598:	00fa8023          	sb	a5,0(s5)
   1959c:	00100613          	li	a2,1
   195a0:	04012b83          	lw	s7,64(sp)
   195a4:	00050713          	mv	a4,a0
   195a8:	00058693          	mv	a3,a1
   195ac:	0ccc0ee3          	beq	s8,a2,0x19e88
   195b0:	0000a617          	auipc	a2,0xa
   195b4:	33860613          	add	a2,a2,824 # 0x238e8
   195b8:	00062783          	lw	a5,0(a2)
   195bc:	00462803          	lw	a6,4(a2)
   195c0:	00100d93          	li	s11,1
   195c4:	00f12023          	sw	a5,0(sp)
   195c8:	01012223          	sw	a6,4(sp)
   195cc:	0600006f          	j	0x1962c
   195d0:	00090613          	mv	a2,s2
   195d4:	00098693          	mv	a3,s3
   195d8:	000b0513          	mv	a0,s6
   195dc:	000a0593          	mv	a1,s4
   195e0:	264060ef          	jal	0x1f844
   195e4:	68d070ef          	jal	0x21470
   195e8:	00050d13          	mv	s10,a0
   195ec:	709070ef          	jal	0x214f4
   195f0:	00090613          	mv	a2,s2
   195f4:	00098693          	mv	a3,s3
   195f8:	58d060ef          	jal	0x20384
   195fc:	00058693          	mv	a3,a1
   19600:	00050613          	mv	a2,a0
   19604:	000a0593          	mv	a1,s4
   19608:	000b0513          	mv	a0,s6
   1960c:	508070ef          	jal	0x20b14
   19610:	001b8b93          	add	s7,s7,1
   19614:	030d0793          	add	a5,s10,48
   19618:	001d8d93          	add	s11,s11,1
   1961c:	fefb8fa3          	sb	a5,-1(s7)
   19620:	00050713          	mv	a4,a0
   19624:	00058693          	mv	a3,a1
   19628:	07bc00e3          	beq	s8,s11,0x19e88
   1962c:	00012603          	lw	a2,0(sp)
   19630:	00068593          	mv	a1,a3
   19634:	00412683          	lw	a3,4(sp)
   19638:	00070513          	mv	a0,a4
   1963c:	549060ef          	jal	0x20384
   19640:	00000613          	li	a2,0
   19644:	00000693          	li	a3,0
   19648:	00050b13          	mv	s6,a0
   1964c:	00058a13          	mv	s4,a1
   19650:	2a1060ef          	jal	0x200f0
   19654:	f6051ee3          	bnez	a0,0x195d0
   19658:	02012783          	lw	a5,32(sp)
   1965c:	000b8d13          	mv	s10,s7
   19660:	00178a13          	add	s4,a5,1
   19664:	1c00006f          	j	0x19824
   19668:	02812703          	lw	a4,40(sp)
   1966c:	26071463          	bnez	a4,0x198d4
   19670:	03012b83          	lw	s7,48(sp)
   19674:	01012c83          	lw	s9,16(sp)
   19678:	02012423          	sw	zero,40(sp)
   1967c:	00000913          	li	s2,0
   19680:	020c8263          	beqz	s9,0x196a4
   19684:	03605063          	blez	s6,0x196a4
   19688:	000c8793          	mv	a5,s9
   1968c:	679b4263          	blt	s6,s9,0x19cf0
   19690:	01012703          	lw	a4,16(sp)
   19694:	40fc8cb3          	sub	s9,s9,a5
   19698:	40fb0b33          	sub	s6,s6,a5
   1969c:	40f70733          	sub	a4,a4,a5
   196a0:	00e12823          	sw	a4,16(sp)
   196a4:	03012783          	lw	a5,48(sp)
   196a8:	02078263          	beqz	a5,0x196cc
   196ac:	02812783          	lw	a5,40(sp)
   196b0:	00078463          	beqz	a5,0x196b8
   196b4:	060b9ae3          	bnez	s7,0x19f28
   196b8:	03012603          	lw	a2,48(sp)
   196bc:	00048593          	mv	a1,s1
   196c0:	00040513          	mv	a0,s0
   196c4:	691010ef          	jal	0x1b554
   196c8:	00050493          	mv	s1,a0
   196cc:	00100593          	li	a1,1
   196d0:	00040513          	mv	a0,s0
   196d4:	309010ef          	jal	0x1b1dc
   196d8:	00a12c23          	sw	a0,24(sp)
   196dc:	50099a63          	bnez	s3,0x19bf0
   196e0:	00100793          	li	a5,1
   196e4:	5547da63          	bge	a5,s4,0x19c38
   196e8:	016787b3          	add	a5,a5,s6
   196ec:	01f7f793          	and	a5,a5,31
   196f0:	1c078e63          	beqz	a5,0x198cc
   196f4:	02000713          	li	a4,32
   196f8:	40f70733          	sub	a4,a4,a5
   196fc:	00400693          	li	a3,4
   19700:	58e6d263          	bge	a3,a4,0x19c84
   19704:	01c00713          	li	a4,28
   19708:	40f707b3          	sub	a5,a4,a5
   1970c:	01012703          	lw	a4,16(sp)
   19710:	00fc8cb3          	add	s9,s9,a5
   19714:	00fb0b33          	add	s6,s6,a5
   19718:	00f70733          	add	a4,a4,a5
   1971c:	00e12823          	sw	a4,16(sp)
   19720:	01012783          	lw	a5,16(sp)
   19724:	12f04e63          	bgtz	a5,0x19860
   19728:	01605c63          	blez	s6,0x19740
   1972c:	01812583          	lw	a1,24(sp)
   19730:	000b0613          	mv	a2,s6
   19734:	00040513          	mv	a0,s0
   19738:	76d010ef          	jal	0x1b6a4
   1973c:	00a12c23          	sw	a0,24(sp)
   19740:	03412783          	lw	a5,52(sp)
   19744:	12079a63          	bnez	a5,0x19878
   19748:	45805263          	blez	s8,0x19b8c
   1974c:	02812783          	lw	a5,40(sp)
   19750:	24079e63          	bnez	a5,0x199ac
   19754:	02012783          	lw	a5,32(sp)
   19758:	00178a13          	add	s4,a5,1
   1975c:	01812b03          	lw	s6,24(sp)
   19760:	00100993          	li	s3,1
   19764:	0200006f          	j	0x19784
   19768:	00048593          	mv	a1,s1
   1976c:	00000693          	li	a3,0
   19770:	00a00613          	li	a2,10
   19774:	00040513          	mv	a0,s0
   19778:	64c010ef          	jal	0x1adc4
   1977c:	00050493          	mv	s1,a0
   19780:	00198993          	add	s3,s3,1
   19784:	000b0593          	mv	a1,s6
   19788:	00048513          	mv	a0,s1
   1978c:	a64ff0ef          	jal	0x189f0
   19790:	03050b93          	add	s7,a0,48
   19794:	013a87b3          	add	a5,s5,s3
   19798:	ff778fa3          	sb	s7,-1(a5)
   1979c:	fd89c6e3          	blt	s3,s8,0x19768
   197a0:	00100993          	li	s3,1
   197a4:	55804263          	bgtz	s8,0x19ce8
   197a8:	013a89b3          	add	s3,s5,s3
   197ac:	00000c13          	li	s8,0
   197b0:	00048593          	mv	a1,s1
   197b4:	00100613          	li	a2,1
   197b8:	00040513          	mv	a0,s0
   197bc:	6e9010ef          	jal	0x1b6a4
   197c0:	01812583          	lw	a1,24(sp)
   197c4:	00050493          	mv	s1,a0
   197c8:	06c020ef          	jal	0x1b834
   197cc:	4ea05c63          	blez	a0,0x19cc4
   197d0:	03900693          	li	a3,57
   197d4:	0080006f          	j	0x197dc
   197d8:	5f3a8863          	beq	s5,s3,0x19dc8
   197dc:	fff9c783          	lbu	a5,-1(s3)
   197e0:	00098d13          	mv	s10,s3
   197e4:	fff98993          	add	s3,s3,-1
   197e8:	fed788e3          	beq	a5,a3,0x197d8
   197ec:	00178793          	add	a5,a5,1
   197f0:	00f98023          	sb	a5,0(s3)
   197f4:	01812583          	lw	a1,24(sp)
   197f8:	00040513          	mv	a0,s0
   197fc:	5a4010ef          	jal	0x1ada0
   19800:	02090263          	beqz	s2,0x19824
   19804:	000c0a63          	beqz	s8,0x19818
   19808:	012c0863          	beq	s8,s2,0x19818
   1980c:	000c0593          	mv	a1,s8
   19810:	00040513          	mv	a0,s0
   19814:	58c010ef          	jal	0x1ada0
   19818:	00090593          	mv	a1,s2
   1981c:	00040513          	mv	a0,s0
   19820:	580010ef          	jal	0x1ada0
   19824:	00048593          	mv	a1,s1
   19828:	00040513          	mv	a0,s0
   1982c:	574010ef          	jal	0x1ada0
   19830:	00c12783          	lw	a5,12(sp)
   19834:	000d0023          	sb	zero,0(s10)
   19838:	0147a023          	sw	s4,0(a5)
   1983c:	00812783          	lw	a5,8(sp)
   19840:	00078463          	beqz	a5,0x19848
   19844:	01a7a023          	sw	s10,0(a5)
   19848:	09012b03          	lw	s6,144(sp)
   1984c:	08c12b83          	lw	s7,140(sp)
   19850:	08812c03          	lw	s8,136(sp)
   19854:	08412c83          	lw	s9,132(sp)
   19858:	08012d03          	lw	s10,128(sp)
   1985c:	ce4ff06f          	j	0x18d40
   19860:	00048593          	mv	a1,s1
   19864:	00078613          	mv	a2,a5
   19868:	00040513          	mv	a0,s0
   1986c:	639010ef          	jal	0x1b6a4
   19870:	00050493          	mv	s1,a0
   19874:	eb5ff06f          	j	0x19728
   19878:	01812583          	lw	a1,24(sp)
   1987c:	00048513          	mv	a0,s1
   19880:	7b5010ef          	jal	0x1b834
   19884:	ec0552e3          	bgez	a0,0x19748
   19888:	02012783          	lw	a5,32(sp)
   1988c:	00048593          	mv	a1,s1
   19890:	00000693          	li	a3,0
   19894:	00a00613          	li	a2,10
   19898:	00040513          	mv	a0,s0
   1989c:	fff78b13          	add	s6,a5,-1
   198a0:	524010ef          	jal	0x1adc4
   198a4:	02812783          	lw	a5,40(sp)
   198a8:	00050493          	mv	s1,a0
   198ac:	0c079e63          	bnez	a5,0x19988
   198b0:	03c12c03          	lw	s8,60(sp)
   198b4:	17805ee3          	blez	s8,0x1a230
   198b8:	02012a03          	lw	s4,32(sp)
   198bc:	ea1ff06f          	j	0x1975c
   198c0:	00100793          	li	a5,1
   198c4:	02f12a23          	sw	a5,52(sp)
   198c8:	e28ff06f          	j	0x18ef0
   198cc:	01c00793          	li	a5,28
   198d0:	e3dff06f          	j	0x1970c
   198d4:	00100713          	li	a4,1
   198d8:	4d475463          	bge	a4,s4,0x19da0
   198dc:	03012783          	lw	a5,48(sp)
   198e0:	fffc0b93          	add	s7,s8,-1
   198e4:	4177ca63          	blt	a5,s7,0x19cf8
   198e8:	41778bb3          	sub	s7,a5,s7
   198ec:	01012783          	lw	a5,16(sp)
   198f0:	41878cb3          	sub	s9,a5,s8
   198f4:	100c54e3          	bgez	s8,0x1a1fc
   198f8:	00100593          	li	a1,1
   198fc:	00040513          	mv	a0,s0
   19900:	0dd010ef          	jal	0x1b1dc
   19904:	00050913          	mv	s2,a0
   19908:	d79ff06f          	j	0x19680
   1990c:	02012a23          	sw	zero,52(sp)
   19910:	00012823          	sw	zero,16(sp)
   19914:	ab5042e3          	bgtz	s5,0x193b8
   19918:	00100793          	li	a5,1
   1991c:	415787b3          	sub	a5,a5,s5
   19920:	00f12823          	sw	a5,16(sp)
   19924:	00000b13          	li	s6,0
   19928:	a91ff06f          	j	0x193b8
   1992c:	40e787b3          	sub	a5,a5,a4
   19930:	00fd9533          	sll	a0,s11,a5
   19934:	ca0ff06f          	j	0x18dd4
   19938:	00300793          	li	a5,3
   1993c:	00100913          	li	s2,1
   19940:	44fa0c63          	beq	s4,a5,0x19d98
   19944:	df47cc63          	blt	a5,s4,0x18f3c
   19948:	00200793          	li	a5,2
   1994c:	18fa00e3          	beq	s4,a5,0x1a2cc
   19950:	02042e23          	sw	zero,60(s0)
   19954:	00000593          	li	a1,0
   19958:	00040513          	mv	a0,s0
   1995c:	390010ef          	jal	0x1acec
   19960:	00050a93          	mv	s5,a0
   19964:	140500e3          	beqz	a0,0x1a2a4
   19968:	00100793          	li	a5,1
   1996c:	02f12423          	sw	a5,40(sp)
   19970:	fff00793          	li	a5,-1
   19974:	02a42c23          	sw	a0,56(s0)
   19978:	02f12e23          	sw	a5,60(sp)
   1997c:	fff00c13          	li	s8,-1
   19980:	00012a23          	sw	zero,20(sp)
   19984:	b35ff06f          	j	0x194b8
   19988:	00090593          	mv	a1,s2
   1998c:	00000693          	li	a3,0
   19990:	00a00613          	li	a2,10
   19994:	00040513          	mv	a0,s0
   19998:	42c010ef          	jal	0x1adc4
   1999c:	03c12c03          	lw	s8,60(sp)
   199a0:	00050913          	mv	s2,a0
   199a4:	0b805ae3          	blez	s8,0x1a258
   199a8:	03612023          	sw	s6,32(sp)
   199ac:	01905c63          	blez	s9,0x199c4
   199b0:	00090593          	mv	a1,s2
   199b4:	000c8613          	mv	a2,s9
   199b8:	00040513          	mv	a0,s0
   199bc:	4e9010ef          	jal	0x1b6a4
   199c0:	00050913          	mv	s2,a0
   199c4:	00090b13          	mv	s6,s2
   199c8:	50099e63          	bnez	s3,0x19ee4
   199cc:	02412783          	lw	a5,36(sp)
   199d0:	fffa8d13          	add	s10,s5,-1
   199d4:	000a8c93          	mv	s9,s5
   199d8:	01512823          	sw	s5,16(sp)
   199dc:	01812a83          	lw	s5,24(sp)
   199e0:	0017f793          	and	a5,a5,1
   199e4:	018d0d33          	add	s10,s10,s8
   199e8:	00f12023          	sw	a5,0(sp)
   199ec:	01b12a23          	sw	s11,20(sp)
   199f0:	000a8593          	mv	a1,s5
   199f4:	00048513          	mv	a0,s1
   199f8:	ff9fe0ef          	jal	0x189f0
   199fc:	00050c13          	mv	s8,a0
   19a00:	00090593          	mv	a1,s2
   19a04:	00048513          	mv	a0,s1
   19a08:	62d010ef          	jal	0x1b834
   19a0c:	00050993          	mv	s3,a0
   19a10:	000b0613          	mv	a2,s6
   19a14:	000a8593          	mv	a1,s5
   19a18:	00040513          	mv	a0,s0
   19a1c:	671010ef          	jal	0x1b88c
   19a20:	00c52703          	lw	a4,12(a0)
   19a24:	030c0b93          	add	s7,s8,48
   19a28:	00050d93          	mv	s11,a0
   19a2c:	08071c63          	bnez	a4,0x19ac4
   19a30:	00050593          	mv	a1,a0
   19a34:	00048513          	mv	a0,s1
   19a38:	5fd010ef          	jal	0x1b834
   19a3c:	00050713          	mv	a4,a0
   19a40:	000d8593          	mv	a1,s11
   19a44:	00040513          	mv	a0,s0
   19a48:	00070d93          	mv	s11,a4
   19a4c:	354010ef          	jal	0x1ada0
   19a50:	014de6b3          	or	a3,s11,s4
   19a54:	0e069a63          	bnez	a3,0x19b48
   19a58:	00012783          	lw	a5,0(sp)
   19a5c:	76078e63          	beqz	a5,0x1a1d8
   19a60:	7809c663          	bltz	s3,0x1a1ec
   19a64:	017c8023          	sb	s7,0(s9)
   19a68:	001c8993          	add	s3,s9,1
   19a6c:	679d0e63          	beq	s10,s9,0x1a0e8
   19a70:	00048593          	mv	a1,s1
   19a74:	00000693          	li	a3,0
   19a78:	00a00613          	li	a2,10
   19a7c:	00040513          	mv	a0,s0
   19a80:	344010ef          	jal	0x1adc4
   19a84:	00050493          	mv	s1,a0
   19a88:	00000693          	li	a3,0
   19a8c:	00a00613          	li	a2,10
   19a90:	00090593          	mv	a1,s2
   19a94:	00040513          	mv	a0,s0
   19a98:	09690e63          	beq	s2,s6,0x19b34
   19a9c:	328010ef          	jal	0x1adc4
   19aa0:	000b0593          	mv	a1,s6
   19aa4:	00050913          	mv	s2,a0
   19aa8:	00000693          	li	a3,0
   19aac:	00a00613          	li	a2,10
   19ab0:	00040513          	mv	a0,s0
   19ab4:	310010ef          	jal	0x1adc4
   19ab8:	00050b13          	mv	s6,a0
   19abc:	00098c93          	mv	s9,s3
   19ac0:	f31ff06f          	j	0x199f0
   19ac4:	00050593          	mv	a1,a0
   19ac8:	00040513          	mv	a0,s0
   19acc:	01012a83          	lw	s5,16(sp)
   19ad0:	01412d83          	lw	s11,20(sp)
   19ad4:	2cc010ef          	jal	0x1ada0
   19ad8:	0009ca63          	bltz	s3,0x19aec
   19adc:	001df713          	and	a4,s11,1
   19ae0:	0149e9b3          	or	s3,s3,s4
   19ae4:	01376733          	or	a4,a4,s3
   19ae8:	06071e63          	bnez	a4,0x19b64
   19aec:	00048593          	mv	a1,s1
   19af0:	00100613          	li	a2,1
   19af4:	00040513          	mv	a0,s0
   19af8:	3ad010ef          	jal	0x1b6a4
   19afc:	01812583          	lw	a1,24(sp)
   19b00:	00050493          	mv	s1,a0
   19b04:	531010ef          	jal	0x1b834
   19b08:	24a05863          	blez	a0,0x19d58
   19b0c:	03900713          	li	a4,57
   19b10:	24eb8c63          	beq	s7,a4,0x19d68
   19b14:	031c0b93          	add	s7,s8,49
   19b18:	02012783          	lw	a5,32(sp)
   19b1c:	00090c13          	mv	s8,s2
   19b20:	001c8d13          	add	s10,s9,1
   19b24:	017c8023          	sb	s7,0(s9)
   19b28:	00178a13          	add	s4,a5,1
   19b2c:	000b0913          	mv	s2,s6
   19b30:	cc5ff06f          	j	0x197f4
   19b34:	290010ef          	jal	0x1adc4
   19b38:	00050913          	mv	s2,a0
   19b3c:	00050b13          	mv	s6,a0
   19b40:	00098c93          	mv	s9,s3
   19b44:	eadff06f          	j	0x199f0
   19b48:	7409c863          	bltz	s3,0x1a298
   19b4c:	00012783          	lw	a5,0(sp)
   19b50:	0149e9b3          	or	s3,s3,s4
   19b54:	0137e9b3          	or	s3,a5,s3
   19b58:	74098063          	beqz	s3,0x1a298
   19b5c:	f1b054e3          	blez	s11,0x19a64
   19b60:	01012a83          	lw	s5,16(sp)
   19b64:	03900713          	li	a4,57
   19b68:	20eb8063          	beq	s7,a4,0x19d68
   19b6c:	02012703          	lw	a4,32(sp)
   19b70:	001b8793          	add	a5,s7,1
   19b74:	00090c13          	mv	s8,s2
   19b78:	001c8d13          	add	s10,s9,1
   19b7c:	00170a13          	add	s4,a4,1
   19b80:	00fc8023          	sb	a5,0(s9)
   19b84:	000b0913          	mv	s2,s6
   19b88:	c6dff06f          	j	0x197f4
   19b8c:	00200793          	li	a5,2
   19b90:	bb47dee3          	bge	a5,s4,0x1974c
   19b94:	000a8d13          	mv	s10,s5
   19b98:	9a0c10e3          	bnez	s8,0x19538
   19b9c:	01812583          	lw	a1,24(sp)
   19ba0:	00000693          	li	a3,0
   19ba4:	00500613          	li	a2,5
   19ba8:	00040513          	mv	a0,s0
   19bac:	218010ef          	jal	0x1adc4
   19bb0:	00050593          	mv	a1,a0
   19bb4:	00a12c23          	sw	a0,24(sp)
   19bb8:	00048513          	mv	a0,s1
   19bbc:	479010ef          	jal	0x1b834
   19bc0:	96a05ce3          	blez	a0,0x19538
   19bc4:	03100793          	li	a5,49
   19bc8:	00fa8023          	sb	a5,0(s5)
   19bcc:	02012783          	lw	a5,32(sp)
   19bd0:	001a8d13          	add	s10,s5,1
   19bd4:	00178a13          	add	s4,a5,1
   19bd8:	01812583          	lw	a1,24(sp)
   19bdc:	00040513          	mv	a0,s0
   19be0:	001a0a13          	add	s4,s4,1
   19be4:	1bc010ef          	jal	0x1ada0
   19be8:	c20918e3          	bnez	s2,0x19818
   19bec:	c39ff06f          	j	0x19824
   19bf0:	00050593          	mv	a1,a0
   19bf4:	00098613          	mv	a2,s3
   19bf8:	00040513          	mv	a0,s0
   19bfc:	159010ef          	jal	0x1b554
   19c00:	00100793          	li	a5,1
   19c04:	00a12c23          	sw	a0,24(sp)
   19c08:	1147de63          	bge	a5,s4,0x19d24
   19c0c:	00000993          	li	s3,0
   19c10:	01812703          	lw	a4,24(sp)
   19c14:	01072783          	lw	a5,16(a4)
   19c18:	00378793          	add	a5,a5,3
   19c1c:	00279793          	sll	a5,a5,0x2
   19c20:	00f707b3          	add	a5,a4,a5
   19c24:	0047a503          	lw	a0,4(a5)
   19c28:	45c010ef          	jal	0x1b084
   19c2c:	02000793          	li	a5,32
   19c30:	40a787b3          	sub	a5,a5,a0
   19c34:	ab5ff06f          	j	0x196e8
   19c38:	02412783          	lw	a5,36(sp)
   19c3c:	04079063          	bnez	a5,0x19c7c
   19c40:	00012783          	lw	a5,0(sp)
   19c44:	00c79793          	sll	a5,a5,0xc
   19c48:	02079a63          	bnez	a5,0x19c7c
   19c4c:	00012683          	lw	a3,0(sp)
   19c50:	00000793          	li	a5,0
   19c54:	0146d713          	srl	a4,a3,0x14
   19c58:	7ff77713          	and	a4,a4,2047
   19c5c:	00070c63          	beqz	a4,0x19c74
   19c60:	01012783          	lw	a5,16(sp)
   19c64:	001b0b13          	add	s6,s6,1
   19c68:	00178793          	add	a5,a5,1
   19c6c:	00f12823          	sw	a5,16(sp)
   19c70:	00100793          	li	a5,1
   19c74:	58099063          	bnez	s3,0x1a1f4
   19c78:	00078993          	mv	s3,a5
   19c7c:	00100793          	li	a5,1
   19c80:	a69ff06f          	j	0x196e8
   19c84:	a8d70ee3          	beq	a4,a3,0x19720
   19c88:	03c00713          	li	a4,60
   19c8c:	40f707b3          	sub	a5,a4,a5
   19c90:	a7dff06f          	j	0x1970c
   19c94:	00100793          	li	a5,1
   19c98:	00500a13          	li	s4,5
   19c9c:	02f12423          	sw	a5,40(sp)
   19ca0:	01412783          	lw	a5,20(sp)
   19ca4:	02012703          	lw	a4,32(sp)
   19ca8:	00e787b3          	add	a5,a5,a4
   19cac:	00178c13          	add	s8,a5,1
   19cb0:	02f12e23          	sw	a5,60(sp)
   19cb4:	000c0613          	mv	a2,s8
   19cb8:	ab804263          	bgtz	s8,0x18f5c
   19cbc:	00100613          	li	a2,1
   19cc0:	a9cff06f          	j	0x18f5c
   19cc4:	00051663          	bnez	a0,0x19cd0
   19cc8:	001bf793          	and	a5,s7,1
   19ccc:	b00792e3          	bnez	a5,0x197d0
   19cd0:	03000693          	li	a3,48
   19cd4:	fff9c783          	lbu	a5,-1(s3)
   19cd8:	00098d13          	mv	s10,s3
   19cdc:	fff98993          	add	s3,s3,-1
   19ce0:	fed78ae3          	beq	a5,a3,0x19cd4
   19ce4:	b11ff06f          	j	0x197f4
   19ce8:	000c0993          	mv	s3,s8
   19cec:	abdff06f          	j	0x197a8
   19cf0:	000b0793          	mv	a5,s6
   19cf4:	99dff06f          	j	0x19690
   19cf8:	03012783          	lw	a5,48(sp)
   19cfc:	01012703          	lw	a4,16(sp)
   19d00:	03712823          	sw	s7,48(sp)
   19d04:	40fb87b3          	sub	a5,s7,a5
   19d08:	00f989b3          	add	s3,s3,a5
   19d0c:	018707b3          	add	a5,a4,s8
   19d10:	00070c93          	mv	s9,a4
   19d14:	018b0b33          	add	s6,s6,s8
   19d18:	00f12823          	sw	a5,16(sp)
   19d1c:	00000b93          	li	s7,0
   19d20:	bd9ff06f          	j	0x198f8
   19d24:	02412783          	lw	a5,36(sp)
   19d28:	ee0792e3          	bnez	a5,0x19c0c
   19d2c:	00012783          	lw	a5,0(sp)
   19d30:	00c79793          	sll	a5,a5,0xc
   19d34:	ec079ce3          	bnez	a5,0x19c0c
   19d38:	f15ff06f          	j	0x19c4c
   19d3c:	01812303          	lw	t1,24(sp)
   19d40:	01c12d03          	lw	s10,28(sp)
   19d44:	00200913          	li	s2,2
   19d48:	ad0ff06f          	j	0x19018
   19d4c:	00200a13          	li	s4,2
   19d50:	02012423          	sw	zero,40(sp)
   19d54:	9f8ff06f          	j	0x18f4c
   19d58:	dc0510e3          	bnez	a0,0x19b18
   19d5c:	001bf713          	and	a4,s7,1
   19d60:	da0716e3          	bnez	a4,0x19b0c
   19d64:	db5ff06f          	j	0x19b18
   19d68:	03900793          	li	a5,57
   19d6c:	00fc8023          	sb	a5,0(s9)
   19d70:	02012783          	lw	a5,32(sp)
   19d74:	00090c13          	mv	s8,s2
   19d78:	001c8993          	add	s3,s9,1
   19d7c:	00178a13          	add	s4,a5,1
   19d80:	000b0913          	mv	s2,s6
   19d84:	a4dff06f          	j	0x197d0
   19d88:	00100793          	li	a5,1
   19d8c:	00100c13          	li	s8,1
   19d90:	00f12a23          	sw	a5,20(sp)
   19d94:	e50ff06f          	j	0x193e4
   19d98:	02012423          	sw	zero,40(sp)
   19d9c:	f05ff06f          	j	0x19ca0
   19da0:	03812703          	lw	a4,56(sp)
   19da4:	30070e63          	beqz	a4,0x1a0c0
   19da8:	01012703          	lw	a4,16(sp)
   19dac:	43378793          	add	a5,a5,1075
   19db0:	00fb0b33          	add	s6,s6,a5
   19db4:	00f707b3          	add	a5,a4,a5
   19db8:	03012b83          	lw	s7,48(sp)
   19dbc:	00070c93          	mv	s9,a4
   19dc0:	00f12823          	sw	a5,16(sp)
   19dc4:	b35ff06f          	j	0x198f8
   19dc8:	03100793          	li	a5,49
   19dcc:	00fa8023          	sb	a5,0(s5)
   19dd0:	001a0a13          	add	s4,s4,1
   19dd4:	a21ff06f          	j	0x197f4
   19dd8:	02012783          	lw	a5,32(sp)
   19ddc:	32078263          	beqz	a5,0x1a100
   19de0:	40f00bb3          	neg	s7,a5
   19de4:	00fbf713          	and	a4,s7,15
   19de8:	00371713          	sll	a4,a4,0x3
   19dec:	00009797          	auipc	a5,0x9
   19df0:	93478793          	add	a5,a5,-1740 # 0x22720
   19df4:	00e787b3          	add	a5,a5,a4
   19df8:	0007a603          	lw	a2,0(a5)
   19dfc:	0047a683          	lw	a3,4(a5)
   19e00:	01812503          	lw	a0,24(sp)
   19e04:	01c12583          	lw	a1,28(sp)
   19e08:	404bdb93          	sra	s7,s7,0x4
   19e0c:	578060ef          	jal	0x20384
   19e10:	00058d13          	mv	s10,a1
   19e14:	440b8c63          	beqz	s7,0x1a26c
   19e18:	00200913          	li	s2,2
   19e1c:	04812023          	sw	s0,64(sp)
   19e20:	00009c97          	auipc	s9,0x9
   19e24:	8d8c8c93          	add	s9,s9,-1832 # 0x226f8
   19e28:	00090413          	mv	s0,s2
   19e2c:	00050713          	mv	a4,a0
   19e30:	00000613          	li	a2,0
   19e34:	00050913          	mv	s2,a0
   19e38:	001bf693          	and	a3,s7,1
   19e3c:	02068063          	beqz	a3,0x19e5c
   19e40:	000ca603          	lw	a2,0(s9)
   19e44:	004ca683          	lw	a3,4(s9)
   19e48:	00070513          	mv	a0,a4
   19e4c:	00140413          	add	s0,s0,1
   19e50:	534060ef          	jal	0x20384
   19e54:	00050713          	mv	a4,a0
   19e58:	00100613          	li	a2,1
   19e5c:	401bdb93          	sra	s7,s7,0x1
   19e60:	008c8c93          	add	s9,s9,8
   19e64:	fc0b9ae3          	bnez	s7,0x19e38
   19e68:	00090513          	mv	a0,s2
   19e6c:	00058793          	mv	a5,a1
   19e70:	00040913          	mv	s2,s0
   19e74:	04012403          	lw	s0,64(sp)
   19e78:	a0061a63          	bnez	a2,0x1908c
   19e7c:	00050713          	mv	a4,a0
   19e80:	000d0793          	mv	a5,s10
   19e84:	a08ff06f          	j	0x1908c
   19e88:	00068593          	mv	a1,a3
   19e8c:	00070613          	mv	a2,a4
   19e90:	00070513          	mv	a0,a4
   19e94:	0e8050ef          	jal	0x1ef7c
   19e98:	02012783          	lw	a5,32(sp)
   19e9c:	00090613          	mv	a2,s2
   19ea0:	00098693          	mv	a3,s3
   19ea4:	00178a13          	add	s4,a5,1
   19ea8:	00050c93          	mv	s9,a0
   19eac:	00058b13          	mv	s6,a1
   19eb0:	000a0c13          	mv	s8,s4
   19eb4:	2c8060ef          	jal	0x2017c
   19eb8:	c4a04863          	bgtz	a0,0x19308
   19ebc:	000c8513          	mv	a0,s9
   19ec0:	000b0593          	mv	a1,s6
   19ec4:	00090613          	mv	a2,s2
   19ec8:	00098693          	mv	a3,s3
   19ecc:	224060ef          	jal	0x200f0
   19ed0:	00051663          	bnez	a0,0x19edc
   19ed4:	001d7d13          	and	s10,s10,1
   19ed8:	c20d1863          	bnez	s10,0x19308
   19edc:	000b8d13          	mv	s10,s7
   19ee0:	945ff06f          	j	0x19824
   19ee4:	00492583          	lw	a1,4(s2)
   19ee8:	00040513          	mv	a0,s0
   19eec:	601000ef          	jal	0x1acec
   19ef0:	00050993          	mv	s3,a0
   19ef4:	38050463          	beqz	a0,0x1a27c
   19ef8:	01092603          	lw	a2,16(s2)
   19efc:	00c90593          	add	a1,s2,12
   19f00:	00c50513          	add	a0,a0,12
   19f04:	00260613          	add	a2,a2,2
   19f08:	00261613          	sll	a2,a2,0x2
   19f0c:	dd4fe0ef          	jal	0x184e0
   19f10:	00100613          	li	a2,1
   19f14:	00098593          	mv	a1,s3
   19f18:	00040513          	mv	a0,s0
   19f1c:	788010ef          	jal	0x1b6a4
   19f20:	00050b13          	mv	s6,a0
   19f24:	aa9ff06f          	j	0x199cc
   19f28:	00090593          	mv	a1,s2
   19f2c:	000b8613          	mv	a2,s7
   19f30:	00040513          	mv	a0,s0
   19f34:	620010ef          	jal	0x1b554
   19f38:	00048613          	mv	a2,s1
   19f3c:	00050593          	mv	a1,a0
   19f40:	00050913          	mv	s2,a0
   19f44:	00040513          	mv	a0,s0
   19f48:	344010ef          	jal	0x1b28c
   19f4c:	00050793          	mv	a5,a0
   19f50:	00048593          	mv	a1,s1
   19f54:	00040513          	mv	a0,s0
   19f58:	00078493          	mv	s1,a5
   19f5c:	645000ef          	jal	0x1ada0
   19f60:	03012783          	lw	a5,48(sp)
   19f64:	417787b3          	sub	a5,a5,s7
   19f68:	02f12823          	sw	a5,48(sp)
   19f6c:	f6078063          	beqz	a5,0x196cc
   19f70:	f48ff06f          	j	0x196b8
   19f74:	05012603          	lw	a2,80(sp)
   19f78:	05412683          	lw	a3,84(sp)
   19f7c:	05812503          	lw	a0,88(sp)
   19f80:	04b12623          	sw	a1,76(sp)
   19f84:	000b8593          	mv	a1,s7
   19f88:	02612423          	sw	t1,40(sp)
   19f8c:	3f8060ef          	jal	0x20384
   19f90:	02812303          	lw	t1,40(sp)
   19f94:	04812783          	lw	a5,72(sp)
   19f98:	00100693          	li	a3,1
   19f9c:	006a8023          	sb	t1,0(s5)
   19fa0:	02a12c23          	sw	a0,56(sp)
   19fa4:	04c12883          	lw	a7,76(sp)
   19fa8:	00058913          	mv	s2,a1
   19fac:	00fa8bb3          	add	s7,s5,a5
   19fb0:	0000a617          	auipc	a2,0xa
   19fb4:	93860613          	add	a2,a2,-1736 # 0x238e8
   19fb8:	28d78c63          	beq	a5,a3,0x1a250
   19fbc:	00062783          	lw	a5,0(a2)
   19fc0:	00462803          	lw	a6,4(a2)
   19fc4:	04912423          	sw	s1,72(sp)
   19fc8:	02f12423          	sw	a5,40(sp)
   19fcc:	03012623          	sw	a6,44(sp)
   19fd0:	04812623          	sw	s0,76(sp)
   19fd4:	000c8513          	mv	a0,s9
   19fd8:	00088593          	mv	a1,a7
   19fdc:	02812603          	lw	a2,40(sp)
   19fe0:	02c12683          	lw	a3,44(sp)
   19fe4:	001d0d13          	add	s10,s10,1
   19fe8:	39c060ef          	jal	0x20384
   19fec:	00058413          	mv	s0,a1
   19ff0:	00050493          	mv	s1,a0
   19ff4:	47c070ef          	jal	0x21470
   19ff8:	00050c93          	mv	s9,a0
   19ffc:	4f8070ef          	jal	0x214f4
   1a000:	00050613          	mv	a2,a0
   1a004:	00058693          	mv	a3,a1
   1a008:	00048513          	mv	a0,s1
   1a00c:	00040593          	mv	a1,s0
   1a010:	030c8c93          	add	s9,s9,48
   1a014:	301060ef          	jal	0x20b14
   1a018:	ff9d0fa3          	sb	s9,-1(s10)
   1a01c:	fdab90e3          	bne	s7,s10,0x19fdc
   1a020:	04812483          	lw	s1,72(sp)
   1a024:	04c12403          	lw	s0,76(sp)
   1a028:	00050c93          	mv	s9,a0
   1a02c:	00058893          	mv	a7,a1
   1a030:	0000ad17          	auipc	s10,0xa
   1a034:	880d0d13          	add	s10,s10,-1920 # 0x238b0
   1a038:	000d2603          	lw	a2,0(s10)
   1a03c:	004d2683          	lw	a3,4(s10)
   1a040:	03812503          	lw	a0,56(sp)
   1a044:	00090593          	mv	a1,s2
   1a048:	03112423          	sw	a7,40(sp)
   1a04c:	731040ef          	jal	0x1ef7c
   1a050:	02812883          	lw	a7,40(sp)
   1a054:	000c8613          	mv	a2,s9
   1a058:	00088693          	mv	a3,a7
   1a05c:	220060ef          	jal	0x2027c
   1a060:	1a054863          	bltz	a0,0x1a210
   1a064:	03812603          	lw	a2,56(sp)
   1a068:	000d2503          	lw	a0,0(s10)
   1a06c:	004d2583          	lw	a1,4(s10)
   1a070:	00090693          	mv	a3,s2
   1a074:	2a1060ef          	jal	0x20b14
   1a078:	02812883          	lw	a7,40(sp)
   1a07c:	000c8613          	mv	a2,s9
   1a080:	00088693          	mv	a3,a7
   1a084:	0f8060ef          	jal	0x2017c
   1a088:	12a04863          	bgtz	a0,0x1a1b8
   1a08c:	06c12783          	lw	a5,108(sp)
   1a090:	de07c063          	bltz	a5,0x19670
   1a094:	02012703          	lw	a4,32(sp)
   1a098:	00e00793          	li	a5,14
   1a09c:	dce7ca63          	blt	a5,a4,0x19670
   1a0a0:	02012783          	lw	a5,32(sp)
   1a0a4:	00008717          	auipc	a4,0x8
   1a0a8:	67c70713          	add	a4,a4,1660 # 0x22720
   1a0ac:	00379793          	sll	a5,a5,0x3
   1a0b0:	00f707b3          	add	a5,a4,a5
   1a0b4:	0007a903          	lw	s2,0(a5)
   1a0b8:	0047a983          	lw	s3,4(a5)
   1a0bc:	c90ff06f          	j	0x1954c
   1a0c0:	06812703          	lw	a4,104(sp)
   1a0c4:	01012683          	lw	a3,16(sp)
   1a0c8:	03600793          	li	a5,54
   1a0cc:	40e787b3          	sub	a5,a5,a4
   1a0d0:	00fb0b33          	add	s6,s6,a5
   1a0d4:	00f687b3          	add	a5,a3,a5
   1a0d8:	03012b83          	lw	s7,48(sp)
   1a0dc:	00068c93          	mv	s9,a3
   1a0e0:	00f12823          	sw	a5,16(sp)
   1a0e4:	815ff06f          	j	0x198f8
   1a0e8:	02012783          	lw	a5,32(sp)
   1a0ec:	00090c13          	mv	s8,s2
   1a0f0:	01012a83          	lw	s5,16(sp)
   1a0f4:	00178a13          	add	s4,a5,1
   1a0f8:	000b0913          	mv	s2,s6
   1a0fc:	eb4ff06f          	j	0x197b0
   1a100:	01812703          	lw	a4,24(sp)
   1a104:	01c12783          	lw	a5,28(sp)
   1a108:	00200913          	li	s2,2
   1a10c:	f81fe06f          	j	0x1908c
   1a110:	b00c0063          	beqz	s8,0x19410
   1a114:	03c12d03          	lw	s10,60(sp)
   1a118:	bba05063          	blez	s10,0x194b8
   1a11c:	00009617          	auipc	a2,0x9
   1a120:	7cc60613          	add	a2,a2,1996 # 0x238e8
   1a124:	00078593          	mv	a1,a5
   1a128:	02012783          	lw	a5,32(sp)
   1a12c:	00462683          	lw	a3,4(a2)
   1a130:	00062603          	lw	a2,0(a2)
   1a134:	fff78793          	add	a5,a5,-1
   1a138:	00070513          	mv	a0,a4
   1a13c:	04f12e23          	sw	a5,92(sp)
   1a140:	244060ef          	jal	0x20384
   1a144:	00050713          	mv	a4,a0
   1a148:	00190513          	add	a0,s2,1
   1a14c:	04e12423          	sw	a4,72(sp)
   1a150:	04b12023          	sw	a1,64(sp)
   1a154:	3a0070ef          	jal	0x214f4
   1a158:	04812703          	lw	a4,72(sp)
   1a15c:	04012783          	lw	a5,64(sp)
   1a160:	00070613          	mv	a2,a4
   1a164:	00078693          	mv	a3,a5
   1a168:	04e12623          	sw	a4,76(sp)
   1a16c:	218060ef          	jal	0x20384
   1a170:	00009697          	auipc	a3,0x9
   1a174:	78068693          	add	a3,a3,1920 # 0x238f0
   1a178:	0006a603          	lw	a2,0(a3)
   1a17c:	0046a683          	lw	a3,4(a3)
   1a180:	5fd040ef          	jal	0x1ef7c
   1a184:	fcc006b7          	lui	a3,0xfcc00
   1a188:	04012783          	lw	a5,64(sp)
   1a18c:	04c12703          	lw	a4,76(sp)
   1a190:	00050c93          	mv	s9,a0
   1a194:	00b68bb3          	add	s7,a3,a1
   1a198:	05a12423          	sw	s10,72(sp)
   1a19c:	f91fe06f          	j	0x1912c
   1a1a0:	03100693          	li	a3,49
   1a1a4:	001c0c13          	add	s8,s8,1
   1a1a8:	984ff06f          	j	0x1932c
   1a1ac:	00012c23          	sw	zero,24(sp)
   1a1b0:	00000913          	li	s2,0
   1a1b4:	a11ff06f          	j	0x19bc4
   1a1b8:	03000613          	li	a2,48
   1a1bc:	fffbc783          	lbu	a5,-1(s7)
   1a1c0:	000b8d13          	mv	s10,s7
   1a1c4:	fffb8b93          	add	s7,s7,-1
   1a1c8:	fec78ae3          	beq	a5,a2,0x1a1bc
   1a1cc:	05c12783          	lw	a5,92(sp)
   1a1d0:	00178a13          	add	s4,a5,1
   1a1d4:	e50ff06f          	j	0x19824
   1a1d8:	03900713          	li	a4,57
   1a1dc:	01012a83          	lw	s5,16(sp)
   1a1e0:	b8eb84e3          	beq	s7,a4,0x19d68
   1a1e4:	933048e3          	bgtz	s3,0x19b14
   1a1e8:	931ff06f          	j	0x19b18
   1a1ec:	01012a83          	lw	s5,16(sp)
   1a1f0:	929ff06f          	j	0x19b18
   1a1f4:	00078993          	mv	s3,a5
   1a1f8:	a19ff06f          	j	0x19c10
   1a1fc:	00078c93          	mv	s9,a5
   1a200:	018787b3          	add	a5,a5,s8
   1a204:	018b0b33          	add	s6,s6,s8
   1a208:	00f12823          	sw	a5,16(sp)
   1a20c:	eecff06f          	j	0x198f8
   1a210:	05c12783          	lw	a5,92(sp)
   1a214:	00178c13          	add	s8,a5,1
   1a218:	8f0ff06f          	j	0x19308
   1a21c:	04c12983          	lw	s3,76(sp)
   1a220:	05012b03          	lw	s6,80(sp)
   1a224:	05812c03          	lw	s8,88(sp)
   1a228:	04812a03          	lw	s4,72(sp)
   1a22c:	a8cff06f          	j	0x194b8
   1a230:	00200793          	li	a5,2
   1a234:	0147c863          	blt	a5,s4,0x1a244
   1a238:	02012a03          	lw	s4,32(sp)
   1a23c:	03c12c03          	lw	s8,60(sp)
   1a240:	d1cff06f          	j	0x1975c
   1a244:	03c12c03          	lw	s8,60(sp)
   1a248:	03612023          	sw	s6,32(sp)
   1a24c:	949ff06f          	j	0x19b94
   1a250:	04012b83          	lw	s7,64(sp)
   1a254:	dddff06f          	j	0x1a030
   1a258:	00200793          	li	a5,2
   1a25c:	ff47c4e3          	blt	a5,s4,0x1a244
   1a260:	03c12c03          	lw	s8,60(sp)
   1a264:	03612023          	sw	s6,32(sp)
   1a268:	f44ff06f          	j	0x199ac
   1a26c:	00050713          	mv	a4,a0
   1a270:	00058793          	mv	a5,a1
   1a274:	00200913          	li	s2,2
   1a278:	e15fe06f          	j	0x1908c
   1a27c:	00008697          	auipc	a3,0x8
   1a280:	b6468693          	add	a3,a3,-1180 # 0x21de0
   1a284:	00000613          	li	a2,0
   1a288:	2ef00593          	li	a1,751
   1a28c:	00008517          	auipc	a0,0x8
   1a290:	b6850513          	add	a0,a0,-1176 # 0x21df4
   1a294:	260030ef          	jal	0x1d4f4
   1a298:	01012a83          	lw	s5,16(sp)
   1a29c:	85b048e3          	bgtz	s11,0x19aec
   1a2a0:	879ff06f          	j	0x19b18
   1a2a4:	00008697          	auipc	a3,0x8
   1a2a8:	b3c68693          	add	a3,a3,-1220 # 0x21de0
   1a2ac:	00000613          	li	a2,0
   1a2b0:	1af00593          	li	a1,431
   1a2b4:	00008517          	auipc	a0,0x8
   1a2b8:	b4050513          	add	a0,a0,-1216 # 0x21df4
   1a2bc:	238030ef          	jal	0x1d4f4
   1a2c0:	02042e23          	sw	zero,60(s0)
   1a2c4:	00000593          	li	a1,0
   1a2c8:	cc1fe06f          	j	0x18f88
   1a2cc:	02012423          	sw	zero,40(sp)
   1a2d0:	c7dfe06f          	j	0x18f4c
   1a2d4:	fd010113          	add	sp,sp,-48
   1a2d8:	01612823          	sw	s6,16(sp)
   1a2dc:	f4418b13          	add	s6,gp,-188
   1a2e0:	02912223          	sw	s1,36(sp)
   1a2e4:	01312e23          	sw	s3,28(sp)
   1a2e8:	01412c23          	sw	s4,24(sp)
   1a2ec:	01512a23          	sw	s5,20(sp)
   1a2f0:	02112623          	sw	ra,44(sp)
   1a2f4:	00050a93          	mv	s5,a0
   1a2f8:	00058993          	mv	s3,a1
   1a2fc:	00060a13          	mv	s4,a2
   1a300:	418030ef          	jal	0x1d718
   1a304:	000b2483          	lw	s1,0(s6)
   1a308:	02048a63          	beqz	s1,0x1a33c
   1a30c:	02812423          	sw	s0,40(sp)
   1a310:	0009c703          	lbu	a4,0(s3)
   1a314:	00098793          	mv	a5,s3
   1a318:	03d00693          	li	a3,61
   1a31c:	00000413          	li	s0,0
   1a320:	00071863          	bnez	a4,0x1a330
   1a324:	0480006f          	j	0x1a36c
   1a328:	0007c703          	lbu	a4,0(a5)
   1a32c:	02070e63          	beqz	a4,0x1a368
   1a330:	00178793          	add	a5,a5,1
   1a334:	fed71ae3          	bne	a4,a3,0x1a328
   1a338:	02812403          	lw	s0,40(sp)
   1a33c:	000a8513          	mv	a0,s5
   1a340:	3e0030ef          	jal	0x1d720
   1a344:	02c12083          	lw	ra,44(sp)
   1a348:	02412483          	lw	s1,36(sp)
   1a34c:	01c12983          	lw	s3,28(sp)
   1a350:	01812a03          	lw	s4,24(sp)
   1a354:	01412a83          	lw	s5,20(sp)
   1a358:	01012b03          	lw	s6,16(sp)
   1a35c:	00000513          	li	a0,0
   1a360:	03010113          	add	sp,sp,48
   1a364:	00008067          	ret
   1a368:	41378433          	sub	s0,a5,s3
   1a36c:	0004a503          	lw	a0,0(s1)
   1a370:	fc0504e3          	beqz	a0,0x1a338
   1a374:	01712623          	sw	s7,12(sp)
   1a378:	03212023          	sw	s2,32(sp)
   1a37c:	03d00b93          	li	s7,61
   1a380:	00040613          	mv	a2,s0
   1a384:	00098593          	mv	a1,s3
   1a388:	7f5020ef          	jal	0x1d37c
   1a38c:	00051a63          	bnez	a0,0x1a3a0
   1a390:	0004a903          	lw	s2,0(s1)
   1a394:	00890933          	add	s2,s2,s0
   1a398:	00094783          	lbu	a5,0(s2)
   1a39c:	03778063          	beq	a5,s7,0x1a3bc
   1a3a0:	0044a503          	lw	a0,4(s1)
   1a3a4:	00448493          	add	s1,s1,4
   1a3a8:	fc051ce3          	bnez	a0,0x1a380
   1a3ac:	02812403          	lw	s0,40(sp)
   1a3b0:	02012903          	lw	s2,32(sp)
   1a3b4:	00c12b83          	lw	s7,12(sp)
   1a3b8:	f85ff06f          	j	0x1a33c
   1a3bc:	000b2783          	lw	a5,0(s6)
   1a3c0:	000a8513          	mv	a0,s5
   1a3c4:	40f484b3          	sub	s1,s1,a5
   1a3c8:	4024d493          	sra	s1,s1,0x2
   1a3cc:	009a2023          	sw	s1,0(s4)
   1a3d0:	350030ef          	jal	0x1d720
   1a3d4:	02c12083          	lw	ra,44(sp)
   1a3d8:	02812403          	lw	s0,40(sp)
   1a3dc:	00c12b83          	lw	s7,12(sp)
   1a3e0:	02412483          	lw	s1,36(sp)
   1a3e4:	01c12983          	lw	s3,28(sp)
   1a3e8:	01812a03          	lw	s4,24(sp)
   1a3ec:	01412a83          	lw	s5,20(sp)
   1a3f0:	01012b03          	lw	s6,16(sp)
   1a3f4:	00190513          	add	a0,s2,1
   1a3f8:	02012903          	lw	s2,32(sp)
   1a3fc:	03010113          	add	sp,sp,48
   1a400:	00008067          	ret
   1a404:	fe010113          	add	sp,sp,-32
   1a408:	00c10613          	add	a2,sp,12
   1a40c:	00112e23          	sw	ra,28(sp)
   1a410:	ec5ff0ef          	jal	0x1a2d4
   1a414:	01c12083          	lw	ra,28(sp)
   1a418:	02010113          	add	sp,sp,32
   1a41c:	00008067          	ret
   1a420:	e1c1a783          	lw	a5,-484(gp)
   1a424:	00078067          	jr	a5
   1a428:	02058063          	beqz	a1,0x1a448
   1a42c:	04060263          	beqz	a2,0x1a470
   1a430:	04068863          	beqz	a3,0x1a480
   1a434:	00064783          	lbu	a5,0(a2)
   1a438:	00f5a023          	sw	a5,0(a1)
   1a43c:	00064503          	lbu	a0,0(a2)
   1a440:	00a03533          	snez	a0,a0
   1a444:	00008067          	ret
   1a448:	ff010113          	add	sp,sp,-16
   1a44c:	00c10593          	add	a1,sp,12
   1a450:	02060463          	beqz	a2,0x1a478
   1a454:	02068a63          	beqz	a3,0x1a488
   1a458:	00064783          	lbu	a5,0(a2)
   1a45c:	00f5a023          	sw	a5,0(a1)
   1a460:	00064503          	lbu	a0,0(a2)
   1a464:	00a03533          	snez	a0,a0
   1a468:	01010113          	add	sp,sp,16
   1a46c:	00008067          	ret
   1a470:	00000513          	li	a0,0
   1a474:	00008067          	ret
   1a478:	00000513          	li	a0,0
   1a47c:	fedff06f          	j	0x1a468
   1a480:	ffe00513          	li	a0,-2
   1a484:	00008067          	ret
   1a488:	ffe00513          	li	a0,-2
   1a48c:	fddff06f          	j	0x1a468
   1a490:	ff010113          	add	sp,sp,-16
   1a494:	00050e13          	mv	t3,a0
   1a498:	0a058463          	beqz	a1,0x1a540
   1a49c:	08060c63          	beqz	a2,0x1a534
   1a4a0:	28068663          	beqz	a3,0x1a72c
   1a4a4:	00072803          	lw	a6,0(a4)
   1a4a8:	06081c63          	bnez	a6,0x1a520
   1a4ac:	00064783          	lbu	a5,0(a2)
   1a4b0:	00100513          	li	a0,1
   1a4b4:	06078c63          	beqz	a5,0x1a52c
   1a4b8:	07f00893          	li	a7,127
   1a4bc:	12f8d263          	bge	a7,a5,0x1a5e0
   1a4c0:	f4078893          	add	a7,a5,-192
   1a4c4:	01f00313          	li	t1,31
   1a4c8:	09136063          	bltu	t1,a7,0x1a548
   1a4cc:	00f70223          	sb	a5,4(a4)
   1a4d0:	00081863          	bnez	a6,0x1a4e0
   1a4d4:	00100813          	li	a6,1
   1a4d8:	01072023          	sw	a6,0(a4)
   1a4dc:	25068863          	beq	a3,a6,0x1a72c
   1a4e0:	00a60633          	add	a2,a2,a0
   1a4e4:	00064683          	lbu	a3,0(a2)
   1a4e8:	03f00613          	li	a2,63
   1a4ec:	00150513          	add	a0,a0,1
   1a4f0:	f8068813          	add	a6,a3,-128
   1a4f4:	21066e63          	bltu	a2,a6,0x1a710
   1a4f8:	0c100613          	li	a2,193
   1a4fc:	20f65a63          	bge	a2,a5,0x1a710
   1a500:	00679793          	sll	a5,a5,0x6
   1a504:	7c07f793          	and	a5,a5,1984
   1a508:	03f6f693          	and	a3,a3,63
   1a50c:	00072023          	sw	zero,0(a4)
   1a510:	00d7e7b3          	or	a5,a5,a3
   1a514:	00f5a023          	sw	a5,0(a1)
   1a518:	01010113          	add	sp,sp,16
   1a51c:	00008067          	ret
   1a520:	00474783          	lbu	a5,4(a4)
   1a524:	00000513          	li	a0,0
   1a528:	f80798e3          	bnez	a5,0x1a4b8
   1a52c:	0005a023          	sw	zero,0(a1)
   1a530:	00072023          	sw	zero,0(a4)
   1a534:	00000513          	li	a0,0
   1a538:	01010113          	add	sp,sp,16
   1a53c:	00008067          	ret
   1a540:	00c10593          	add	a1,sp,12
   1a544:	f59ff06f          	j	0x1a49c
   1a548:	f2078893          	add	a7,a5,-224
   1a54c:	00f00313          	li	t1,15
   1a550:	0b136263          	bltu	t1,a7,0x1a5f4
   1a554:	00f70223          	sb	a5,4(a4)
   1a558:	16080863          	beqz	a6,0x1a6c8
   1a55c:	00168893          	add	a7,a3,1
   1a560:	011038b3          	snez	a7,a7
   1a564:	00100313          	li	t1,1
   1a568:	011686b3          	add	a3,a3,a7
   1a56c:	16680463          	beq	a6,t1,0x1a6d4
   1a570:	00574883          	lbu	a7,5(a4)
   1a574:	0e000313          	li	t1,224
   1a578:	18678863          	beq	a5,t1,0x1a708
   1a57c:	f8088313          	add	t1,a7,-128
   1a580:	03f00e93          	li	t4,63
   1a584:	186ee663          	bltu	t4,t1,0x1a710
   1a588:	011702a3          	sb	a7,5(a4)
   1a58c:	00100313          	li	t1,1
   1a590:	18680863          	beq	a6,t1,0x1a720
   1a594:	00a60633          	add	a2,a2,a0
   1a598:	00064683          	lbu	a3,0(a2)
   1a59c:	03f00613          	li	a2,63
   1a5a0:	00150513          	add	a0,a0,1
   1a5a4:	f8068813          	add	a6,a3,-128
   1a5a8:	17066463          	bltu	a2,a6,0x1a710
   1a5ac:	00001637          	lui	a2,0x1
   1a5b0:	00c79793          	sll	a5,a5,0xc
   1a5b4:	00689893          	sll	a7,a7,0x6
   1a5b8:	fc060613          	add	a2,a2,-64 # 0xfc0
   1a5bc:	0000f837          	lui	a6,0xf
   1a5c0:	0107f7b3          	and	a5,a5,a6
   1a5c4:	00c8f8b3          	and	a7,a7,a2
   1a5c8:	0117e7b3          	or	a5,a5,a7
   1a5cc:	03f6f693          	and	a3,a3,63
   1a5d0:	00072023          	sw	zero,0(a4)
   1a5d4:	00d7e7b3          	or	a5,a5,a3
   1a5d8:	00f5a023          	sw	a5,0(a1)
   1a5dc:	f5dff06f          	j	0x1a538
   1a5e0:	00072023          	sw	zero,0(a4)
   1a5e4:	00f5a023          	sw	a5,0(a1)
   1a5e8:	00100513          	li	a0,1
   1a5ec:	01010113          	add	sp,sp,16
   1a5f0:	00008067          	ret
   1a5f4:	f1078893          	add	a7,a5,-240
   1a5f8:	00400313          	li	t1,4
   1a5fc:	11136a63          	bltu	t1,a7,0x1a710
   1a600:	00f70223          	sb	a5,4(a4)
   1a604:	0e080263          	beqz	a6,0x1a6e8
   1a608:	00168893          	add	a7,a3,1
   1a60c:	011038b3          	snez	a7,a7
   1a610:	00100313          	li	t1,1
   1a614:	011686b3          	add	a3,a3,a7
   1a618:	0c680e63          	beq	a6,t1,0x1a6f4
   1a61c:	00574883          	lbu	a7,5(a4)
   1a620:	0f000313          	li	t1,240
   1a624:	10678863          	beq	a5,t1,0x1a734
   1a628:	0f400313          	li	t1,244
   1a62c:	14678863          	beq	a5,t1,0x1a77c
   1a630:	f8088313          	add	t1,a7,-128
   1a634:	03f00e93          	li	t4,63
   1a638:	0c6eec63          	bltu	t4,t1,0x1a710
   1a63c:	011702a3          	sb	a7,5(a4)
   1a640:	00100313          	li	t1,1
   1a644:	0e680e63          	beq	a6,t1,0x1a740
   1a648:	00072f03          	lw	t5,0(a4)
   1a64c:	00168813          	add	a6,a3,1
   1a650:	01003833          	snez	a6,a6
   1a654:	00200313          	li	t1,2
   1a658:	010686b3          	add	a3,a3,a6
   1a65c:	0e6f0863          	beq	t5,t1,0x1a74c
   1a660:	00674803          	lbu	a6,6(a4)
   1a664:	f8080693          	add	a3,a6,-128 # 0xef80
   1a668:	0adee463          	bltu	t4,a3,0x1a710
   1a66c:	00a60633          	add	a2,a2,a0
   1a670:	00064683          	lbu	a3,0(a2)
   1a674:	03f00613          	li	a2,63
   1a678:	00150513          	add	a0,a0,1
   1a67c:	f8068313          	add	t1,a3,-128
   1a680:	08666863          	bltu	a2,t1,0x1a710
   1a684:	001c0337          	lui	t1,0x1c0
   1a688:	01279793          	sll	a5,a5,0x12
   1a68c:	0067f7b3          	and	a5,a5,t1
   1a690:	00c89893          	sll	a7,a7,0xc
   1a694:	00001637          	lui	a2,0x1
   1a698:	0003f337          	lui	t1,0x3f
   1a69c:	0068f8b3          	and	a7,a7,t1
   1a6a0:	00681813          	sll	a6,a6,0x6
   1a6a4:	fc060613          	add	a2,a2,-64 # 0xfc0
   1a6a8:	0117e7b3          	or	a5,a5,a7
   1a6ac:	00c87833          	and	a6,a6,a2
   1a6b0:	0107e7b3          	or	a5,a5,a6
   1a6b4:	03f6f693          	and	a3,a3,63
   1a6b8:	00d7e7b3          	or	a5,a5,a3
   1a6bc:	00f5a023          	sw	a5,0(a1)
   1a6c0:	00072023          	sw	zero,0(a4)
   1a6c4:	e75ff06f          	j	0x1a538
   1a6c8:	00100813          	li	a6,1
   1a6cc:	01072023          	sw	a6,0(a4)
   1a6d0:	05068e63          	beq	a3,a6,0x1a72c
   1a6d4:	00a60833          	add	a6,a2,a0
   1a6d8:	00084883          	lbu	a7,0(a6)
   1a6dc:	00150513          	add	a0,a0,1
   1a6e0:	00100813          	li	a6,1
   1a6e4:	e91ff06f          	j	0x1a574
   1a6e8:	00100813          	li	a6,1
   1a6ec:	01072023          	sw	a6,0(a4)
   1a6f0:	03068e63          	beq	a3,a6,0x1a72c
   1a6f4:	00a60833          	add	a6,a2,a0
   1a6f8:	00084883          	lbu	a7,0(a6)
   1a6fc:	00150513          	add	a0,a0,1
   1a700:	00100813          	li	a6,1
   1a704:	f1dff06f          	j	0x1a620
   1a708:	09f00313          	li	t1,159
   1a70c:	e71348e3          	blt	t1,a7,0x1a57c
   1a710:	08a00793          	li	a5,138
   1a714:	00fe2023          	sw	a5,0(t3)
   1a718:	fff00513          	li	a0,-1
   1a71c:	e1dff06f          	j	0x1a538
   1a720:	00200813          	li	a6,2
   1a724:	01072023          	sw	a6,0(a4)
   1a728:	e70696e3          	bne	a3,a6,0x1a594
   1a72c:	ffe00513          	li	a0,-2
   1a730:	e09ff06f          	j	0x1a538
   1a734:	08f00313          	li	t1,143
   1a738:	ef134ce3          	blt	t1,a7,0x1a630
   1a73c:	fd5ff06f          	j	0x1a710
   1a740:	00200813          	li	a6,2
   1a744:	01072023          	sw	a6,0(a4)
   1a748:	ff0682e3          	beq	a3,a6,0x1a72c
   1a74c:	00a60833          	add	a6,a2,a0
   1a750:	00084803          	lbu	a6,0(a6)
   1a754:	03f00313          	li	t1,63
   1a758:	00150513          	add	a0,a0,1
   1a75c:	f8080e93          	add	t4,a6,-128
   1a760:	fbd368e3          	bltu	t1,t4,0x1a710
   1a764:	00300313          	li	t1,3
   1a768:	01070323          	sb	a6,6(a4)
   1a76c:	00672023          	sw	t1,0(a4)
   1a770:	ee669ee3          	bne	a3,t1,0x1a66c
   1a774:	ffe00513          	li	a0,-2
   1a778:	dc1ff06f          	j	0x1a538
   1a77c:	08f00313          	li	t1,143
   1a780:	eb1358e3          	bge	t1,a7,0x1a630
   1a784:	f8dff06f          	j	0x1a710
   1a788:	00050813          	mv	a6,a0
   1a78c:	08058263          	beqz	a1,0x1a810
   1a790:	12060463          	beqz	a2,0x1a8b8
   1a794:	12068a63          	beqz	a3,0x1a8c8
   1a798:	00072503          	lw	a0,0(a4)
   1a79c:	00064783          	lbu	a5,0(a2)
   1a7a0:	00050e63          	beqz	a0,0x1a7bc
   1a7a4:	00100693          	li	a3,1
   1a7a8:	02d50c63          	beq	a0,a3,0x1a7e0
   1a7ac:	00f5a023          	sw	a5,0(a1)
   1a7b0:	00064503          	lbu	a0,0(a2)
   1a7b4:	00a03533          	snez	a0,a0
   1a7b8:	00008067          	ret
   1a7bc:	f7f78513          	add	a0,a5,-129
   1a7c0:	01e00893          	li	a7,30
   1a7c4:	08a8e263          	bltu	a7,a0,0x1a848
   1a7c8:	00100513          	li	a0,1
   1a7cc:	00f70223          	sb	a5,4(a4)
   1a7d0:	00a72023          	sw	a0,0(a4)
   1a7d4:	0ea68a63          	beq	a3,a0,0x1a8c8
   1a7d8:	00164783          	lbu	a5,1(a2)
   1a7dc:	00200513          	li	a0,2
   1a7e0:	fc078693          	add	a3,a5,-64
   1a7e4:	03e00613          	li	a2,62
   1a7e8:	00d67863          	bgeu	a2,a3,0x1a7f8
   1a7ec:	f8078693          	add	a3,a5,-128
   1a7f0:	07c00613          	li	a2,124
   1a7f4:	0ed66263          	bltu	a2,a3,0x1a8d8
   1a7f8:	00474683          	lbu	a3,4(a4)
   1a7fc:	00869693          	sll	a3,a3,0x8
   1a800:	00f687b3          	add	a5,a3,a5
   1a804:	00f5a023          	sw	a5,0(a1)
   1a808:	00072023          	sw	zero,0(a4)
   1a80c:	00008067          	ret
   1a810:	ff010113          	add	sp,sp,-16
   1a814:	00c10593          	add	a1,sp,12
   1a818:	0a060463          	beqz	a2,0x1a8c0
   1a81c:	0a068a63          	beqz	a3,0x1a8d0
   1a820:	00072503          	lw	a0,0(a4)
   1a824:	00064783          	lbu	a5,0(a2)
   1a828:	02050863          	beqz	a0,0x1a858
   1a82c:	00100693          	li	a3,1
   1a830:	04d50c63          	beq	a0,a3,0x1a888
   1a834:	00f5a023          	sw	a5,0(a1)
   1a838:	00064503          	lbu	a0,0(a2)
   1a83c:	00a03533          	snez	a0,a0
   1a840:	01010113          	add	sp,sp,16
   1a844:	00008067          	ret
   1a848:	f2078513          	add	a0,a5,-224
   1a84c:	00f00893          	li	a7,15
   1a850:	f4a8eee3          	bltu	a7,a0,0x1a7ac
   1a854:	f75ff06f          	j	0x1a7c8
   1a858:	f7f78513          	add	a0,a5,-129
   1a85c:	01e00893          	li	a7,30
   1a860:	00a8f863          	bgeu	a7,a0,0x1a870
   1a864:	f2078513          	add	a0,a5,-224
   1a868:	00f00893          	li	a7,15
   1a86c:	fca8e4e3          	bltu	a7,a0,0x1a834
   1a870:	00100513          	li	a0,1
   1a874:	00f70223          	sb	a5,4(a4)
   1a878:	00a72023          	sw	a0,0(a4)
   1a87c:	04a68a63          	beq	a3,a0,0x1a8d0
   1a880:	00164783          	lbu	a5,1(a2)
   1a884:	00200513          	li	a0,2
   1a888:	fc078693          	add	a3,a5,-64
   1a88c:	03e00613          	li	a2,62
   1a890:	00d67863          	bgeu	a2,a3,0x1a8a0
   1a894:	f8078693          	add	a3,a5,-128
   1a898:	07c00613          	li	a2,124
   1a89c:	04d66663          	bltu	a2,a3,0x1a8e8
   1a8a0:	00474683          	lbu	a3,4(a4)
   1a8a4:	00869693          	sll	a3,a3,0x8
   1a8a8:	00f687b3          	add	a5,a3,a5
   1a8ac:	00f5a023          	sw	a5,0(a1)
   1a8b0:	00072023          	sw	zero,0(a4)
   1a8b4:	f8dff06f          	j	0x1a840
   1a8b8:	00000513          	li	a0,0
   1a8bc:	00008067          	ret
   1a8c0:	00000513          	li	a0,0
   1a8c4:	f7dff06f          	j	0x1a840
   1a8c8:	ffe00513          	li	a0,-2
   1a8cc:	00008067          	ret
   1a8d0:	ffe00513          	li	a0,-2
   1a8d4:	f6dff06f          	j	0x1a840
   1a8d8:	08a00793          	li	a5,138
   1a8dc:	00f82023          	sw	a5,0(a6)
   1a8e0:	fff00513          	li	a0,-1
   1a8e4:	00008067          	ret
   1a8e8:	08a00793          	li	a5,138
   1a8ec:	00f82023          	sw	a5,0(a6)
   1a8f0:	fff00513          	li	a0,-1
   1a8f4:	f4dff06f          	j	0x1a840
   1a8f8:	00050813          	mv	a6,a0
   1a8fc:	0c058263          	beqz	a1,0x1a9c0
   1a900:	18060663          	beqz	a2,0x1aa8c
   1a904:	1c068463          	beqz	a3,0x1aacc
   1a908:	00072503          	lw	a0,0(a4)
   1a90c:	00064783          	lbu	a5,0(a2)
   1a910:	02050263          	beqz	a0,0x1a934
   1a914:	00100893          	li	a7,1
   1a918:	05150663          	beq	a0,a7,0x1a964
   1a91c:	00200693          	li	a3,2
   1a920:	18d50463          	beq	a0,a3,0x1aaa8
   1a924:	00f5a023          	sw	a5,0(a1)
   1a928:	00064503          	lbu	a0,0(a2)
   1a92c:	00a03533          	snez	a0,a0
   1a930:	00008067          	ret
   1a934:	f7278513          	add	a0,a5,-142
   1a938:	00100893          	li	a7,1
   1a93c:	00a8f863          	bgeu	a7,a0,0x1a94c
   1a940:	f5f78513          	add	a0,a5,-161
   1a944:	05d00893          	li	a7,93
   1a948:	fca8eee3          	bltu	a7,a0,0x1a924
   1a94c:	00100513          	li	a0,1
   1a950:	00f70223          	sb	a5,4(a4)
   1a954:	00a72023          	sw	a0,0(a4)
   1a958:	16a68a63          	beq	a3,a0,0x1aacc
   1a95c:	00164783          	lbu	a5,1(a2)
   1a960:	00200513          	li	a0,2
   1a964:	f5f78893          	add	a7,a5,-161
   1a968:	05d00313          	li	t1,93
   1a96c:	17136863          	bltu	t1,a7,0x1aadc
   1a970:	00474883          	lbu	a7,4(a4)
   1a974:	08f00313          	li	t1,143
   1a978:	10689e63          	bne	a7,t1,0x1aa94
   1a97c:	00f702a3          	sb	a5,5(a4)
   1a980:	00200793          	li	a5,2
   1a984:	00f72023          	sw	a5,0(a4)
   1a988:	14d57263          	bgeu	a0,a3,0x1aacc
   1a98c:	00a60633          	add	a2,a2,a0
   1a990:	00064783          	lbu	a5,0(a2)
   1a994:	00150513          	add	a0,a0,1
   1a998:	f5f78693          	add	a3,a5,-161
   1a99c:	05d00613          	li	a2,93
   1a9a0:	12d66e63          	bltu	a2,a3,0x1aadc
   1a9a4:	00574683          	lbu	a3,5(a4)
   1a9a8:	07f7f793          	and	a5,a5,127
   1a9ac:	00869693          	sll	a3,a3,0x8
   1a9b0:	00f687b3          	add	a5,a3,a5
   1a9b4:	00f5a023          	sw	a5,0(a1)
   1a9b8:	00072023          	sw	zero,0(a4)
   1a9bc:	00008067          	ret
   1a9c0:	ff010113          	add	sp,sp,-16
   1a9c4:	00c10593          	add	a1,sp,12
   1a9c8:	0e060463          	beqz	a2,0x1aab0
   1a9cc:	12068063          	beqz	a3,0x1aaec
   1a9d0:	00072503          	lw	a0,0(a4)
   1a9d4:	00064783          	lbu	a5,0(a2)
   1a9d8:	02050463          	beqz	a0,0x1aa00
   1a9dc:	00100893          	li	a7,1
   1a9e0:	05150863          	beq	a0,a7,0x1aa30
   1a9e4:	00200693          	li	a3,2
   1a9e8:	0ed50663          	beq	a0,a3,0x1aad4
   1a9ec:	00f5a023          	sw	a5,0(a1)
   1a9f0:	00064503          	lbu	a0,0(a2)
   1a9f4:	00a03533          	snez	a0,a0
   1a9f8:	01010113          	add	sp,sp,16
   1a9fc:	00008067          	ret
   1aa00:	f7278513          	add	a0,a5,-142
   1aa04:	00100893          	li	a7,1
   1aa08:	00a8f863          	bgeu	a7,a0,0x1aa18
   1aa0c:	f5f78513          	add	a0,a5,-161
   1aa10:	05d00893          	li	a7,93
   1aa14:	fca8ece3          	bltu	a7,a0,0x1a9ec
   1aa18:	00100513          	li	a0,1
   1aa1c:	00f70223          	sb	a5,4(a4)
   1aa20:	00a72023          	sw	a0,0(a4)
   1aa24:	0ca68463          	beq	a3,a0,0x1aaec
   1aa28:	00164783          	lbu	a5,1(a2)
   1aa2c:	00200513          	li	a0,2
   1aa30:	f5f78893          	add	a7,a5,-161
   1aa34:	05d00313          	li	t1,93
   1aa38:	0b136e63          	bltu	t1,a7,0x1aaf4
   1aa3c:	00474883          	lbu	a7,4(a4)
   1aa40:	08f00313          	li	t1,143
   1aa44:	06689a63          	bne	a7,t1,0x1aab8
   1aa48:	00f702a3          	sb	a5,5(a4)
   1aa4c:	00200793          	li	a5,2
   1aa50:	00f72023          	sw	a5,0(a4)
   1aa54:	08d57c63          	bgeu	a0,a3,0x1aaec
   1aa58:	00a60633          	add	a2,a2,a0
   1aa5c:	00064783          	lbu	a5,0(a2)
   1aa60:	00150513          	add	a0,a0,1
   1aa64:	f5f78693          	add	a3,a5,-161
   1aa68:	05d00613          	li	a2,93
   1aa6c:	08d66463          	bltu	a2,a3,0x1aaf4
   1aa70:	00574683          	lbu	a3,5(a4)
   1aa74:	07f7f793          	and	a5,a5,127
   1aa78:	00869693          	sll	a3,a3,0x8
   1aa7c:	00f687b3          	add	a5,a3,a5
   1aa80:	00f5a023          	sw	a5,0(a1)
   1aa84:	00072023          	sw	zero,0(a4)
   1aa88:	f71ff06f          	j	0x1a9f8
   1aa8c:	00000513          	li	a0,0
   1aa90:	00008067          	ret
   1aa94:	00889893          	sll	a7,a7,0x8
   1aa98:	00f888b3          	add	a7,a7,a5
   1aa9c:	0115a023          	sw	a7,0(a1)
   1aaa0:	00072023          	sw	zero,0(a4)
   1aaa4:	00008067          	ret
   1aaa8:	00100513          	li	a0,1
   1aaac:	eedff06f          	j	0x1a998
   1aab0:	00000513          	li	a0,0
   1aab4:	f45ff06f          	j	0x1a9f8
   1aab8:	00889893          	sll	a7,a7,0x8
   1aabc:	00f888b3          	add	a7,a7,a5
   1aac0:	0115a023          	sw	a7,0(a1)
   1aac4:	00072023          	sw	zero,0(a4)
   1aac8:	f31ff06f          	j	0x1a9f8
   1aacc:	ffe00513          	li	a0,-2
   1aad0:	00008067          	ret
   1aad4:	00100513          	li	a0,1
   1aad8:	f8dff06f          	j	0x1aa64
   1aadc:	08a00793          	li	a5,138
   1aae0:	00f82023          	sw	a5,0(a6)
   1aae4:	fff00513          	li	a0,-1
   1aae8:	00008067          	ret
   1aaec:	ffe00513          	li	a0,-2
   1aaf0:	f09ff06f          	j	0x1a9f8
   1aaf4:	08a00793          	li	a5,138
   1aaf8:	00f82023          	sw	a5,0(a6)
   1aafc:	fff00513          	li	a0,-1
   1ab00:	ef9ff06f          	j	0x1a9f8
   1ab04:	fe010113          	add	sp,sp,-32
   1ab08:	06058e63          	beqz	a1,0x1ab84
   1ab0c:	08060063          	beqz	a2,0x1ab8c
   1ab10:	1c068a63          	beqz	a3,0x1ace4
   1ab14:	00812e23          	sw	s0,28(sp)
   1ab18:	00912c23          	sw	s1,24(sp)
   1ab1c:	01212a23          	sw	s2,20(sp)
   1ab20:	01312823          	sw	s3,16(sp)
   1ab24:	00060e93          	mv	t4,a2
   1ab28:	000ec303          	lbu	t1,0(t4)
   1ab2c:	00074903          	lbu	s2,0(a4)
   1ab30:	00060493          	mv	s1,a2
   1ab34:	00100893          	li	a7,1
   1ab38:	00008397          	auipc	t2,0x8
   1ab3c:	b4438393          	add	t2,t2,-1212 # 0x2267c
   1ab40:	00008297          	auipc	t0,0x8
   1ab44:	af428293          	add	t0,t0,-1292 # 0x22634
   1ab48:	02f00413          	li	s0,47
   1ab4c:	00008f17          	auipc	t5,0x8
   1ab50:	a10f0f13          	add	t5,t5,-1520 # 0x2255c
   1ab54:	00500f93          	li	t6,5
   1ab58:	00008e17          	auipc	t3,0x8
   1ab5c:	ac4e0e13          	add	t3,t3,-1340 # 0x2261c
   1ab60:	0a030063          	beqz	t1,0x1ac00
   1ab64:	fe530793          	add	a5,t1,-27 # 0x3efe5
   1ab68:	0ff7f793          	zext.b	a5,a5
   1ab6c:	02f46863          	bltu	s0,a5,0x1ab9c
   1ab70:	00279793          	sll	a5,a5,0x2
   1ab74:	01e787b3          	add	a5,a5,t5
   1ab78:	0007a783          	lw	a5,0(a5)
   1ab7c:	01e787b3          	add	a5,a5,t5
   1ab80:	00078067          	jr	a5
   1ab84:	00c10593          	add	a1,sp,12
   1ab88:	f80614e3          	bnez	a2,0x1ab10
   1ab8c:	00072023          	sw	zero,0(a4)
   1ab90:	00100513          	li	a0,1
   1ab94:	02010113          	add	sp,sp,32
   1ab98:	00008067          	ret
   1ab9c:	fdf30993          	add	s3,t1,-33
   1aba0:	05d00793          	li	a5,93
   1aba4:	0137b9b3          	sltu	s3,a5,s3
   1aba8:	00798993          	add	s3,s3,7
   1abac:	00391793          	sll	a5,s2,0x3
   1abb0:	012787b3          	add	a5,a5,s2
   1abb4:	00f28833          	add	a6,t0,a5
   1abb8:	01380833          	add	a6,a6,s3
   1abbc:	00084803          	lbu	a6,0(a6)
   1abc0:	00f387b3          	add	a5,t2,a5
   1abc4:	013787b3          	add	a5,a5,s3
   1abc8:	0007c903          	lbu	s2,0(a5)
   1abcc:	0d0fe863          	bltu	t6,a6,0x1ac9c
   1abd0:	00281813          	sll	a6,a6,0x2
   1abd4:	01c80833          	add	a6,a6,t3
   1abd8:	00082783          	lw	a5,0(a6)
   1abdc:	01c787b3          	add	a5,a5,t3
   1abe0:	00078067          	jr	a5
   1abe4:	00670223          	sb	t1,4(a4)
   1abe8:	001e8e93          	add	t4,t4,1
   1abec:	00188793          	add	a5,a7,1
   1abf0:	0ed8f063          	bgeu	a7,a3,0x1acd0
   1abf4:	000ec303          	lbu	t1,0(t4)
   1abf8:	00078893          	mv	a7,a5
   1abfc:	f60314e3          	bnez	t1,0x1ab64
   1ac00:	00600993          	li	s3,6
   1ac04:	fa9ff06f          	j	0x1abac
   1ac08:	01148633          	add	a2,s1,a7
   1ac0c:	fddff06f          	j	0x1abe8
   1ac10:	00100693          	li	a3,1
   1ac14:	00474783          	lbu	a5,4(a4)
   1ac18:	00d72023          	sw	a3,0(a4)
   1ac1c:	000ec703          	lbu	a4,0(t4)
   1ac20:	00879793          	sll	a5,a5,0x8
   1ac24:	00088513          	mv	a0,a7
   1ac28:	00e787b3          	add	a5,a5,a4
   1ac2c:	01c12403          	lw	s0,28(sp)
   1ac30:	01812483          	lw	s1,24(sp)
   1ac34:	01412903          	lw	s2,20(sp)
   1ac38:	01012983          	lw	s3,16(sp)
   1ac3c:	00f5a023          	sw	a5,0(a1)
   1ac40:	02010113          	add	sp,sp,32
   1ac44:	00008067          	ret
   1ac48:	00072023          	sw	zero,0(a4)
   1ac4c:	00064783          	lbu	a5,0(a2)
   1ac50:	00088513          	mv	a0,a7
   1ac54:	fd9ff06f          	j	0x1ac2c
   1ac58:	01c12403          	lw	s0,28(sp)
   1ac5c:	00072023          	sw	zero,0(a4)
   1ac60:	0005a023          	sw	zero,0(a1)
   1ac64:	01812483          	lw	s1,24(sp)
   1ac68:	01412903          	lw	s2,20(sp)
   1ac6c:	01012983          	lw	s3,16(sp)
   1ac70:	00000513          	li	a0,0
   1ac74:	02010113          	add	sp,sp,32
   1ac78:	00008067          	ret
   1ac7c:	00200993          	li	s3,2
   1ac80:	f2dff06f          	j	0x1abac
   1ac84:	00300993          	li	s3,3
   1ac88:	f25ff06f          	j	0x1abac
   1ac8c:	00400993          	li	s3,4
   1ac90:	f1dff06f          	j	0x1abac
   1ac94:	00500993          	li	s3,5
   1ac98:	f15ff06f          	j	0x1abac
   1ac9c:	01c12403          	lw	s0,28(sp)
   1aca0:	08a00793          	li	a5,138
   1aca4:	00f52023          	sw	a5,0(a0)
   1aca8:	01812483          	lw	s1,24(sp)
   1acac:	01412903          	lw	s2,20(sp)
   1acb0:	01012983          	lw	s3,16(sp)
   1acb4:	fff00513          	li	a0,-1
   1acb8:	02010113          	add	sp,sp,32
   1acbc:	00008067          	ret
   1acc0:	00100993          	li	s3,1
   1acc4:	ee9ff06f          	j	0x1abac
   1acc8:	00000993          	li	s3,0
   1accc:	ee1ff06f          	j	0x1abac
   1acd0:	01272023          	sw	s2,0(a4)
   1acd4:	01c12403          	lw	s0,28(sp)
   1acd8:	01812483          	lw	s1,24(sp)
   1acdc:	01412903          	lw	s2,20(sp)
   1ace0:	01012983          	lw	s3,16(sp)
   1ace4:	ffe00513          	li	a0,-2
   1ace8:	f59ff06f          	j	0x1ac40
   1acec:	04452783          	lw	a5,68(a0)
   1acf0:	ff010113          	add	sp,sp,-16
   1acf4:	00812423          	sw	s0,8(sp)
   1acf8:	00912223          	sw	s1,4(sp)
   1acfc:	00112623          	sw	ra,12(sp)
   1ad00:	00050413          	mv	s0,a0
   1ad04:	00058493          	mv	s1,a1
   1ad08:	02078c63          	beqz	a5,0x1ad40
   1ad0c:	00249713          	sll	a4,s1,0x2
   1ad10:	00e787b3          	add	a5,a5,a4
   1ad14:	0007a503          	lw	a0,0(a5)
   1ad18:	04050463          	beqz	a0,0x1ad60
   1ad1c:	00052703          	lw	a4,0(a0)
   1ad20:	00e7a023          	sw	a4,0(a5)
   1ad24:	00052823          	sw	zero,16(a0)
   1ad28:	00052623          	sw	zero,12(a0)
   1ad2c:	00c12083          	lw	ra,12(sp)
   1ad30:	00812403          	lw	s0,8(sp)
   1ad34:	00412483          	lw	s1,4(sp)
   1ad38:	01010113          	add	sp,sp,16
   1ad3c:	00008067          	ret
   1ad40:	02100613          	li	a2,33
   1ad44:	00400593          	li	a1,4
   1ad48:	015020ef          	jal	0x1d55c
   1ad4c:	04a42223          	sw	a0,68(s0)
   1ad50:	00050793          	mv	a5,a0
   1ad54:	fa051ce3          	bnez	a0,0x1ad0c
   1ad58:	00000513          	li	a0,0
   1ad5c:	fd1ff06f          	j	0x1ad2c
   1ad60:	01212023          	sw	s2,0(sp)
   1ad64:	00100913          	li	s2,1
   1ad68:	00991933          	sll	s2,s2,s1
   1ad6c:	00590613          	add	a2,s2,5
   1ad70:	00261613          	sll	a2,a2,0x2
   1ad74:	00100593          	li	a1,1
   1ad78:	00040513          	mv	a0,s0
   1ad7c:	7e0020ef          	jal	0x1d55c
   1ad80:	00050a63          	beqz	a0,0x1ad94
   1ad84:	01252423          	sw	s2,8(a0)
   1ad88:	00952223          	sw	s1,4(a0)
   1ad8c:	00012903          	lw	s2,0(sp)
   1ad90:	f95ff06f          	j	0x1ad24
   1ad94:	00012903          	lw	s2,0(sp)
   1ad98:	00000513          	li	a0,0
   1ad9c:	f91ff06f          	j	0x1ad2c
   1ada0:	02058063          	beqz	a1,0x1adc0
   1ada4:	0045a703          	lw	a4,4(a1)
   1ada8:	04452783          	lw	a5,68(a0)
   1adac:	00271713          	sll	a4,a4,0x2
   1adb0:	00e787b3          	add	a5,a5,a4
   1adb4:	0007a703          	lw	a4,0(a5)
   1adb8:	00e5a023          	sw	a4,0(a1)
   1adbc:	00b7a023          	sw	a1,0(a5)
   1adc0:	00008067          	ret
   1adc4:	fd010113          	add	sp,sp,-48
   1adc8:	01412c23          	sw	s4,24(sp)
   1adcc:	0105aa03          	lw	s4,16(a1)
   1add0:	01912223          	sw	s9,4(sp)
   1add4:	00010cb7          	lui	s9,0x10
   1add8:	02912223          	sw	s1,36(sp)
   1addc:	03212023          	sw	s2,32(sp)
   1ade0:	01312e23          	sw	s3,28(sp)
   1ade4:	01512a23          	sw	s5,20(sp)
   1ade8:	01612823          	sw	s6,16(sp)
   1adec:	01712623          	sw	s7,12(sp)
   1adf0:	02112623          	sw	ra,44(sp)
   1adf4:	02812423          	sw	s0,40(sp)
   1adf8:	01812423          	sw	s8,8(sp)
   1adfc:	00058a93          	mv	s5,a1
   1ae00:	00050b13          	mv	s6,a0
   1ae04:	00060993          	mv	s3,a2
   1ae08:	00068493          	mv	s1,a3
   1ae0c:	01458913          	add	s2,a1,20
   1ae10:	00000b93          	li	s7,0
   1ae14:	fffc8c93          	add	s9,s9,-1 # 0xffff
   1ae18:	00092c03          	lw	s8,0(s2)
   1ae1c:	00098593          	mv	a1,s3
   1ae20:	00490913          	add	s2,s2,4
   1ae24:	019c7533          	and	a0,s8,s9
   1ae28:	425060ef          	jal	0x21a4c
   1ae2c:	00050413          	mv	s0,a0
   1ae30:	00098593          	mv	a1,s3
   1ae34:	010c5513          	srl	a0,s8,0x10
   1ae38:	00940433          	add	s0,s0,s1
   1ae3c:	411060ef          	jal	0x21a4c
   1ae40:	01045793          	srl	a5,s0,0x10
   1ae44:	00f50533          	add	a0,a0,a5
   1ae48:	01051793          	sll	a5,a0,0x10
   1ae4c:	01947433          	and	s0,s0,s9
   1ae50:	008787b3          	add	a5,a5,s0
   1ae54:	fef92e23          	sw	a5,-4(s2)
   1ae58:	001b8b93          	add	s7,s7,1
   1ae5c:	01055493          	srl	s1,a0,0x10
   1ae60:	fb4bcce3          	blt	s7,s4,0x1ae18
   1ae64:	02048263          	beqz	s1,0x1ae88
   1ae68:	008aa783          	lw	a5,8(s5)
   1ae6c:	04fa5a63          	bge	s4,a5,0x1aec0
   1ae70:	004a0793          	add	a5,s4,4
   1ae74:	00279793          	sll	a5,a5,0x2
   1ae78:	00fa87b3          	add	a5,s5,a5
   1ae7c:	0097a223          	sw	s1,4(a5)
   1ae80:	001a0a13          	add	s4,s4,1
   1ae84:	014aa823          	sw	s4,16(s5)
   1ae88:	02c12083          	lw	ra,44(sp)
   1ae8c:	02812403          	lw	s0,40(sp)
   1ae90:	02412483          	lw	s1,36(sp)
   1ae94:	02012903          	lw	s2,32(sp)
   1ae98:	01c12983          	lw	s3,28(sp)
   1ae9c:	01812a03          	lw	s4,24(sp)
   1aea0:	01012b03          	lw	s6,16(sp)
   1aea4:	00c12b83          	lw	s7,12(sp)
   1aea8:	00812c03          	lw	s8,8(sp)
   1aeac:	00412c83          	lw	s9,4(sp)
   1aeb0:	000a8513          	mv	a0,s5
   1aeb4:	01412a83          	lw	s5,20(sp)
   1aeb8:	03010113          	add	sp,sp,48
   1aebc:	00008067          	ret
   1aec0:	004aa583          	lw	a1,4(s5)
   1aec4:	000b0513          	mv	a0,s6
   1aec8:	00158593          	add	a1,a1,1
   1aecc:	e21ff0ef          	jal	0x1acec
   1aed0:	00050413          	mv	s0,a0
   1aed4:	04050c63          	beqz	a0,0x1af2c
   1aed8:	010aa603          	lw	a2,16(s5)
   1aedc:	00ca8593          	add	a1,s5,12
   1aee0:	00c50513          	add	a0,a0,12
   1aee4:	00260613          	add	a2,a2,2
   1aee8:	00261613          	sll	a2,a2,0x2
   1aeec:	df4fd0ef          	jal	0x184e0
   1aef0:	004aa703          	lw	a4,4(s5)
   1aef4:	044b2783          	lw	a5,68(s6)
   1aef8:	00271713          	sll	a4,a4,0x2
   1aefc:	00e787b3          	add	a5,a5,a4
   1af00:	0007a703          	lw	a4,0(a5)
   1af04:	00eaa023          	sw	a4,0(s5)
   1af08:	0157a023          	sw	s5,0(a5)
   1af0c:	004a0793          	add	a5,s4,4
   1af10:	00040a93          	mv	s5,s0
   1af14:	00279793          	sll	a5,a5,0x2
   1af18:	00fa87b3          	add	a5,s5,a5
   1af1c:	0097a223          	sw	s1,4(a5)
   1af20:	001a0a13          	add	s4,s4,1
   1af24:	014aa823          	sw	s4,16(s5)
   1af28:	f61ff06f          	j	0x1ae88
   1af2c:	00007697          	auipc	a3,0x7
   1af30:	eb468693          	add	a3,a3,-332 # 0x21de0
   1af34:	00000613          	li	a2,0
   1af38:	0ba00593          	li	a1,186
   1af3c:	00007517          	auipc	a0,0x7
   1af40:	f3850513          	add	a0,a0,-200 # 0x21e74
   1af44:	5b0020ef          	jal	0x1d4f4
   1af48:	fe010113          	add	sp,sp,-32
   1af4c:	00812c23          	sw	s0,24(sp)
   1af50:	01212823          	sw	s2,16(sp)
   1af54:	00058413          	mv	s0,a1
   1af58:	00050913          	mv	s2,a0
   1af5c:	00900593          	li	a1,9
   1af60:	00868513          	add	a0,a3,8
   1af64:	00912a23          	sw	s1,20(sp)
   1af68:	01312623          	sw	s3,12(sp)
   1af6c:	01412423          	sw	s4,8(sp)
   1af70:	00112e23          	sw	ra,28(sp)
   1af74:	00068493          	mv	s1,a3
   1af78:	00060993          	mv	s3,a2
   1af7c:	00070a13          	mv	s4,a4
   1af80:	2f1060ef          	jal	0x21a70
   1af84:	00900793          	li	a5,9
   1af88:	0c97da63          	bge	a5,s1,0x1b05c
   1af8c:	00100793          	li	a5,1
   1af90:	00000593          	li	a1,0
   1af94:	00179793          	sll	a5,a5,0x1
   1af98:	00158593          	add	a1,a1,1
   1af9c:	fea7cce3          	blt	a5,a0,0x1af94
   1afa0:	00090513          	mv	a0,s2
   1afa4:	d49ff0ef          	jal	0x1acec
   1afa8:	00050593          	mv	a1,a0
   1afac:	0a050c63          	beqz	a0,0x1b064
   1afb0:	00100793          	li	a5,1
   1afb4:	00f52823          	sw	a5,16(a0)
   1afb8:	01452a23          	sw	s4,20(a0)
   1afbc:	00900793          	li	a5,9
   1afc0:	0937d863          	bge	a5,s3,0x1b050
   1afc4:	01512223          	sw	s5,4(sp)
   1afc8:	00940a93          	add	s5,s0,9
   1afcc:	01340a33          	add	s4,s0,s3
   1afd0:	000a8413          	mv	s0,s5
   1afd4:	00044683          	lbu	a3,0(s0)
   1afd8:	00a00613          	li	a2,10
   1afdc:	00090513          	mv	a0,s2
   1afe0:	fd068693          	add	a3,a3,-48
   1afe4:	de1ff0ef          	jal	0x1adc4
   1afe8:	00140413          	add	s0,s0,1
   1afec:	00050593          	mv	a1,a0
   1aff0:	ff4412e3          	bne	s0,s4,0x1afd4
   1aff4:	ff898413          	add	s0,s3,-8
   1aff8:	008a8433          	add	s0,s5,s0
   1affc:	00412a83          	lw	s5,4(sp)
   1b000:	0299d663          	bge	s3,s1,0x1b02c
   1b004:	413484b3          	sub	s1,s1,s3
   1b008:	009404b3          	add	s1,s0,s1
   1b00c:	00044683          	lbu	a3,0(s0)
   1b010:	00a00613          	li	a2,10
   1b014:	00090513          	mv	a0,s2
   1b018:	fd068693          	add	a3,a3,-48
   1b01c:	da9ff0ef          	jal	0x1adc4
   1b020:	00140413          	add	s0,s0,1
   1b024:	00050593          	mv	a1,a0
   1b028:	fe9412e3          	bne	s0,s1,0x1b00c
   1b02c:	01c12083          	lw	ra,28(sp)
   1b030:	01812403          	lw	s0,24(sp)
   1b034:	01412483          	lw	s1,20(sp)
   1b038:	01012903          	lw	s2,16(sp)
   1b03c:	00c12983          	lw	s3,12(sp)
   1b040:	00812a03          	lw	s4,8(sp)
   1b044:	00058513          	mv	a0,a1
   1b048:	02010113          	add	sp,sp,32
   1b04c:	00008067          	ret
   1b050:	00a40413          	add	s0,s0,10
   1b054:	00900993          	li	s3,9
   1b058:	fa9ff06f          	j	0x1b000
   1b05c:	00000593          	li	a1,0
   1b060:	f41ff06f          	j	0x1afa0
   1b064:	00007697          	auipc	a3,0x7
   1b068:	d7c68693          	add	a3,a3,-644 # 0x21de0
   1b06c:	00000613          	li	a2,0
   1b070:	0d300593          	li	a1,211
   1b074:	00007517          	auipc	a0,0x7
   1b078:	e0050513          	add	a0,a0,-512 # 0x21e74
   1b07c:	01512223          	sw	s5,4(sp)
   1b080:	474020ef          	jal	0x1d4f4
   1b084:	00050793          	mv	a5,a0
   1b088:	00010737          	lui	a4,0x10
   1b08c:	00000513          	li	a0,0
   1b090:	00e7f663          	bgeu	a5,a4,0x1b09c
   1b094:	01079793          	sll	a5,a5,0x10
   1b098:	01000513          	li	a0,16
   1b09c:	01000737          	lui	a4,0x1000
   1b0a0:	00e7f663          	bgeu	a5,a4,0x1b0ac
   1b0a4:	00850513          	add	a0,a0,8
   1b0a8:	00879793          	sll	a5,a5,0x8
   1b0ac:	10000737          	lui	a4,0x10000
   1b0b0:	00e7f663          	bgeu	a5,a4,0x1b0bc
   1b0b4:	00450513          	add	a0,a0,4
   1b0b8:	00479793          	sll	a5,a5,0x4
   1b0bc:	40000737          	lui	a4,0x40000
   1b0c0:	00e7ea63          	bltu	a5,a4,0x1b0d4
   1b0c4:	fff7c793          	not	a5,a5
   1b0c8:	01f7d793          	srl	a5,a5,0x1f
   1b0cc:	00f50533          	add	a0,a0,a5
   1b0d0:	00008067          	ret
   1b0d4:	00279793          	sll	a5,a5,0x2
   1b0d8:	0007ca63          	bltz	a5,0x1b0ec
   1b0dc:	00179713          	sll	a4,a5,0x1
   1b0e0:	00074a63          	bltz	a4,0x1b0f4
   1b0e4:	02000513          	li	a0,32
   1b0e8:	00008067          	ret
   1b0ec:	00250513          	add	a0,a0,2
   1b0f0:	00008067          	ret
   1b0f4:	00350513          	add	a0,a0,3
   1b0f8:	00008067          	ret
   1b0fc:	00052783          	lw	a5,0(a0)
   1b100:	00050713          	mv	a4,a0
   1b104:	0077f693          	and	a3,a5,7
   1b108:	02068463          	beqz	a3,0x1b130
   1b10c:	0017f693          	and	a3,a5,1
   1b110:	00000513          	li	a0,0
   1b114:	04069e63          	bnez	a3,0x1b170
   1b118:	0027f693          	and	a3,a5,2
   1b11c:	0a068863          	beqz	a3,0x1b1cc
   1b120:	0017d793          	srl	a5,a5,0x1
   1b124:	00f72023          	sw	a5,0(a4) # 0x40000000
   1b128:	00100513          	li	a0,1
   1b12c:	00008067          	ret
   1b130:	01079693          	sll	a3,a5,0x10
   1b134:	0106d693          	srl	a3,a3,0x10
   1b138:	00000513          	li	a0,0
   1b13c:	06068e63          	beqz	a3,0x1b1b8
   1b140:	0ff7f693          	zext.b	a3,a5
   1b144:	06068063          	beqz	a3,0x1b1a4
   1b148:	00f7f693          	and	a3,a5,15
   1b14c:	04068263          	beqz	a3,0x1b190
   1b150:	0037f693          	and	a3,a5,3
   1b154:	02068463          	beqz	a3,0x1b17c
   1b158:	0017f693          	and	a3,a5,1
   1b15c:	00069c63          	bnez	a3,0x1b174
   1b160:	0017d793          	srl	a5,a5,0x1
   1b164:	00150513          	add	a0,a0,1
   1b168:	00079663          	bnez	a5,0x1b174
   1b16c:	02000513          	li	a0,32
   1b170:	00008067          	ret
   1b174:	00f72023          	sw	a5,0(a4)
   1b178:	00008067          	ret
   1b17c:	0027d793          	srl	a5,a5,0x2
   1b180:	0017f693          	and	a3,a5,1
   1b184:	00250513          	add	a0,a0,2
   1b188:	fe0696e3          	bnez	a3,0x1b174
   1b18c:	fd5ff06f          	j	0x1b160
   1b190:	0047d793          	srl	a5,a5,0x4
   1b194:	0037f693          	and	a3,a5,3
   1b198:	00450513          	add	a0,a0,4
   1b19c:	fa069ee3          	bnez	a3,0x1b158
   1b1a0:	fddff06f          	j	0x1b17c
   1b1a4:	0087d793          	srl	a5,a5,0x8
   1b1a8:	00f7f693          	and	a3,a5,15
   1b1ac:	00850513          	add	a0,a0,8
   1b1b0:	fa0690e3          	bnez	a3,0x1b150
   1b1b4:	fddff06f          	j	0x1b190
   1b1b8:	0107d793          	srl	a5,a5,0x10
   1b1bc:	0ff7f693          	zext.b	a3,a5
   1b1c0:	01000513          	li	a0,16
   1b1c4:	f80692e3          	bnez	a3,0x1b148
   1b1c8:	fddff06f          	j	0x1b1a4
   1b1cc:	0027d793          	srl	a5,a5,0x2
   1b1d0:	00f72023          	sw	a5,0(a4)
   1b1d4:	00200513          	li	a0,2
   1b1d8:	00008067          	ret
   1b1dc:	04452783          	lw	a5,68(a0)
   1b1e0:	ff010113          	add	sp,sp,-16
   1b1e4:	00812423          	sw	s0,8(sp)
   1b1e8:	00912223          	sw	s1,4(sp)
   1b1ec:	00112623          	sw	ra,12(sp)
   1b1f0:	00050413          	mv	s0,a0
   1b1f4:	00058493          	mv	s1,a1
   1b1f8:	02078c63          	beqz	a5,0x1b230
   1b1fc:	0047a503          	lw	a0,4(a5)
   1b200:	06050263          	beqz	a0,0x1b264
   1b204:	00052703          	lw	a4,0(a0)
   1b208:	00e7a223          	sw	a4,4(a5)
   1b20c:	00c12083          	lw	ra,12(sp)
   1b210:	00812403          	lw	s0,8(sp)
   1b214:	00100793          	li	a5,1
   1b218:	00952a23          	sw	s1,20(a0)
   1b21c:	00052623          	sw	zero,12(a0)
   1b220:	00f52823          	sw	a5,16(a0)
   1b224:	00412483          	lw	s1,4(sp)
   1b228:	01010113          	add	sp,sp,16
   1b22c:	00008067          	ret
   1b230:	02100613          	li	a2,33
   1b234:	00400593          	li	a1,4
   1b238:	324020ef          	jal	0x1d55c
   1b23c:	04a42223          	sw	a0,68(s0)
   1b240:	00050793          	mv	a5,a0
   1b244:	fa051ce3          	bnez	a0,0x1b1fc
   1b248:	00007697          	auipc	a3,0x7
   1b24c:	b9868693          	add	a3,a3,-1128 # 0x21de0
   1b250:	00000613          	li	a2,0
   1b254:	14500593          	li	a1,325
   1b258:	00007517          	auipc	a0,0x7
   1b25c:	c1c50513          	add	a0,a0,-996 # 0x21e74
   1b260:	294020ef          	jal	0x1d4f4
   1b264:	01c00613          	li	a2,28
   1b268:	00100593          	li	a1,1
   1b26c:	00040513          	mv	a0,s0
   1b270:	2ec020ef          	jal	0x1d55c
   1b274:	fc050ae3          	beqz	a0,0x1b248
   1b278:	00100793          	li	a5,1
   1b27c:	00f52223          	sw	a5,4(a0)
   1b280:	00200793          	li	a5,2
   1b284:	00f52423          	sw	a5,8(a0)
   1b288:	f85ff06f          	j	0x1b20c
   1b28c:	fb010113          	add	sp,sp,-80
   1b290:	03312e23          	sw	s3,60(sp)
   1b294:	03812423          	sw	s8,40(sp)
   1b298:	01062983          	lw	s3,16(a2)
   1b29c:	0105ac03          	lw	s8,16(a1)
   1b2a0:	04812423          	sw	s0,72(sp)
   1b2a4:	03412c23          	sw	s4,56(sp)
   1b2a8:	04112623          	sw	ra,76(sp)
   1b2ac:	03712623          	sw	s7,44(sp)
   1b2b0:	00058a13          	mv	s4,a1
   1b2b4:	00060413          	mv	s0,a2
   1b2b8:	013c4c63          	blt	s8,s3,0x1b2d0
   1b2bc:	00098713          	mv	a4,s3
   1b2c0:	00058413          	mv	s0,a1
   1b2c4:	000c0993          	mv	s3,s8
   1b2c8:	00060a13          	mv	s4,a2
   1b2cc:	00070c13          	mv	s8,a4
   1b2d0:	00842783          	lw	a5,8(s0)
   1b2d4:	00442583          	lw	a1,4(s0)
   1b2d8:	01898bb3          	add	s7,s3,s8
   1b2dc:	0177a7b3          	slt	a5,a5,s7
   1b2e0:	00f585b3          	add	a1,a1,a5
   1b2e4:	a09ff0ef          	jal	0x1acec
   1b2e8:	00a12623          	sw	a0,12(sp)
   1b2ec:	22050863          	beqz	a0,0x1b51c
   1b2f0:	00c12783          	lw	a5,12(sp)
   1b2f4:	03512a23          	sw	s5,52(sp)
   1b2f8:	03612823          	sw	s6,48(sp)
   1b2fc:	002b9a93          	sll	s5,s7,0x2
   1b300:	01478b13          	add	s6,a5,20
   1b304:	015b0ab3          	add	s5,s6,s5
   1b308:	000b0793          	mv	a5,s6
   1b30c:	015b7863          	bgeu	s6,s5,0x1b31c
   1b310:	0007a023          	sw	zero,0(a5)
   1b314:	00478793          	add	a5,a5,4
   1b318:	ff57ece3          	bltu	a5,s5,0x1b310
   1b31c:	014a0a13          	add	s4,s4,20
   1b320:	002c1c13          	sll	s8,s8,0x2
   1b324:	01440793          	add	a5,s0,20
   1b328:	018a0733          	add	a4,s4,s8
   1b32c:	00299993          	sll	s3,s3,0x2
   1b330:	00f12423          	sw	a5,8(sp)
   1b334:	00e12023          	sw	a4,0(sp)
   1b338:	013789b3          	add	s3,a5,s3
   1b33c:	16ea7c63          	bgeu	s4,a4,0x1b4b4
   1b340:	00400713          	li	a4,4
   1b344:	04912223          	sw	s1,68(sp)
   1b348:	05212023          	sw	s2,64(sp)
   1b34c:	03912223          	sw	s9,36(sp)
   1b350:	03a12023          	sw	s10,32(sp)
   1b354:	01b12e23          	sw	s11,28(sp)
   1b358:	01540793          	add	a5,s0,21
   1b35c:	00e12223          	sw	a4,4(sp)
   1b360:	1af9f263          	bgeu	s3,a5,0x1b504
   1b364:	00010437          	lui	s0,0x10
   1b368:	fff40413          	add	s0,s0,-1 # 0xffff
   1b36c:	01c0006f          	j	0x1b388
   1b370:	01095913          	srl	s2,s2,0x10
   1b374:	0a091063          	bnez	s2,0x1b414
   1b378:	00012783          	lw	a5,0(sp)
   1b37c:	004a0a13          	add	s4,s4,4
   1b380:	004b0b13          	add	s6,s6,4
   1b384:	10fa7e63          	bgeu	s4,a5,0x1b4a0
   1b388:	000a2903          	lw	s2,0(s4)
   1b38c:	008974b3          	and	s1,s2,s0
   1b390:	fe0480e3          	beqz	s1,0x1b370
   1b394:	00812c83          	lw	s9,8(sp)
   1b398:	000b0d13          	mv	s10,s6
   1b39c:	00000c13          	li	s8,0
   1b3a0:	000cad83          	lw	s11,0(s9)
   1b3a4:	000d2903          	lw	s2,0(s10)
   1b3a8:	00048593          	mv	a1,s1
   1b3ac:	008df533          	and	a0,s11,s0
   1b3b0:	69c060ef          	jal	0x21a4c
   1b3b4:	00897733          	and	a4,s2,s0
   1b3b8:	00e50733          	add	a4,a0,a4
   1b3bc:	00048593          	mv	a1,s1
   1b3c0:	010dd513          	srl	a0,s11,0x10
   1b3c4:	01870c33          	add	s8,a4,s8
   1b3c8:	01095913          	srl	s2,s2,0x10
   1b3cc:	680060ef          	jal	0x21a4c
   1b3d0:	010c5713          	srl	a4,s8,0x10
   1b3d4:	01250533          	add	a0,a0,s2
   1b3d8:	00e50533          	add	a0,a0,a4
   1b3dc:	008c77b3          	and	a5,s8,s0
   1b3e0:	01051713          	sll	a4,a0,0x10
   1b3e4:	004d0d13          	add	s10,s10,4
   1b3e8:	00f767b3          	or	a5,a4,a5
   1b3ec:	004c8c93          	add	s9,s9,4
   1b3f0:	fefd2e23          	sw	a5,-4(s10)
   1b3f4:	01055c13          	srl	s8,a0,0x10
   1b3f8:	fb3ce4e3          	bltu	s9,s3,0x1b3a0
   1b3fc:	00412783          	lw	a5,4(sp)
   1b400:	00fb0733          	add	a4,s6,a5
   1b404:	01872023          	sw	s8,0(a4)
   1b408:	000a2903          	lw	s2,0(s4)
   1b40c:	01095913          	srl	s2,s2,0x10
   1b410:	f60904e3          	beqz	s2,0x1b378
   1b414:	000b2c83          	lw	s9,0(s6)
   1b418:	00812d03          	lw	s10,8(sp)
   1b41c:	000b0c13          	mv	s8,s6
   1b420:	000c8493          	mv	s1,s9
   1b424:	00000d93          	li	s11,0
   1b428:	000d2503          	lw	a0,0(s10)
   1b42c:	00090593          	mv	a1,s2
   1b430:	0104d493          	srl	s1,s1,0x10
   1b434:	00857533          	and	a0,a0,s0
   1b438:	614060ef          	jal	0x21a4c
   1b43c:	01b50733          	add	a4,a0,s11
   1b440:	00970db3          	add	s11,a4,s1
   1b444:	010d9593          	sll	a1,s11,0x10
   1b448:	008cf7b3          	and	a5,s9,s0
   1b44c:	00f5e7b3          	or	a5,a1,a5
   1b450:	00fc2023          	sw	a5,0(s8)
   1b454:	002d5503          	lhu	a0,2(s10)
   1b458:	004c2483          	lw	s1,4(s8)
   1b45c:	00090593          	mv	a1,s2
   1b460:	5ec060ef          	jal	0x21a4c
   1b464:	0084f7b3          	and	a5,s1,s0
   1b468:	010dd713          	srl	a4,s11,0x10
   1b46c:	00f507b3          	add	a5,a0,a5
   1b470:	004d0d13          	add	s10,s10,4
   1b474:	00e78cb3          	add	s9,a5,a4
   1b478:	004c0c13          	add	s8,s8,4
   1b47c:	010cdd93          	srl	s11,s9,0x10
   1b480:	fb3d64e3          	bltu	s10,s3,0x1b428
   1b484:	00412783          	lw	a5,4(sp)
   1b488:	004a0a13          	add	s4,s4,4
   1b48c:	00fb0733          	add	a4,s6,a5
   1b490:	00012783          	lw	a5,0(sp)
   1b494:	01972023          	sw	s9,0(a4)
   1b498:	004b0b13          	add	s6,s6,4
   1b49c:	eefa66e3          	bltu	s4,a5,0x1b388
   1b4a0:	04412483          	lw	s1,68(sp)
   1b4a4:	04012903          	lw	s2,64(sp)
   1b4a8:	02412c83          	lw	s9,36(sp)
   1b4ac:	02012d03          	lw	s10,32(sp)
   1b4b0:	01c12d83          	lw	s11,28(sp)
   1b4b4:	01704863          	bgtz	s7,0x1b4c4
   1b4b8:	0180006f          	j	0x1b4d0
   1b4bc:	fffb8b93          	add	s7,s7,-1
   1b4c0:	000b8863          	beqz	s7,0x1b4d0
   1b4c4:	ffcaa783          	lw	a5,-4(s5)
   1b4c8:	ffca8a93          	add	s5,s5,-4
   1b4cc:	fe0788e3          	beqz	a5,0x1b4bc
   1b4d0:	00c12783          	lw	a5,12(sp)
   1b4d4:	04c12083          	lw	ra,76(sp)
   1b4d8:	04812403          	lw	s0,72(sp)
   1b4dc:	0177a823          	sw	s7,16(a5)
   1b4e0:	03412a83          	lw	s5,52(sp)
   1b4e4:	03012b03          	lw	s6,48(sp)
   1b4e8:	03c12983          	lw	s3,60(sp)
   1b4ec:	03812a03          	lw	s4,56(sp)
   1b4f0:	02c12b83          	lw	s7,44(sp)
   1b4f4:	02812c03          	lw	s8,40(sp)
   1b4f8:	00078513          	mv	a0,a5
   1b4fc:	05010113          	add	sp,sp,80
   1b500:	00008067          	ret
   1b504:	408987b3          	sub	a5,s3,s0
   1b508:	feb78793          	add	a5,a5,-21
   1b50c:	ffc7f793          	and	a5,a5,-4
   1b510:	00478793          	add	a5,a5,4
   1b514:	00f12223          	sw	a5,4(sp)
   1b518:	e4dff06f          	j	0x1b364
   1b51c:	00007697          	auipc	a3,0x7
   1b520:	8c468693          	add	a3,a3,-1852 # 0x21de0
   1b524:	00000613          	li	a2,0
   1b528:	16200593          	li	a1,354
   1b52c:	00007517          	auipc	a0,0x7
   1b530:	94850513          	add	a0,a0,-1720 # 0x21e74
   1b534:	04912223          	sw	s1,68(sp)
   1b538:	05212023          	sw	s2,64(sp)
   1b53c:	03512a23          	sw	s5,52(sp)
   1b540:	03612823          	sw	s6,48(sp)
   1b544:	03912223          	sw	s9,36(sp)
   1b548:	03a12023          	sw	s10,32(sp)
   1b54c:	01b12e23          	sw	s11,28(sp)
   1b550:	7a5010ef          	jal	0x1d4f4
   1b554:	fe010113          	add	sp,sp,-32
   1b558:	00812c23          	sw	s0,24(sp)
   1b55c:	01212823          	sw	s2,16(sp)
   1b560:	01312623          	sw	s3,12(sp)
   1b564:	00112e23          	sw	ra,28(sp)
   1b568:	00367793          	and	a5,a2,3
   1b56c:	00060413          	mv	s0,a2
   1b570:	00050993          	mv	s3,a0
   1b574:	00058913          	mv	s2,a1
   1b578:	0a079c63          	bnez	a5,0x1b630
   1b57c:	40245413          	sra	s0,s0,0x2
   1b580:	06040a63          	beqz	s0,0x1b5f4
   1b584:	00912a23          	sw	s1,20(sp)
   1b588:	0409a483          	lw	s1,64(s3)
   1b58c:	0c048663          	beqz	s1,0x1b658
   1b590:	00147793          	and	a5,s0,1
   1b594:	02079063          	bnez	a5,0x1b5b4
   1b598:	40145413          	sra	s0,s0,0x1
   1b59c:	04040a63          	beqz	s0,0x1b5f0
   1b5a0:	0004a503          	lw	a0,0(s1)
   1b5a4:	06050663          	beqz	a0,0x1b610
   1b5a8:	00050493          	mv	s1,a0
   1b5ac:	00147793          	and	a5,s0,1
   1b5b0:	fe0784e3          	beqz	a5,0x1b598
   1b5b4:	00048613          	mv	a2,s1
   1b5b8:	00090593          	mv	a1,s2
   1b5bc:	00098513          	mv	a0,s3
   1b5c0:	ccdff0ef          	jal	0x1b28c
   1b5c4:	02090063          	beqz	s2,0x1b5e4
   1b5c8:	00492703          	lw	a4,4(s2)
   1b5cc:	0449a783          	lw	a5,68(s3)
   1b5d0:	00271713          	sll	a4,a4,0x2
   1b5d4:	00e787b3          	add	a5,a5,a4
   1b5d8:	0007a703          	lw	a4,0(a5)
   1b5dc:	00e92023          	sw	a4,0(s2)
   1b5e0:	0127a023          	sw	s2,0(a5)
   1b5e4:	40145413          	sra	s0,s0,0x1
   1b5e8:	00050913          	mv	s2,a0
   1b5ec:	fa041ae3          	bnez	s0,0x1b5a0
   1b5f0:	01412483          	lw	s1,20(sp)
   1b5f4:	01c12083          	lw	ra,28(sp)
   1b5f8:	01812403          	lw	s0,24(sp)
   1b5fc:	00c12983          	lw	s3,12(sp)
   1b600:	00090513          	mv	a0,s2
   1b604:	01012903          	lw	s2,16(sp)
   1b608:	02010113          	add	sp,sp,32
   1b60c:	00008067          	ret
   1b610:	00048613          	mv	a2,s1
   1b614:	00048593          	mv	a1,s1
   1b618:	00098513          	mv	a0,s3
   1b61c:	c71ff0ef          	jal	0x1b28c
   1b620:	00a4a023          	sw	a0,0(s1)
   1b624:	00052023          	sw	zero,0(a0)
   1b628:	00050493          	mv	s1,a0
   1b62c:	f81ff06f          	j	0x1b5ac
   1b630:	fff78793          	add	a5,a5,-1
   1b634:	00007717          	auipc	a4,0x7
   1b638:	09070713          	add	a4,a4,144 # 0x226c4
   1b63c:	00279793          	sll	a5,a5,0x2
   1b640:	00f707b3          	add	a5,a4,a5
   1b644:	0007a603          	lw	a2,0(a5)
   1b648:	00000693          	li	a3,0
   1b64c:	f78ff0ef          	jal	0x1adc4
   1b650:	00050913          	mv	s2,a0
   1b654:	f29ff06f          	j	0x1b57c
   1b658:	00100593          	li	a1,1
   1b65c:	00098513          	mv	a0,s3
   1b660:	e8cff0ef          	jal	0x1acec
   1b664:	00050493          	mv	s1,a0
   1b668:	02050063          	beqz	a0,0x1b688
   1b66c:	27100793          	li	a5,625
   1b670:	00f52a23          	sw	a5,20(a0)
   1b674:	00100793          	li	a5,1
   1b678:	00f52823          	sw	a5,16(a0)
   1b67c:	04a9a023          	sw	a0,64(s3)
   1b680:	00052023          	sw	zero,0(a0)
   1b684:	f0dff06f          	j	0x1b590
   1b688:	00006697          	auipc	a3,0x6
   1b68c:	75868693          	add	a3,a3,1880 # 0x21de0
   1b690:	00000613          	li	a2,0
   1b694:	14500593          	li	a1,325
   1b698:	00006517          	auipc	a0,0x6
   1b69c:	7dc50513          	add	a0,a0,2012 # 0x21e74
   1b6a0:	655010ef          	jal	0x1d4f4
   1b6a4:	fe010113          	add	sp,sp,-32
   1b6a8:	01512223          	sw	s5,4(sp)
   1b6ac:	0105aa83          	lw	s5,16(a1)
   1b6b0:	0085a783          	lw	a5,8(a1)
   1b6b4:	01312623          	sw	s3,12(sp)
   1b6b8:	40565993          	sra	s3,a2,0x5
   1b6bc:	01598ab3          	add	s5,s3,s5
   1b6c0:	00812c23          	sw	s0,24(sp)
   1b6c4:	00912a23          	sw	s1,20(sp)
   1b6c8:	01212823          	sw	s2,16(sp)
   1b6cc:	01412423          	sw	s4,8(sp)
   1b6d0:	00112e23          	sw	ra,28(sp)
   1b6d4:	001a8913          	add	s2,s5,1
   1b6d8:	00058493          	mv	s1,a1
   1b6dc:	00060413          	mv	s0,a2
   1b6e0:	0045a583          	lw	a1,4(a1)
   1b6e4:	00050a13          	mv	s4,a0
   1b6e8:	0127d863          	bge	a5,s2,0x1b6f8
   1b6ec:	00179793          	sll	a5,a5,0x1
   1b6f0:	00158593          	add	a1,a1,1
   1b6f4:	ff27cce3          	blt	a5,s2,0x1b6ec
   1b6f8:	000a0513          	mv	a0,s4
   1b6fc:	df0ff0ef          	jal	0x1acec
   1b700:	10050c63          	beqz	a0,0x1b818
   1b704:	01450813          	add	a6,a0,20
   1b708:	03305463          	blez	s3,0x1b730
   1b70c:	00598993          	add	s3,s3,5
   1b710:	00299993          	sll	s3,s3,0x2
   1b714:	01350733          	add	a4,a0,s3
   1b718:	00080793          	mv	a5,a6
   1b71c:	00478793          	add	a5,a5,4
   1b720:	fe07ae23          	sw	zero,-4(a5)
   1b724:	fee79ce3          	bne	a5,a4,0x1b71c
   1b728:	fec98993          	add	s3,s3,-20
   1b72c:	01380833          	add	a6,a6,s3
   1b730:	0104a883          	lw	a7,16(s1)
   1b734:	01448793          	add	a5,s1,20
   1b738:	01f47613          	and	a2,s0,31
   1b73c:	00289893          	sll	a7,a7,0x2
   1b740:	011788b3          	add	a7,a5,a7
   1b744:	0a060463          	beqz	a2,0x1b7ec
   1b748:	02000593          	li	a1,32
   1b74c:	40c585b3          	sub	a1,a1,a2
   1b750:	00080313          	mv	t1,a6
   1b754:	00000693          	li	a3,0
   1b758:	0007a703          	lw	a4,0(a5)
   1b75c:	00430313          	add	t1,t1,4
   1b760:	00478793          	add	a5,a5,4
   1b764:	00c71733          	sll	a4,a4,a2
   1b768:	00d76733          	or	a4,a4,a3
   1b76c:	fee32e23          	sw	a4,-4(t1)
   1b770:	ffc7a683          	lw	a3,-4(a5)
   1b774:	00b6d6b3          	srl	a3,a3,a1
   1b778:	ff17e0e3          	bltu	a5,a7,0x1b758
   1b77c:	01548793          	add	a5,s1,21
   1b780:	00400713          	li	a4,4
   1b784:	00f8ea63          	bltu	a7,a5,0x1b798
   1b788:	409887b3          	sub	a5,a7,s1
   1b78c:	feb78793          	add	a5,a5,-21
   1b790:	ffc7f793          	and	a5,a5,-4
   1b794:	00478713          	add	a4,a5,4
   1b798:	00e80833          	add	a6,a6,a4
   1b79c:	00d82023          	sw	a3,0(a6)
   1b7a0:	00069463          	bnez	a3,0x1b7a8
   1b7a4:	000a8913          	mv	s2,s5
   1b7a8:	0044a703          	lw	a4,4(s1)
   1b7ac:	044a2783          	lw	a5,68(s4)
   1b7b0:	01c12083          	lw	ra,28(sp)
   1b7b4:	00271713          	sll	a4,a4,0x2
   1b7b8:	00e787b3          	add	a5,a5,a4
   1b7bc:	0007a703          	lw	a4,0(a5)
   1b7c0:	01252823          	sw	s2,16(a0)
   1b7c4:	01812403          	lw	s0,24(sp)
   1b7c8:	00e4a023          	sw	a4,0(s1)
   1b7cc:	0097a023          	sw	s1,0(a5)
   1b7d0:	01012903          	lw	s2,16(sp)
   1b7d4:	01412483          	lw	s1,20(sp)
   1b7d8:	00c12983          	lw	s3,12(sp)
   1b7dc:	00812a03          	lw	s4,8(sp)
   1b7e0:	00412a83          	lw	s5,4(sp)
   1b7e4:	02010113          	add	sp,sp,32
   1b7e8:	00008067          	ret
   1b7ec:	0007a703          	lw	a4,0(a5)
   1b7f0:	00478793          	add	a5,a5,4
   1b7f4:	00480813          	add	a6,a6,4
   1b7f8:	fee82e23          	sw	a4,-4(a6)
   1b7fc:	fb17f4e3          	bgeu	a5,a7,0x1b7a4
   1b800:	0007a703          	lw	a4,0(a5)
   1b804:	00478793          	add	a5,a5,4
   1b808:	00480813          	add	a6,a6,4
   1b80c:	fee82e23          	sw	a4,-4(a6)
   1b810:	fd17eee3          	bltu	a5,a7,0x1b7ec
   1b814:	f91ff06f          	j	0x1b7a4
   1b818:	00006697          	auipc	a3,0x6
   1b81c:	5c868693          	add	a3,a3,1480 # 0x21de0
   1b820:	00000613          	li	a2,0
   1b824:	1de00593          	li	a1,478
   1b828:	00006517          	auipc	a0,0x6
   1b82c:	64c50513          	add	a0,a0,1612 # 0x21e74
   1b830:	4c5010ef          	jal	0x1d4f4
   1b834:	01052703          	lw	a4,16(a0)
   1b838:	0105a783          	lw	a5,16(a1)
   1b83c:	00050813          	mv	a6,a0
   1b840:	40f70533          	sub	a0,a4,a5
   1b844:	04f71263          	bne	a4,a5,0x1b888
   1b848:	00279793          	sll	a5,a5,0x2
   1b84c:	01480813          	add	a6,a6,20
   1b850:	01458593          	add	a1,a1,20
   1b854:	00f80733          	add	a4,a6,a5
   1b858:	00f587b3          	add	a5,a1,a5
   1b85c:	0080006f          	j	0x1b864
   1b860:	02e87463          	bgeu	a6,a4,0x1b888
   1b864:	ffc72603          	lw	a2,-4(a4)
   1b868:	ffc7a683          	lw	a3,-4(a5)
   1b86c:	ffc70713          	add	a4,a4,-4
   1b870:	ffc78793          	add	a5,a5,-4
   1b874:	fed606e3          	beq	a2,a3,0x1b860
   1b878:	00100513          	li	a0,1
   1b87c:	00d67663          	bgeu	a2,a3,0x1b888
   1b880:	fff00513          	li	a0,-1
   1b884:	00008067          	ret
   1b888:	00008067          	ret
   1b88c:	0105a703          	lw	a4,16(a1)
   1b890:	01062783          	lw	a5,16(a2)
   1b894:	ff010113          	add	sp,sp,-16
   1b898:	00812423          	sw	s0,8(sp)
   1b89c:	00912223          	sw	s1,4(sp)
   1b8a0:	00112623          	sw	ra,12(sp)
   1b8a4:	01212023          	sw	s2,0(sp)
   1b8a8:	00058413          	mv	s0,a1
   1b8ac:	00060493          	mv	s1,a2
   1b8b0:	40f706b3          	sub	a3,a4,a5
   1b8b4:	18f71e63          	bne	a4,a5,0x1ba50
   1b8b8:	00279693          	sll	a3,a5,0x2
   1b8bc:	01458613          	add	a2,a1,20
   1b8c0:	01448713          	add	a4,s1,20
   1b8c4:	00d607b3          	add	a5,a2,a3
   1b8c8:	00d70733          	add	a4,a4,a3
   1b8cc:	0080006f          	j	0x1b8d4
   1b8d0:	18f67c63          	bgeu	a2,a5,0x1ba68
   1b8d4:	ffc7a583          	lw	a1,-4(a5)
   1b8d8:	ffc72683          	lw	a3,-4(a4)
   1b8dc:	ffc78793          	add	a5,a5,-4
   1b8e0:	ffc70713          	add	a4,a4,-4
   1b8e4:	fed586e3          	beq	a1,a3,0x1b8d0
   1b8e8:	00100913          	li	s2,1
   1b8ec:	00d5ea63          	bltu	a1,a3,0x1b900
   1b8f0:	00048793          	mv	a5,s1
   1b8f4:	00000913          	li	s2,0
   1b8f8:	00040493          	mv	s1,s0
   1b8fc:	00078413          	mv	s0,a5
   1b900:	0044a583          	lw	a1,4(s1)
   1b904:	be8ff0ef          	jal	0x1acec
   1b908:	1a050663          	beqz	a0,0x1bab4
   1b90c:	0104a883          	lw	a7,16(s1)
   1b910:	01042283          	lw	t0,16(s0)
   1b914:	01448f93          	add	t6,s1,20
   1b918:	00289313          	sll	t1,a7,0x2
   1b91c:	01440813          	add	a6,s0,20
   1b920:	00229293          	sll	t0,t0,0x2
   1b924:	01450593          	add	a1,a0,20
   1b928:	00010e37          	lui	t3,0x10
   1b92c:	01252623          	sw	s2,12(a0)
   1b930:	006f8333          	add	t1,t6,t1
   1b934:	005802b3          	add	t0,a6,t0
   1b938:	00058f13          	mv	t5,a1
   1b93c:	000f8e93          	mv	t4,t6
   1b940:	00000693          	li	a3,0
   1b944:	fffe0e13          	add	t3,t3,-1 # 0xffff
   1b948:	000ea703          	lw	a4,0(t4)
   1b94c:	00082603          	lw	a2,0(a6)
   1b950:	004f0f13          	add	t5,t5,4
   1b954:	01c777b3          	and	a5,a4,t3
   1b958:	01c673b3          	and	t2,a2,t3
   1b95c:	407787b3          	sub	a5,a5,t2
   1b960:	00d787b3          	add	a5,a5,a3
   1b964:	01075713          	srl	a4,a4,0x10
   1b968:	01065613          	srl	a2,a2,0x10
   1b96c:	4107d693          	sra	a3,a5,0x10
   1b970:	40c70733          	sub	a4,a4,a2
   1b974:	00d70733          	add	a4,a4,a3
   1b978:	01071693          	sll	a3,a4,0x10
   1b97c:	01c7f7b3          	and	a5,a5,t3
   1b980:	00d7e7b3          	or	a5,a5,a3
   1b984:	00480813          	add	a6,a6,4
   1b988:	feff2e23          	sw	a5,-4(t5)
   1b98c:	004e8e93          	add	t4,t4,4
   1b990:	41075693          	sra	a3,a4,0x10
   1b994:	fa586ae3          	bltu	a6,t0,0x1b948
   1b998:	01540713          	add	a4,s0,21
   1b99c:	40828433          	sub	s0,t0,s0
   1b9a0:	feb40413          	add	s0,s0,-21
   1b9a4:	00e2b2b3          	sltu	t0,t0,a4
   1b9a8:	0012cf13          	xor	t5,t0,1
   1b9ac:	00245413          	srl	s0,s0,0x2
   1b9b0:	00400713          	li	a4,4
   1b9b4:	0a028463          	beqz	t0,0x1ba5c
   1b9b8:	00ef8fb3          	add	t6,t6,a4
   1b9bc:	00e58833          	add	a6,a1,a4
   1b9c0:	00010eb7          	lui	t4,0x10
   1b9c4:	00080e13          	mv	t3,a6
   1b9c8:	000f8613          	mv	a2,t6
   1b9cc:	fffe8e93          	add	t4,t4,-1 # 0xffff
   1b9d0:	0c6ff463          	bgeu	t6,t1,0x1ba98
   1b9d4:	00062783          	lw	a5,0(a2)
   1b9d8:	004e0e13          	add	t3,t3,4
   1b9dc:	00460613          	add	a2,a2,4
   1b9e0:	01d7f733          	and	a4,a5,t4
   1b9e4:	00d70733          	add	a4,a4,a3
   1b9e8:	0107d593          	srl	a1,a5,0x10
   1b9ec:	41075713          	sra	a4,a4,0x10
   1b9f0:	00b70733          	add	a4,a4,a1
   1b9f4:	00d787b3          	add	a5,a5,a3
   1b9f8:	01d7f7b3          	and	a5,a5,t4
   1b9fc:	01071693          	sll	a3,a4,0x10
   1ba00:	00d7e7b3          	or	a5,a5,a3
   1ba04:	fefe2e23          	sw	a5,-4(t3)
   1ba08:	41075693          	sra	a3,a4,0x10
   1ba0c:	fc6664e3          	bltu	a2,t1,0x1b9d4
   1ba10:	fff30313          	add	t1,t1,-1
   1ba14:	41f30333          	sub	t1,t1,t6
   1ba18:	ffc37313          	and	t1,t1,-4
   1ba1c:	00680733          	add	a4,a6,t1
   1ba20:	00079a63          	bnez	a5,0x1ba34
   1ba24:	ffc72783          	lw	a5,-4(a4)
   1ba28:	fff88893          	add	a7,a7,-1
   1ba2c:	ffc70713          	add	a4,a4,-4
   1ba30:	fe078ae3          	beqz	a5,0x1ba24
   1ba34:	00c12083          	lw	ra,12(sp)
   1ba38:	00812403          	lw	s0,8(sp)
   1ba3c:	01152823          	sw	a7,16(a0)
   1ba40:	00412483          	lw	s1,4(sp)
   1ba44:	00012903          	lw	s2,0(sp)
   1ba48:	01010113          	add	sp,sp,16
   1ba4c:	00008067          	ret
   1ba50:	00100913          	li	s2,1
   1ba54:	e806dee3          	bgez	a3,0x1b8f0
   1ba58:	ea9ff06f          	j	0x1b900
   1ba5c:	00140713          	add	a4,s0,1
   1ba60:	00271713          	sll	a4,a4,0x2
   1ba64:	f55ff06f          	j	0x1b9b8
   1ba68:	00000593          	li	a1,0
   1ba6c:	a80ff0ef          	jal	0x1acec
   1ba70:	06050063          	beqz	a0,0x1bad0
   1ba74:	00c12083          	lw	ra,12(sp)
   1ba78:	00812403          	lw	s0,8(sp)
   1ba7c:	00100793          	li	a5,1
   1ba80:	00f52823          	sw	a5,16(a0)
   1ba84:	00052a23          	sw	zero,20(a0)
   1ba88:	00412483          	lw	s1,4(sp)
   1ba8c:	00012903          	lw	s2,0(sp)
   1ba90:	01010113          	add	sp,sp,16
   1ba94:	00008067          	ret
   1ba98:	00000713          	li	a4,0
   1ba9c:	000f1663          	bnez	t5,0x1baa8
   1baa0:	00e58733          	add	a4,a1,a4
   1baa4:	f7dff06f          	j	0x1ba20
   1baa8:	00241713          	sll	a4,s0,0x2
   1baac:	00e58733          	add	a4,a1,a4
   1bab0:	f71ff06f          	j	0x1ba20
   1bab4:	00006697          	auipc	a3,0x6
   1bab8:	32c68693          	add	a3,a3,812 # 0x21de0
   1babc:	00000613          	li	a2,0
   1bac0:	24500593          	li	a1,581
   1bac4:	00006517          	auipc	a0,0x6
   1bac8:	3b050513          	add	a0,a0,944 # 0x21e74
   1bacc:	229010ef          	jal	0x1d4f4
   1bad0:	00006697          	auipc	a3,0x6
   1bad4:	31068693          	add	a3,a3,784 # 0x21de0
   1bad8:	00000613          	li	a2,0
   1badc:	23700593          	li	a1,567
   1bae0:	00006517          	auipc	a0,0x6
   1bae4:	39450513          	add	a0,a0,916 # 0x21e74
   1bae8:	20d010ef          	jal	0x1d4f4
   1baec:	7ff007b7          	lui	a5,0x7ff00
   1baf0:	00b7f5b3          	and	a1,a5,a1
   1baf4:	fcc007b7          	lui	a5,0xfcc00
   1baf8:	00f585b3          	add	a1,a1,a5
   1bafc:	00000793          	li	a5,0
   1bb00:	00b05663          	blez	a1,0x1bb0c
   1bb04:	00078513          	mv	a0,a5
   1bb08:	00008067          	ret
   1bb0c:	40b005b3          	neg	a1,a1
   1bb10:	4145d593          	sra	a1,a1,0x14
   1bb14:	01300793          	li	a5,19
   1bb18:	00b7cc63          	blt	a5,a1,0x1bb30
   1bb1c:	000807b7          	lui	a5,0x80
   1bb20:	40b7d5b3          	sra	a1,a5,a1
   1bb24:	00000793          	li	a5,0
   1bb28:	00078513          	mv	a0,a5
   1bb2c:	00008067          	ret
   1bb30:	fec58593          	add	a1,a1,-20
   1bb34:	01e00713          	li	a4,30
   1bb38:	00100793          	li	a5,1
   1bb3c:	00b74663          	blt	a4,a1,0x1bb48
   1bb40:	800007b7          	lui	a5,0x80000
   1bb44:	00b7d7b3          	srl	a5,a5,a1
   1bb48:	00000593          	li	a1,0
   1bb4c:	00078513          	mv	a0,a5
   1bb50:	00008067          	ret
   1bb54:	fe010113          	add	sp,sp,-32
   1bb58:	00912a23          	sw	s1,20(sp)
   1bb5c:	01052483          	lw	s1,16(a0)
   1bb60:	00812c23          	sw	s0,24(sp)
   1bb64:	01450413          	add	s0,a0,20
   1bb68:	00249493          	sll	s1,s1,0x2
   1bb6c:	009404b3          	add	s1,s0,s1
   1bb70:	01212823          	sw	s2,16(sp)
   1bb74:	ffc4a903          	lw	s2,-4(s1)
   1bb78:	01312623          	sw	s3,12(sp)
   1bb7c:	01412423          	sw	s4,8(sp)
   1bb80:	00090513          	mv	a0,s2
   1bb84:	00058993          	mv	s3,a1
   1bb88:	00112e23          	sw	ra,28(sp)
   1bb8c:	cf8ff0ef          	jal	0x1b084
   1bb90:	02000713          	li	a4,32
   1bb94:	40a707b3          	sub	a5,a4,a0
   1bb98:	00f9a023          	sw	a5,0(s3)
   1bb9c:	00a00793          	li	a5,10
   1bba0:	ffc48a13          	add	s4,s1,-4
   1bba4:	08a7dc63          	bge	a5,a0,0x1bc3c
   1bba8:	ff550613          	add	a2,a0,-11
   1bbac:	05447063          	bgeu	s0,s4,0x1bbec
   1bbb0:	ff84a783          	lw	a5,-8(s1)
   1bbb4:	04060c63          	beqz	a2,0x1bc0c
   1bbb8:	40c706b3          	sub	a3,a4,a2
   1bbbc:	00d7d733          	srl	a4,a5,a3
   1bbc0:	00c91933          	sll	s2,s2,a2
   1bbc4:	00e96933          	or	s2,s2,a4
   1bbc8:	ff848593          	add	a1,s1,-8
   1bbcc:	3ff00737          	lui	a4,0x3ff00
   1bbd0:	00e96733          	or	a4,s2,a4
   1bbd4:	00c797b3          	sll	a5,a5,a2
   1bbd8:	02b47e63          	bgeu	s0,a1,0x1bc14
   1bbdc:	ff44a603          	lw	a2,-12(s1)
   1bbe0:	00d656b3          	srl	a3,a2,a3
   1bbe4:	00d7e7b3          	or	a5,a5,a3
   1bbe8:	02c0006f          	j	0x1bc14
   1bbec:	00b00793          	li	a5,11
   1bbf0:	00f50c63          	beq	a0,a5,0x1bc08
   1bbf4:	00c91933          	sll	s2,s2,a2
   1bbf8:	3ff00737          	lui	a4,0x3ff00
   1bbfc:	00e96733          	or	a4,s2,a4
   1bc00:	00000793          	li	a5,0
   1bc04:	0100006f          	j	0x1bc14
   1bc08:	00000793          	li	a5,0
   1bc0c:	3ff00737          	lui	a4,0x3ff00
   1bc10:	00e96733          	or	a4,s2,a4
   1bc14:	01c12083          	lw	ra,28(sp)
   1bc18:	01812403          	lw	s0,24(sp)
   1bc1c:	01412483          	lw	s1,20(sp)
   1bc20:	01012903          	lw	s2,16(sp)
   1bc24:	00c12983          	lw	s3,12(sp)
   1bc28:	00812a03          	lw	s4,8(sp)
   1bc2c:	00078513          	mv	a0,a5
   1bc30:	00070593          	mv	a1,a4
   1bc34:	02010113          	add	sp,sp,32
   1bc38:	00008067          	ret
   1bc3c:	00b00693          	li	a3,11
   1bc40:	40a686b3          	sub	a3,a3,a0
   1bc44:	3ff007b7          	lui	a5,0x3ff00
   1bc48:	00d95733          	srl	a4,s2,a3
   1bc4c:	00f76733          	or	a4,a4,a5
   1bc50:	00000793          	li	a5,0
   1bc54:	01447663          	bgeu	s0,s4,0x1bc60
   1bc58:	ff84a783          	lw	a5,-8(s1)
   1bc5c:	00d7d7b3          	srl	a5,a5,a3
   1bc60:	01550513          	add	a0,a0,21
   1bc64:	00a91933          	sll	s2,s2,a0
   1bc68:	00f967b3          	or	a5,s2,a5
   1bc6c:	fa9ff06f          	j	0x1bc14
   1bc70:	fd010113          	add	sp,sp,-48
   1bc74:	01512a23          	sw	s5,20(sp)
   1bc78:	00058a93          	mv	s5,a1
   1bc7c:	00100593          	li	a1,1
   1bc80:	02912223          	sw	s1,36(sp)
   1bc84:	01312e23          	sw	s3,28(sp)
   1bc88:	01412c23          	sw	s4,24(sp)
   1bc8c:	02112623          	sw	ra,44(sp)
   1bc90:	02812423          	sw	s0,40(sp)
   1bc94:	03212023          	sw	s2,32(sp)
   1bc98:	00060493          	mv	s1,a2
   1bc9c:	00068a13          	mv	s4,a3
   1bca0:	00070993          	mv	s3,a4
   1bca4:	848ff0ef          	jal	0x1acec
   1bca8:	10050263          	beqz	a0,0x1bdac
   1bcac:	00100737          	lui	a4,0x100
   1bcb0:	0144d913          	srl	s2,s1,0x14
   1bcb4:	fff70793          	add	a5,a4,-1 # 0xfffff
   1bcb8:	7ff97913          	and	s2,s2,2047
   1bcbc:	00050413          	mv	s0,a0
   1bcc0:	0097f7b3          	and	a5,a5,s1
   1bcc4:	00090463          	beqz	s2,0x1bccc
   1bcc8:	00e7e7b3          	or	a5,a5,a4
   1bccc:	00f12623          	sw	a5,12(sp)
   1bcd0:	060a9263          	bnez	s5,0x1bd34
   1bcd4:	00c10513          	add	a0,sp,12
   1bcd8:	c24ff0ef          	jal	0x1b0fc
   1bcdc:	00c12703          	lw	a4,12(sp)
   1bce0:	00100493          	li	s1,1
   1bce4:	00942823          	sw	s1,16(s0)
   1bce8:	00e42a23          	sw	a4,20(s0)
   1bcec:	02050793          	add	a5,a0,32
   1bcf0:	08090863          	beqz	s2,0x1bd80
   1bcf4:	bcd90913          	add	s2,s2,-1075
   1bcf8:	00f90933          	add	s2,s2,a5
   1bcfc:	03500493          	li	s1,53
   1bd00:	012a2023          	sw	s2,0(s4)
   1bd04:	40f48533          	sub	a0,s1,a5
   1bd08:	00a9a023          	sw	a0,0(s3)
   1bd0c:	02c12083          	lw	ra,44(sp)
   1bd10:	00040513          	mv	a0,s0
   1bd14:	02812403          	lw	s0,40(sp)
   1bd18:	02412483          	lw	s1,36(sp)
   1bd1c:	02012903          	lw	s2,32(sp)
   1bd20:	01c12983          	lw	s3,28(sp)
   1bd24:	01812a03          	lw	s4,24(sp)
   1bd28:	01412a83          	lw	s5,20(sp)
   1bd2c:	03010113          	add	sp,sp,48
   1bd30:	00008067          	ret
   1bd34:	00810513          	add	a0,sp,8
   1bd38:	01512423          	sw	s5,8(sp)
   1bd3c:	bc0ff0ef          	jal	0x1b0fc
   1bd40:	00c12703          	lw	a4,12(sp)
   1bd44:	00050793          	mv	a5,a0
   1bd48:	04050e63          	beqz	a0,0x1bda4
   1bd4c:	00812603          	lw	a2,8(sp)
   1bd50:	02000693          	li	a3,32
   1bd54:	40a686b3          	sub	a3,a3,a0
   1bd58:	00d716b3          	sll	a3,a4,a3
   1bd5c:	00a75733          	srl	a4,a4,a0
   1bd60:	00c6e6b3          	or	a3,a3,a2
   1bd64:	00e12623          	sw	a4,12(sp)
   1bd68:	00e034b3          	snez	s1,a4
   1bd6c:	00148493          	add	s1,s1,1
   1bd70:	00d42a23          	sw	a3,20(s0)
   1bd74:	00e42c23          	sw	a4,24(s0)
   1bd78:	00942823          	sw	s1,16(s0)
   1bd7c:	f6091ce3          	bnez	s2,0x1bcf4
   1bd80:	00249713          	sll	a4,s1,0x2
   1bd84:	00e40733          	add	a4,s0,a4
   1bd88:	01072503          	lw	a0,16(a4)
   1bd8c:	bce78793          	add	a5,a5,-1074 # 0x3feffbce
   1bd90:	00fa2023          	sw	a5,0(s4)
   1bd94:	af0ff0ef          	jal	0x1b084
   1bd98:	00549493          	sll	s1,s1,0x5
   1bd9c:	40a48533          	sub	a0,s1,a0
   1bda0:	f69ff06f          	j	0x1bd08
   1bda4:	00812683          	lw	a3,8(sp)
   1bda8:	fc1ff06f          	j	0x1bd68
   1bdac:	00006697          	auipc	a3,0x6
   1bdb0:	03468693          	add	a3,a3,52 # 0x21de0
   1bdb4:	00000613          	li	a2,0
   1bdb8:	30f00593          	li	a1,783
   1bdbc:	00006517          	auipc	a0,0x6
   1bdc0:	0b850513          	add	a0,a0,184 # 0x21e74
   1bdc4:	730010ef          	jal	0x1d4f4
   1bdc8:	fd010113          	add	sp,sp,-48
   1bdcc:	03212023          	sw	s2,32(sp)
   1bdd0:	00058913          	mv	s2,a1
   1bdd4:	00810593          	add	a1,sp,8
   1bdd8:	02112623          	sw	ra,44(sp)
   1bddc:	02812423          	sw	s0,40(sp)
   1bde0:	02912223          	sw	s1,36(sp)
   1bde4:	01312e23          	sw	s3,28(sp)
   1bde8:	00050993          	mv	s3,a0
   1bdec:	d69ff0ef          	jal	0x1bb54
   1bdf0:	00050493          	mv	s1,a0
   1bdf4:	00058413          	mv	s0,a1
   1bdf8:	00090513          	mv	a0,s2
   1bdfc:	00c10593          	add	a1,sp,12
   1be00:	d55ff0ef          	jal	0x1bb54
   1be04:	01092703          	lw	a4,16(s2)
   1be08:	0109a783          	lw	a5,16(s3)
   1be0c:	00c12683          	lw	a3,12(sp)
   1be10:	40e787b3          	sub	a5,a5,a4
   1be14:	00812703          	lw	a4,8(sp)
   1be18:	00579793          	sll	a5,a5,0x5
   1be1c:	40d70733          	sub	a4,a4,a3
   1be20:	00e787b3          	add	a5,a5,a4
   1be24:	00050713          	mv	a4,a0
   1be28:	02f05e63          	blez	a5,0x1be64
   1be2c:	01479793          	sll	a5,a5,0x14
   1be30:	00878433          	add	s0,a5,s0
   1be34:	00058693          	mv	a3,a1
   1be38:	00048513          	mv	a0,s1
   1be3c:	00040593          	mv	a1,s0
   1be40:	00070613          	mv	a2,a4
   1be44:	201030ef          	jal	0x1f844
   1be48:	02c12083          	lw	ra,44(sp)
   1be4c:	02812403          	lw	s0,40(sp)
   1be50:	02412483          	lw	s1,36(sp)
   1be54:	02012903          	lw	s2,32(sp)
   1be58:	01c12983          	lw	s3,28(sp)
   1be5c:	03010113          	add	sp,sp,48
   1be60:	00008067          	ret
   1be64:	01479793          	sll	a5,a5,0x14
   1be68:	40f585b3          	sub	a1,a1,a5
   1be6c:	fc9ff06f          	j	0x1be34
   1be70:	ff010113          	add	sp,sp,-16
   1be74:	01212023          	sw	s2,0(sp)
   1be78:	00112623          	sw	ra,12(sp)
   1be7c:	01700793          	li	a5,23
   1be80:	00050913          	mv	s2,a0
   1be84:	06a7d263          	bge	a5,a0,0x1bee8
   1be88:	00008717          	auipc	a4,0x8
   1be8c:	a5870713          	add	a4,a4,-1448 # 0x238e0
   1be90:	00072783          	lw	a5,0(a4)
   1be94:	00472583          	lw	a1,4(a4)
   1be98:	00008717          	auipc	a4,0x8
   1be9c:	a5070713          	add	a4,a4,-1456 # 0x238e8
   1bea0:	00812423          	sw	s0,8(sp)
   1bea4:	00912223          	sw	s1,4(sp)
   1bea8:	00072403          	lw	s0,0(a4)
   1beac:	00472483          	lw	s1,4(a4)
   1beb0:	00078513          	mv	a0,a5
   1beb4:	00040613          	mv	a2,s0
   1beb8:	00048693          	mv	a3,s1
   1bebc:	4c8040ef          	jal	0x20384
   1bec0:	fff90913          	add	s2,s2,-1
   1bec4:	00050793          	mv	a5,a0
   1bec8:	fe0914e3          	bnez	s2,0x1beb0
   1becc:	00812403          	lw	s0,8(sp)
   1bed0:	00c12083          	lw	ra,12(sp)
   1bed4:	00412483          	lw	s1,4(sp)
   1bed8:	00012903          	lw	s2,0(sp)
   1bedc:	00078513          	mv	a0,a5
   1bee0:	01010113          	add	sp,sp,16
   1bee4:	00008067          	ret
   1bee8:	00351913          	sll	s2,a0,0x3
   1beec:	00007717          	auipc	a4,0x7
   1bef0:	83470713          	add	a4,a4,-1996 # 0x22720
   1bef4:	01270733          	add	a4,a4,s2
   1bef8:	00072783          	lw	a5,0(a4)
   1befc:	00c12083          	lw	ra,12(sp)
   1bf00:	00472583          	lw	a1,4(a4)
   1bf04:	00012903          	lw	s2,0(sp)
   1bf08:	00078513          	mv	a0,a5
   1bf0c:	01010113          	add	sp,sp,16
   1bf10:	00008067          	ret
   1bf14:	01062683          	lw	a3,16(a2)
   1bf18:	fff58593          	add	a1,a1,-1
   1bf1c:	4055d593          	sra	a1,a1,0x5
   1bf20:	00158593          	add	a1,a1,1
   1bf24:	01460793          	add	a5,a2,20
   1bf28:	00269693          	sll	a3,a3,0x2
   1bf2c:	00259593          	sll	a1,a1,0x2
   1bf30:	00d786b3          	add	a3,a5,a3
   1bf34:	00b505b3          	add	a1,a0,a1
   1bf38:	02d7f863          	bgeu	a5,a3,0x1bf68
   1bf3c:	00050713          	mv	a4,a0
   1bf40:	0007a803          	lw	a6,0(a5)
   1bf44:	00478793          	add	a5,a5,4
   1bf48:	00470713          	add	a4,a4,4
   1bf4c:	ff072e23          	sw	a6,-4(a4)
   1bf50:	fed7e8e3          	bltu	a5,a3,0x1bf40
   1bf54:	40c687b3          	sub	a5,a3,a2
   1bf58:	feb78793          	add	a5,a5,-21
   1bf5c:	ffc7f793          	and	a5,a5,-4
   1bf60:	00478793          	add	a5,a5,4
   1bf64:	00f50533          	add	a0,a0,a5
   1bf68:	00b57863          	bgeu	a0,a1,0x1bf78
   1bf6c:	00450513          	add	a0,a0,4
   1bf70:	fe052e23          	sw	zero,-4(a0)
   1bf74:	feb56ce3          	bltu	a0,a1,0x1bf6c
   1bf78:	00008067          	ret
   1bf7c:	01052703          	lw	a4,16(a0)
   1bf80:	4055d613          	sra	a2,a1,0x5
   1bf84:	01450693          	add	a3,a0,20
   1bf88:	02c75263          	bge	a4,a2,0x1bfac
   1bf8c:	00271713          	sll	a4,a4,0x2
   1bf90:	00e687b3          	add	a5,a3,a4
   1bf94:	04f6f263          	bgeu	a3,a5,0x1bfd8
   1bf98:	ffc7a703          	lw	a4,-4(a5)
   1bf9c:	ffc78793          	add	a5,a5,-4
   1bfa0:	fe070ae3          	beqz	a4,0x1bf94
   1bfa4:	00100513          	li	a0,1
   1bfa8:	00008067          	ret
   1bfac:	00261793          	sll	a5,a2,0x2
   1bfb0:	00f687b3          	add	a5,a3,a5
   1bfb4:	fee650e3          	bge	a2,a4,0x1bf94
   1bfb8:	01f5f593          	and	a1,a1,31
   1bfbc:	fc058ce3          	beqz	a1,0x1bf94
   1bfc0:	0007a603          	lw	a2,0(a5)
   1bfc4:	00100513          	li	a0,1
   1bfc8:	00b65733          	srl	a4,a2,a1
   1bfcc:	00b71733          	sll	a4,a4,a1
   1bfd0:	fce602e3          	beq	a2,a4,0x1bf94
   1bfd4:	00008067          	ret
   1bfd8:	00000513          	li	a0,0
   1bfdc:	00008067          	ret
   1bfe0:	fd010113          	add	sp,sp,-48
   1bfe4:	02912223          	sw	s1,36(sp)
   1bfe8:	02112623          	sw	ra,44(sp)
   1bfec:	00060493          	mv	s1,a2
   1bff0:	1e058863          	beqz	a1,0x1c1e0
   1bff4:	02812423          	sw	s0,40(sp)
   1bff8:	03212023          	sw	s2,32(sp)
   1bffc:	00058413          	mv	s0,a1
   1c000:	01312e23          	sw	s3,28(sp)
   1c004:	01512a23          	sw	s5,20(sp)
   1c008:	01412c23          	sw	s4,24(sp)
   1c00c:	00050913          	mv	s2,a0
   1c010:	e29f50ef          	jal	0x11e38
   1c014:	ffc42703          	lw	a4,-4(s0)
   1c018:	00b48793          	add	a5,s1,11
   1c01c:	01600693          	li	a3,22
   1c020:	ff840a93          	add	s5,s0,-8
   1c024:	ffc77993          	and	s3,a4,-4
   1c028:	10f6f263          	bgeu	a3,a5,0x1c12c
   1c02c:	ff87fa13          	and	s4,a5,-8
   1c030:	1007c263          	bltz	a5,0x1c134
   1c034:	109a6063          	bltu	s4,s1,0x1c134
   1c038:	1349d263          	bge	s3,s4,0x1c15c
   1c03c:	01812423          	sw	s8,8(sp)
   1c040:	00007c17          	auipc	s8,0x7
   1c044:	2c0c0c13          	add	s8,s8,704 # 0x23300
   1c048:	008c2603          	lw	a2,8(s8)
   1c04c:	013a86b3          	add	a3,s5,s3
   1c050:	0046a783          	lw	a5,4(a3)
   1c054:	1cd60863          	beq	a2,a3,0x1c224
   1c058:	ffe7f613          	and	a2,a5,-2
   1c05c:	00c68633          	add	a2,a3,a2
   1c060:	00462603          	lw	a2,4(a2)
   1c064:	00167613          	and	a2,a2,1
   1c068:	14061a63          	bnez	a2,0x1c1bc
   1c06c:	ffc7f793          	and	a5,a5,-4
   1c070:	00f98633          	add	a2,s3,a5
   1c074:	0d465863          	bge	a2,s4,0x1c144
   1c078:	00177713          	and	a4,a4,1
   1c07c:	02071c63          	bnez	a4,0x1c0b4
   1c080:	01712623          	sw	s7,12(sp)
   1c084:	ff842b83          	lw	s7,-8(s0)
   1c088:	01612823          	sw	s6,16(sp)
   1c08c:	417a8bb3          	sub	s7,s5,s7
   1c090:	004ba703          	lw	a4,4(s7)
   1c094:	ffc77713          	and	a4,a4,-4
   1c098:	00e787b3          	add	a5,a5,a4
   1c09c:	01378b33          	add	s6,a5,s3
   1c0a0:	334b5c63          	bge	s6,s4,0x1c3d8
   1c0a4:	00e98b33          	add	s6,s3,a4
   1c0a8:	294b5863          	bge	s6,s4,0x1c338
   1c0ac:	01012b03          	lw	s6,16(sp)
   1c0b0:	00c12b83          	lw	s7,12(sp)
   1c0b4:	00048593          	mv	a1,s1
   1c0b8:	00090513          	mv	a0,s2
   1c0bc:	db4f50ef          	jal	0x11670
   1c0c0:	00050493          	mv	s1,a0
   1c0c4:	40050863          	beqz	a0,0x1c4d4
   1c0c8:	ffc42783          	lw	a5,-4(s0)
   1c0cc:	ff850713          	add	a4,a0,-8
   1c0d0:	ffe7f793          	and	a5,a5,-2
   1c0d4:	00fa87b3          	add	a5,s5,a5
   1c0d8:	24e78663          	beq	a5,a4,0x1c324
   1c0dc:	ffc98613          	add	a2,s3,-4
   1c0e0:	02400793          	li	a5,36
   1c0e4:	2ec7e463          	bltu	a5,a2,0x1c3cc
   1c0e8:	01300713          	li	a4,19
   1c0ec:	20c76a63          	bltu	a4,a2,0x1c300
   1c0f0:	00050793          	mv	a5,a0
   1c0f4:	00040713          	mv	a4,s0
   1c0f8:	00072683          	lw	a3,0(a4)
   1c0fc:	00d7a023          	sw	a3,0(a5)
   1c100:	00472683          	lw	a3,4(a4)
   1c104:	00d7a223          	sw	a3,4(a5)
   1c108:	00872703          	lw	a4,8(a4)
   1c10c:	00e7a423          	sw	a4,8(a5)
   1c110:	00040593          	mv	a1,s0
   1c114:	00090513          	mv	a0,s2
   1c118:	a54f50ef          	jal	0x1136c
   1c11c:	00090513          	mv	a0,s2
   1c120:	d21f50ef          	jal	0x11e40
   1c124:	00812c03          	lw	s8,8(sp)
   1c128:	06c0006f          	j	0x1c194
   1c12c:	01000a13          	li	s4,16
   1c130:	f09a74e3          	bgeu	s4,s1,0x1c038
   1c134:	00c00793          	li	a5,12
   1c138:	00f92023          	sw	a5,0(s2)
   1c13c:	00000493          	li	s1,0
   1c140:	0540006f          	j	0x1c194
   1c144:	00c6a783          	lw	a5,12(a3)
   1c148:	0086a703          	lw	a4,8(a3)
   1c14c:	00812c03          	lw	s8,8(sp)
   1c150:	00060993          	mv	s3,a2
   1c154:	00f72623          	sw	a5,12(a4)
   1c158:	00e7a423          	sw	a4,8(a5)
   1c15c:	004aa783          	lw	a5,4(s5)
   1c160:	414986b3          	sub	a3,s3,s4
   1c164:	00f00613          	li	a2,15
   1c168:	0017f793          	and	a5,a5,1
   1c16c:	013a8733          	add	a4,s5,s3
   1c170:	08d66263          	bltu	a2,a3,0x1c1f4
   1c174:	0137e7b3          	or	a5,a5,s3
   1c178:	00faa223          	sw	a5,4(s5)
   1c17c:	00472783          	lw	a5,4(a4)
   1c180:	0017e793          	or	a5,a5,1
   1c184:	00f72223          	sw	a5,4(a4)
   1c188:	00090513          	mv	a0,s2
   1c18c:	cb5f50ef          	jal	0x11e40
   1c190:	00040493          	mv	s1,s0
   1c194:	02812403          	lw	s0,40(sp)
   1c198:	02c12083          	lw	ra,44(sp)
   1c19c:	02012903          	lw	s2,32(sp)
   1c1a0:	01c12983          	lw	s3,28(sp)
   1c1a4:	01812a03          	lw	s4,24(sp)
   1c1a8:	01412a83          	lw	s5,20(sp)
   1c1ac:	00048513          	mv	a0,s1
   1c1b0:	02412483          	lw	s1,36(sp)
   1c1b4:	03010113          	add	sp,sp,48
   1c1b8:	00008067          	ret
   1c1bc:	00177713          	and	a4,a4,1
   1c1c0:	ee071ae3          	bnez	a4,0x1c0b4
   1c1c4:	01712623          	sw	s7,12(sp)
   1c1c8:	ff842b83          	lw	s7,-8(s0)
   1c1cc:	01612823          	sw	s6,16(sp)
   1c1d0:	417a8bb3          	sub	s7,s5,s7
   1c1d4:	004ba703          	lw	a4,4(s7)
   1c1d8:	ffc77713          	and	a4,a4,-4
   1c1dc:	ec9ff06f          	j	0x1c0a4
   1c1e0:	02c12083          	lw	ra,44(sp)
   1c1e4:	02412483          	lw	s1,36(sp)
   1c1e8:	00060593          	mv	a1,a2
   1c1ec:	03010113          	add	sp,sp,48
   1c1f0:	c80f506f          	j	0x11670
   1c1f4:	0147e7b3          	or	a5,a5,s4
   1c1f8:	00faa223          	sw	a5,4(s5)
   1c1fc:	014a85b3          	add	a1,s5,s4
   1c200:	0016e693          	or	a3,a3,1
   1c204:	00d5a223          	sw	a3,4(a1)
   1c208:	00472783          	lw	a5,4(a4)
   1c20c:	00858593          	add	a1,a1,8
   1c210:	00090513          	mv	a0,s2
   1c214:	0017e793          	or	a5,a5,1
   1c218:	00f72223          	sw	a5,4(a4)
   1c21c:	950f50ef          	jal	0x1136c
   1c220:	f69ff06f          	j	0x1c188
   1c224:	ffc7f793          	and	a5,a5,-4
   1c228:	013786b3          	add	a3,a5,s3
   1c22c:	010a0613          	add	a2,s4,16
   1c230:	26c6d063          	bge	a3,a2,0x1c490
   1c234:	00177713          	and	a4,a4,1
   1c238:	e6071ee3          	bnez	a4,0x1c0b4
   1c23c:	01712623          	sw	s7,12(sp)
   1c240:	ff842b83          	lw	s7,-8(s0)
   1c244:	01612823          	sw	s6,16(sp)
   1c248:	417a8bb3          	sub	s7,s5,s7
   1c24c:	004ba703          	lw	a4,4(s7)
   1c250:	ffc77713          	and	a4,a4,-4
   1c254:	00e787b3          	add	a5,a5,a4
   1c258:	01378b33          	add	s6,a5,s3
   1c25c:	e4cb44e3          	blt	s6,a2,0x1c0a4
   1c260:	00cba783          	lw	a5,12(s7)
   1c264:	008ba703          	lw	a4,8(s7)
   1c268:	ffc98613          	add	a2,s3,-4
   1c26c:	02400693          	li	a3,36
   1c270:	00f72623          	sw	a5,12(a4)
   1c274:	00e7a423          	sw	a4,8(a5)
   1c278:	008b8493          	add	s1,s7,8
   1c27c:	28c6e463          	bltu	a3,a2,0x1c504
   1c280:	01300713          	li	a4,19
   1c284:	00048793          	mv	a5,s1
   1c288:	02c77263          	bgeu	a4,a2,0x1c2ac
   1c28c:	00042703          	lw	a4,0(s0)
   1c290:	01b00793          	li	a5,27
   1c294:	00eba423          	sw	a4,8(s7)
   1c298:	00442703          	lw	a4,4(s0)
   1c29c:	00eba623          	sw	a4,12(s7)
   1c2a0:	26c7ea63          	bltu	a5,a2,0x1c514
   1c2a4:	00840413          	add	s0,s0,8
   1c2a8:	010b8793          	add	a5,s7,16
   1c2ac:	00042703          	lw	a4,0(s0)
   1c2b0:	00e7a023          	sw	a4,0(a5)
   1c2b4:	00442703          	lw	a4,4(s0)
   1c2b8:	00e7a223          	sw	a4,4(a5)
   1c2bc:	00842703          	lw	a4,8(s0)
   1c2c0:	00e7a423          	sw	a4,8(a5)
   1c2c4:	014b8733          	add	a4,s7,s4
   1c2c8:	414b07b3          	sub	a5,s6,s4
   1c2cc:	00ec2423          	sw	a4,8(s8)
   1c2d0:	0017e793          	or	a5,a5,1
   1c2d4:	00f72223          	sw	a5,4(a4)
   1c2d8:	004ba783          	lw	a5,4(s7)
   1c2dc:	00090513          	mv	a0,s2
   1c2e0:	0017f793          	and	a5,a5,1
   1c2e4:	0147e7b3          	or	a5,a5,s4
   1c2e8:	00fba223          	sw	a5,4(s7)
   1c2ec:	b55f50ef          	jal	0x11e40
   1c2f0:	01012b03          	lw	s6,16(sp)
   1c2f4:	00c12b83          	lw	s7,12(sp)
   1c2f8:	00812c03          	lw	s8,8(sp)
   1c2fc:	e99ff06f          	j	0x1c194
   1c300:	00042683          	lw	a3,0(s0)
   1c304:	01b00713          	li	a4,27
   1c308:	00d52023          	sw	a3,0(a0)
   1c30c:	00442683          	lw	a3,4(s0)
   1c310:	00d52223          	sw	a3,4(a0)
   1c314:	14c76e63          	bltu	a4,a2,0x1c470
   1c318:	00840713          	add	a4,s0,8
   1c31c:	00850793          	add	a5,a0,8
   1c320:	dd9ff06f          	j	0x1c0f8
   1c324:	ffc52783          	lw	a5,-4(a0)
   1c328:	00812c03          	lw	s8,8(sp)
   1c32c:	ffc7f793          	and	a5,a5,-4
   1c330:	00f989b3          	add	s3,s3,a5
   1c334:	e29ff06f          	j	0x1c15c
   1c338:	00cba783          	lw	a5,12(s7)
   1c33c:	008ba703          	lw	a4,8(s7)
   1c340:	ffc98613          	add	a2,s3,-4
   1c344:	02400693          	li	a3,36
   1c348:	00f72623          	sw	a5,12(a4)
   1c34c:	00e7a423          	sw	a4,8(a5)
   1c350:	008b8493          	add	s1,s7,8
   1c354:	10c6e663          	bltu	a3,a2,0x1c460
   1c358:	01300713          	li	a4,19
   1c35c:	00048793          	mv	a5,s1
   1c360:	02c77c63          	bgeu	a4,a2,0x1c398
   1c364:	00042703          	lw	a4,0(s0)
   1c368:	01b00793          	li	a5,27
   1c36c:	00eba423          	sw	a4,8(s7)
   1c370:	00442703          	lw	a4,4(s0)
   1c374:	00eba623          	sw	a4,12(s7)
   1c378:	14c7f863          	bgeu	a5,a2,0x1c4c8
   1c37c:	00842783          	lw	a5,8(s0)
   1c380:	00fba823          	sw	a5,16(s7)
   1c384:	00c42783          	lw	a5,12(s0)
   1c388:	00fbaa23          	sw	a5,20(s7)
   1c38c:	0ad60c63          	beq	a2,a3,0x1c444
   1c390:	01040413          	add	s0,s0,16
   1c394:	018b8793          	add	a5,s7,24
   1c398:	00042703          	lw	a4,0(s0)
   1c39c:	00e7a023          	sw	a4,0(a5)
   1c3a0:	00442703          	lw	a4,4(s0)
   1c3a4:	00e7a223          	sw	a4,4(a5)
   1c3a8:	00842703          	lw	a4,8(s0)
   1c3ac:	00e7a423          	sw	a4,8(a5)
   1c3b0:	000b0993          	mv	s3,s6
   1c3b4:	000b8a93          	mv	s5,s7
   1c3b8:	01012b03          	lw	s6,16(sp)
   1c3bc:	00c12b83          	lw	s7,12(sp)
   1c3c0:	00812c03          	lw	s8,8(sp)
   1c3c4:	00048413          	mv	s0,s1
   1c3c8:	d95ff06f          	j	0x1c15c
   1c3cc:	00040593          	mv	a1,s0
   1c3d0:	804fc0ef          	jal	0x183d4
   1c3d4:	d3dff06f          	j	0x1c110
   1c3d8:	00c6a783          	lw	a5,12(a3)
   1c3dc:	0086a703          	lw	a4,8(a3)
   1c3e0:	ffc98613          	add	a2,s3,-4
   1c3e4:	02400693          	li	a3,36
   1c3e8:	00f72623          	sw	a5,12(a4)
   1c3ec:	00e7a423          	sw	a4,8(a5)
   1c3f0:	008ba703          	lw	a4,8(s7)
   1c3f4:	00cba783          	lw	a5,12(s7)
   1c3f8:	008b8493          	add	s1,s7,8
   1c3fc:	00f72623          	sw	a5,12(a4)
   1c400:	00e7a423          	sw	a4,8(a5)
   1c404:	04c6ee63          	bltu	a3,a2,0x1c460
   1c408:	01300713          	li	a4,19
   1c40c:	00048793          	mv	a5,s1
   1c410:	f8c774e3          	bgeu	a4,a2,0x1c398
   1c414:	00042703          	lw	a4,0(s0)
   1c418:	01b00793          	li	a5,27
   1c41c:	00eba423          	sw	a4,8(s7)
   1c420:	00442703          	lw	a4,4(s0)
   1c424:	00eba623          	sw	a4,12(s7)
   1c428:	0ac7f063          	bgeu	a5,a2,0x1c4c8
   1c42c:	00842703          	lw	a4,8(s0)
   1c430:	02400793          	li	a5,36
   1c434:	00eba823          	sw	a4,16(s7)
   1c438:	00c42703          	lw	a4,12(s0)
   1c43c:	00ebaa23          	sw	a4,20(s7)
   1c440:	f4f618e3          	bne	a2,a5,0x1c390
   1c444:	01042703          	lw	a4,16(s0)
   1c448:	020b8793          	add	a5,s7,32
   1c44c:	01840413          	add	s0,s0,24
   1c450:	00ebac23          	sw	a4,24(s7)
   1c454:	ffc42703          	lw	a4,-4(s0)
   1c458:	00ebae23          	sw	a4,28(s7)
   1c45c:	f3dff06f          	j	0x1c398
   1c460:	00040593          	mv	a1,s0
   1c464:	00048513          	mv	a0,s1
   1c468:	f6dfb0ef          	jal	0x183d4
   1c46c:	f45ff06f          	j	0x1c3b0
   1c470:	00842703          	lw	a4,8(s0)
   1c474:	00e52423          	sw	a4,8(a0)
   1c478:	00c42703          	lw	a4,12(s0)
   1c47c:	00e52623          	sw	a4,12(a0)
   1c480:	06f60463          	beq	a2,a5,0x1c4e8
   1c484:	01040713          	add	a4,s0,16
   1c488:	01050793          	add	a5,a0,16
   1c48c:	c6dff06f          	j	0x1c0f8
   1c490:	014a8ab3          	add	s5,s5,s4
   1c494:	414687b3          	sub	a5,a3,s4
   1c498:	015c2423          	sw	s5,8(s8)
   1c49c:	0017e793          	or	a5,a5,1
   1c4a0:	00faa223          	sw	a5,4(s5)
   1c4a4:	ffc42783          	lw	a5,-4(s0)
   1c4a8:	00090513          	mv	a0,s2
   1c4ac:	00040493          	mv	s1,s0
   1c4b0:	0017f793          	and	a5,a5,1
   1c4b4:	0147e7b3          	or	a5,a5,s4
   1c4b8:	fef42e23          	sw	a5,-4(s0)
   1c4bc:	985f50ef          	jal	0x11e40
   1c4c0:	00812c03          	lw	s8,8(sp)
   1c4c4:	cd1ff06f          	j	0x1c194
   1c4c8:	00840413          	add	s0,s0,8
   1c4cc:	010b8793          	add	a5,s7,16
   1c4d0:	ec9ff06f          	j	0x1c398
   1c4d4:	00090513          	mv	a0,s2
   1c4d8:	969f50ef          	jal	0x11e40
   1c4dc:	00000493          	li	s1,0
   1c4e0:	00812c03          	lw	s8,8(sp)
   1c4e4:	cb1ff06f          	j	0x1c194
   1c4e8:	01042683          	lw	a3,16(s0)
   1c4ec:	01840713          	add	a4,s0,24
   1c4f0:	01850793          	add	a5,a0,24
   1c4f4:	00d52823          	sw	a3,16(a0)
   1c4f8:	01442683          	lw	a3,20(s0)
   1c4fc:	00d52a23          	sw	a3,20(a0)
   1c500:	bf9ff06f          	j	0x1c0f8
   1c504:	00040593          	mv	a1,s0
   1c508:	00048513          	mv	a0,s1
   1c50c:	ec9fb0ef          	jal	0x183d4
   1c510:	db5ff06f          	j	0x1c2c4
   1c514:	00842783          	lw	a5,8(s0)
   1c518:	00fba823          	sw	a5,16(s7)
   1c51c:	00c42783          	lw	a5,12(s0)
   1c520:	00fbaa23          	sw	a5,20(s7)
   1c524:	00d60863          	beq	a2,a3,0x1c534
   1c528:	01040413          	add	s0,s0,16
   1c52c:	018b8793          	add	a5,s7,24
   1c530:	d7dff06f          	j	0x1c2ac
   1c534:	01042703          	lw	a4,16(s0)
   1c538:	020b8793          	add	a5,s7,32
   1c53c:	01840413          	add	s0,s0,24
   1c540:	00ebac23          	sw	a4,24(s7)
   1c544:	ffc42703          	lw	a4,-4(s0)
   1c548:	00ebae23          	sw	a4,28(s7)
   1c54c:	d61ff06f          	j	0x1c2ac
   1c550:	fb010113          	add	sp,sp,-80
   1c554:	04112623          	sw	ra,76(sp)
   1c558:	02400793          	li	a5,36
   1c55c:	00a12423          	sw	a0,8(sp)
   1c560:	18d7ec63          	bltu	a5,a3,0x1c6f8
   1c564:	04812423          	sw	s0,72(sp)
   1c568:	05212023          	sw	s2,64(sp)
   1c56c:	03312e23          	sw	s3,60(sp)
   1c570:	03412c23          	sw	s4,56(sp)
   1c574:	03912223          	sw	s9,36(sp)
   1c578:	00100793          	li	a5,1
   1c57c:	00068c93          	mv	s9,a3
   1c580:	00058913          	mv	s2,a1
   1c584:	00060a13          	mv	s4,a2
   1c588:	00068993          	mv	s3,a3
   1c58c:	00058413          	mv	s0,a1
   1c590:	00006717          	auipc	a4,0x6
   1c594:	25970713          	add	a4,a4,601 # 0x227e9
   1c598:	14f68663          	beq	a3,a5,0x1c6e4
   1c59c:	04912223          	sw	s1,68(sp)
   1c5a0:	03512a23          	sw	s5,52(sp)
   1c5a4:	03612823          	sw	s6,48(sp)
   1c5a8:	03712623          	sw	s7,44(sp)
   1c5ac:	03812423          	sw	s8,40(sp)
   1c5b0:	03a12023          	sw	s10,32(sp)
   1c5b4:	01b12e23          	sw	s11,28(sp)
   1c5b8:	00044483          	lbu	s1,0(s0)
   1c5bc:	00040693          	mv	a3,s0
   1c5c0:	00140413          	add	s0,s0,1
   1c5c4:	009707b3          	add	a5,a4,s1
   1c5c8:	0007c783          	lbu	a5,0(a5)
   1c5cc:	0087f793          	and	a5,a5,8
   1c5d0:	fe0794e3          	bnez	a5,0x1c5b8
   1c5d4:	02d00793          	li	a5,45
   1c5d8:	1af48263          	beq	s1,a5,0x1c77c
   1c5dc:	02b00793          	li	a5,43
   1c5e0:	12f48a63          	beq	s1,a5,0x1c714
   1c5e4:	80000b37          	lui	s6,0x80000
   1c5e8:	fffb0b13          	add	s6,s6,-1 # 0x7fffffff
   1c5ec:	00012623          	sw	zero,12(sp)
   1c5f0:	120c9e63          	bnez	s9,0x1c72c
   1c5f4:	03000793          	li	a5,48
   1c5f8:	1af48e63          	beq	s1,a5,0x1c7b4
   1c5fc:	00a00993          	li	s3,10
   1c600:	00a00c93          	li	s9,10
   1c604:	00098593          	mv	a1,s3
   1c608:	000b0513          	mv	a0,s6
   1c60c:	4b4050ef          	jal	0x21ac0
   1c610:	00050b93          	mv	s7,a0
   1c614:	00098593          	mv	a1,s3
   1c618:	000b0513          	mv	a0,s6
   1c61c:	45c050ef          	jal	0x21a78
   1c620:	00900d93          	li	s11,9
   1c624:	fd048793          	add	a5,s1,-48
   1c628:	00050d13          	mv	s10,a0
   1c62c:	00000713          	li	a4,0
   1c630:	00000513          	li	a0,0
   1c634:	01900a93          	li	s5,25
   1c638:	fff00c13          	li	s8,-1
   1c63c:	02fdee63          	bltu	s11,a5,0x1c678
   1c640:	00078493          	mv	s1,a5
   1c644:	0594d263          	bge	s1,s9,0x1c688
   1c648:	03870063          	beq	a4,s8,0x1c668
   1c64c:	fff00713          	li	a4,-1
   1c650:	00ad6c63          	bltu	s10,a0,0x1c668
   1c654:	12ad0063          	beq	s10,a0,0x1c774
   1c658:	00098593          	mv	a1,s3
   1c65c:	3f0050ef          	jal	0x21a4c
   1c660:	00a48533          	add	a0,s1,a0
   1c664:	00100713          	li	a4,1
   1c668:	00044483          	lbu	s1,0(s0)
   1c66c:	00140413          	add	s0,s0,1
   1c670:	fd048793          	add	a5,s1,-48
   1c674:	fcfdf6e3          	bgeu	s11,a5,0x1c640
   1c678:	fbf48793          	add	a5,s1,-65
   1c67c:	0efae463          	bltu	s5,a5,0x1c764
   1c680:	fc948493          	add	s1,s1,-55
   1c684:	fd94c2e3          	blt	s1,s9,0x1c648
   1c688:	fff00793          	li	a5,-1
   1c68c:	10f70463          	beq	a4,a5,0x1c794
   1c690:	00c12783          	lw	a5,12(sp)
   1c694:	00078463          	beqz	a5,0x1c69c
   1c698:	40a00533          	neg	a0,a0
   1c69c:	000a0663          	beqz	s4,0x1c6a8
   1c6a0:	12071863          	bnez	a4,0x1c7d0
   1c6a4:	012a2023          	sw	s2,0(s4)
   1c6a8:	04812403          	lw	s0,72(sp)
   1c6ac:	04c12083          	lw	ra,76(sp)
   1c6b0:	04412483          	lw	s1,68(sp)
   1c6b4:	04012903          	lw	s2,64(sp)
   1c6b8:	03c12983          	lw	s3,60(sp)
   1c6bc:	03812a03          	lw	s4,56(sp)
   1c6c0:	03412a83          	lw	s5,52(sp)
   1c6c4:	03012b03          	lw	s6,48(sp)
   1c6c8:	02c12b83          	lw	s7,44(sp)
   1c6cc:	02812c03          	lw	s8,40(sp)
   1c6d0:	02412c83          	lw	s9,36(sp)
   1c6d4:	02012d03          	lw	s10,32(sp)
   1c6d8:	01c12d83          	lw	s11,28(sp)
   1c6dc:	05010113          	add	sp,sp,80
   1c6e0:	00008067          	ret
   1c6e4:	04812403          	lw	s0,72(sp)
   1c6e8:	04012903          	lw	s2,64(sp)
   1c6ec:	03c12983          	lw	s3,60(sp)
   1c6f0:	03812a03          	lw	s4,56(sp)
   1c6f4:	02412c83          	lw	s9,36(sp)
   1c6f8:	5f5000ef          	jal	0x1d4ec
   1c6fc:	04c12083          	lw	ra,76(sp)
   1c700:	01600793          	li	a5,22
   1c704:	00f52023          	sw	a5,0(a0)
   1c708:	00000513          	li	a0,0
   1c70c:	05010113          	add	sp,sp,80
   1c710:	00008067          	ret
   1c714:	80000b37          	lui	s6,0x80000
   1c718:	00012623          	sw	zero,12(sp)
   1c71c:	00044483          	lbu	s1,0(s0)
   1c720:	fffb0b13          	add	s6,s6,-1 # 0x7fffffff
   1c724:	00268413          	add	s0,a3,2
   1c728:	ec0c86e3          	beqz	s9,0x1c5f4
   1c72c:	01000793          	li	a5,16
   1c730:	ecfc9ae3          	bne	s9,a5,0x1c604
   1c734:	03000793          	li	a5,48
   1c738:	01000993          	li	s3,16
   1c73c:	ecf494e3          	bne	s1,a5,0x1c604
   1c740:	00044783          	lbu	a5,0(s0)
   1c744:	05800713          	li	a4,88
   1c748:	0df7f793          	and	a5,a5,223
   1c74c:	eae79ce3          	bne	a5,a4,0x1c604
   1c750:	00144483          	lbu	s1,1(s0)
   1c754:	01000993          	li	s3,16
   1c758:	00240413          	add	s0,s0,2
   1c75c:	01000c93          	li	s9,16
   1c760:	ea5ff06f          	j	0x1c604
   1c764:	f9f48793          	add	a5,s1,-97
   1c768:	f2fae0e3          	bltu	s5,a5,0x1c688
   1c76c:	fa948493          	add	s1,s1,-87
   1c770:	ed5ff06f          	j	0x1c644
   1c774:	ee9bcae3          	blt	s7,s1,0x1c668
   1c778:	ee1ff06f          	j	0x1c658
   1c77c:	00100793          	li	a5,1
   1c780:	00044483          	lbu	s1,0(s0)
   1c784:	80000b37          	lui	s6,0x80000
   1c788:	00268413          	add	s0,a3,2
   1c78c:	00f12623          	sw	a5,12(sp)
   1c790:	e61ff06f          	j	0x1c5f0
   1c794:	00812703          	lw	a4,8(sp)
   1c798:	02200793          	li	a5,34
   1c79c:	000b0513          	mv	a0,s6
   1c7a0:	00f72023          	sw	a5,0(a4)
   1c7a4:	f00a02e3          	beqz	s4,0x1c6a8
   1c7a8:	fff40913          	add	s2,s0,-1
   1c7ac:	000b0513          	mv	a0,s6
   1c7b0:	ef5ff06f          	j	0x1c6a4
   1c7b4:	00044783          	lbu	a5,0(s0)
   1c7b8:	05800713          	li	a4,88
   1c7bc:	00800993          	li	s3,8
   1c7c0:	0df7f793          	and	a5,a5,223
   1c7c4:	00800c93          	li	s9,8
   1c7c8:	e2e79ee3          	bne	a5,a4,0x1c604
   1c7cc:	f85ff06f          	j	0x1c750
   1c7d0:	00050b13          	mv	s6,a0
   1c7d4:	fd5ff06f          	j	0x1c7a8
   1c7d8:	d79ff06f          	j	0x1c550
   1c7dc:	00060693          	mv	a3,a2
   1c7e0:	00058613          	mv	a2,a1
   1c7e4:	00050593          	mv	a1,a0
   1c7e8:	f341a503          	lw	a0,-204(gp)
   1c7ec:	d65ff06f          	j	0x1c550
   1c7f0:	00060693          	mv	a3,a2
   1c7f4:	00058613          	mv	a2,a1
   1c7f8:	00050593          	mv	a1,a0
   1c7fc:	f341a503          	lw	a0,-204(gp)
   1c800:	d51ff06f          	j	0x1c550
   1c804:	e181a783          	lw	a5,-488(gp)
   1c808:	00078067          	jr	a5
   1c80c:	02058463          	beqz	a1,0x1c834
   1c810:	0ff00793          	li	a5,255
   1c814:	00c7e863          	bltu	a5,a2,0x1c824
   1c818:	00c58023          	sb	a2,0(a1)
   1c81c:	00100513          	li	a0,1
   1c820:	00008067          	ret
   1c824:	08a00793          	li	a5,138
   1c828:	00f52023          	sw	a5,0(a0)
   1c82c:	fff00513          	li	a0,-1
   1c830:	00008067          	ret
   1c834:	00000513          	li	a0,0
   1c838:	00008067          	ret
   1c83c:	0a058263          	beqz	a1,0x1c8e0
   1c840:	07f00793          	li	a5,127
   1c844:	06c7f863          	bgeu	a5,a2,0x1c8b4
   1c848:	f8060793          	add	a5,a2,-128
   1c84c:	77f00713          	li	a4,1919
   1c850:	06f77863          	bgeu	a4,a5,0x1c8c0
   1c854:	0000f7b7          	lui	a5,0xf
   1c858:	80060713          	add	a4,a2,-2048
   1c85c:	7ff78793          	add	a5,a5,2047 # 0xf7ff
   1c860:	08e7f463          	bgeu	a5,a4,0x1c8e8
   1c864:	ffff07b7          	lui	a5,0xffff0
   1c868:	00f607b3          	add	a5,a2,a5
   1c86c:	00100737          	lui	a4,0x100
   1c870:	0ae7f463          	bgeu	a5,a4,0x1c918
   1c874:	00c65713          	srl	a4,a2,0xc
   1c878:	00665793          	srl	a5,a2,0x6
   1c87c:	01265693          	srl	a3,a2,0x12
   1c880:	03f77713          	and	a4,a4,63
   1c884:	03f7f793          	and	a5,a5,63
   1c888:	03f67613          	and	a2,a2,63
   1c88c:	ff06e693          	or	a3,a3,-16
   1c890:	f8076713          	or	a4,a4,-128
   1c894:	f807e793          	or	a5,a5,-128
   1c898:	f8066613          	or	a2,a2,-128
   1c89c:	00d58023          	sb	a3,0(a1)
   1c8a0:	00e580a3          	sb	a4,1(a1)
   1c8a4:	00f58123          	sb	a5,2(a1)
   1c8a8:	00c581a3          	sb	a2,3(a1)
   1c8ac:	00400513          	li	a0,4
   1c8b0:	00008067          	ret
   1c8b4:	00c58023          	sb	a2,0(a1)
   1c8b8:	00100513          	li	a0,1
   1c8bc:	00008067          	ret
   1c8c0:	00665793          	srl	a5,a2,0x6
   1c8c4:	03f67613          	and	a2,a2,63
   1c8c8:	fc07e793          	or	a5,a5,-64
   1c8cc:	f8066613          	or	a2,a2,-128
   1c8d0:	00f58023          	sb	a5,0(a1)
   1c8d4:	00c580a3          	sb	a2,1(a1)
   1c8d8:	00200513          	li	a0,2
   1c8dc:	00008067          	ret
   1c8e0:	00000513          	li	a0,0
   1c8e4:	00008067          	ret
   1c8e8:	00665793          	srl	a5,a2,0x6
   1c8ec:	00c65713          	srl	a4,a2,0xc
   1c8f0:	03f7f793          	and	a5,a5,63
   1c8f4:	03f67613          	and	a2,a2,63
   1c8f8:	fe076713          	or	a4,a4,-32
   1c8fc:	f807e793          	or	a5,a5,-128
   1c900:	f8066613          	or	a2,a2,-128
   1c904:	00e58023          	sb	a4,0(a1)
   1c908:	00f580a3          	sb	a5,1(a1)
   1c90c:	00c58123          	sb	a2,2(a1)
   1c910:	00300513          	li	a0,3
   1c914:	00008067          	ret
   1c918:	08a00793          	li	a5,138
   1c91c:	00f52023          	sw	a5,0(a0)
   1c920:	fff00513          	li	a0,-1
   1c924:	00008067          	ret
   1c928:	00865793          	srl	a5,a2,0x8
   1c92c:	0ff7f793          	zext.b	a5,a5
   1c930:	0ff67613          	zext.b	a2,a2
   1c934:	06058063          	beqz	a1,0x1c994
   1c938:	04078863          	beqz	a5,0x1c988
   1c93c:	07f78713          	add	a4,a5,127 # 0xffff007f
   1c940:	0ff77713          	zext.b	a4,a4
   1c944:	01e00693          	li	a3,30
   1c948:	00e6fa63          	bgeu	a3,a4,0x1c95c
   1c94c:	02078713          	add	a4,a5,32
   1c950:	0ff77713          	zext.b	a4,a4
   1c954:	00f00693          	li	a3,15
   1c958:	04e6e263          	bltu	a3,a4,0x1c99c
   1c95c:	fc060713          	add	a4,a2,-64
   1c960:	0ff77713          	zext.b	a4,a4
   1c964:	03e00693          	li	a3,62
   1c968:	00e6f863          	bgeu	a3,a4,0x1c978
   1c96c:	08064713          	xor	a4,a2,128
   1c970:	07c00693          	li	a3,124
   1c974:	02e6e463          	bltu	a3,a4,0x1c99c
   1c978:	00f58023          	sb	a5,0(a1)
   1c97c:	00c580a3          	sb	a2,1(a1)
   1c980:	00200513          	li	a0,2
   1c984:	00008067          	ret
   1c988:	00c58023          	sb	a2,0(a1)
   1c98c:	00100513          	li	a0,1
   1c990:	00008067          	ret
   1c994:	00000513          	li	a0,0
   1c998:	00008067          	ret
   1c99c:	08a00793          	li	a5,138
   1c9a0:	00f52023          	sw	a5,0(a0)
   1c9a4:	fff00513          	li	a0,-1
   1c9a8:	00008067          	ret
   1c9ac:	00865793          	srl	a5,a2,0x8
   1c9b0:	0ff7f793          	zext.b	a5,a5
   1c9b4:	0ff67613          	zext.b	a2,a2
   1c9b8:	06058c63          	beqz	a1,0x1ca30
   1c9bc:	04078c63          	beqz	a5,0x1ca14
   1c9c0:	07278713          	add	a4,a5,114
   1c9c4:	0ff77713          	zext.b	a4,a4
   1c9c8:	00100693          	li	a3,1
   1c9cc:	06e6f663          	bgeu	a3,a4,0x1ca38
   1c9d0:	05f78713          	add	a4,a5,95
   1c9d4:	0ff77713          	zext.b	a4,a4
   1c9d8:	05d00693          	li	a3,93
   1c9dc:	06e6e663          	bltu	a3,a4,0x1ca48
   1c9e0:	05f60713          	add	a4,a2,95
   1c9e4:	0ff77713          	zext.b	a4,a4
   1c9e8:	02e6fc63          	bgeu	a3,a4,0x1ca20
   1c9ec:	08066613          	or	a2,a2,128
   1c9f0:	05f60713          	add	a4,a2,95
   1c9f4:	0ff77713          	zext.b	a4,a4
   1c9f8:	04e6e863          	bltu	a3,a4,0x1ca48
   1c9fc:	f8f00713          	li	a4,-113
   1ca00:	00e58023          	sb	a4,0(a1)
   1ca04:	00f580a3          	sb	a5,1(a1)
   1ca08:	00c58123          	sb	a2,2(a1)
   1ca0c:	00300513          	li	a0,3
   1ca10:	00008067          	ret
   1ca14:	00c58023          	sb	a2,0(a1)
   1ca18:	00100513          	li	a0,1
   1ca1c:	00008067          	ret
   1ca20:	00f58023          	sb	a5,0(a1)
   1ca24:	00c580a3          	sb	a2,1(a1)
   1ca28:	00200513          	li	a0,2
   1ca2c:	00008067          	ret
   1ca30:	00000513          	li	a0,0
   1ca34:	00008067          	ret
   1ca38:	05f60713          	add	a4,a2,95
   1ca3c:	0ff77713          	zext.b	a4,a4
   1ca40:	05d00693          	li	a3,93
   1ca44:	fce6fee3          	bgeu	a3,a4,0x1ca20
   1ca48:	08a00793          	li	a5,138
   1ca4c:	00f52023          	sw	a5,0(a0)
   1ca50:	fff00513          	li	a0,-1
   1ca54:	00008067          	ret
   1ca58:	00865793          	srl	a5,a2,0x8
   1ca5c:	0ff7f793          	zext.b	a5,a5
   1ca60:	0ff67613          	zext.b	a2,a2
   1ca64:	08058e63          	beqz	a1,0x1cb00
   1ca68:	06078063          	beqz	a5,0x1cac8
   1ca6c:	fdf78713          	add	a4,a5,-33
   1ca70:	0ff77713          	zext.b	a4,a4
   1ca74:	05d00813          	li	a6,93
   1ca78:	08e86863          	bltu	a6,a4,0x1cb08
   1ca7c:	fdf60713          	add	a4,a2,-33
   1ca80:	0ff77713          	zext.b	a4,a4
   1ca84:	08e86263          	bltu	a6,a4,0x1cb08
   1ca88:	0006a703          	lw	a4,0(a3)
   1ca8c:	00200513          	li	a0,2
   1ca90:	02071663          	bnez	a4,0x1cabc
   1ca94:	00100713          	li	a4,1
   1ca98:	00e6a023          	sw	a4,0(a3)
   1ca9c:	01b00713          	li	a4,27
   1caa0:	00e58023          	sb	a4,0(a1)
   1caa4:	02400713          	li	a4,36
   1caa8:	00e580a3          	sb	a4,1(a1)
   1caac:	04200713          	li	a4,66
   1cab0:	00e58123          	sb	a4,2(a1)
   1cab4:	00500513          	li	a0,5
   1cab8:	00358593          	add	a1,a1,3
   1cabc:	00f58023          	sb	a5,0(a1)
   1cac0:	00c580a3          	sb	a2,1(a1)
   1cac4:	00008067          	ret
   1cac8:	0006a783          	lw	a5,0(a3)
   1cacc:	00100513          	li	a0,1
   1cad0:	02078463          	beqz	a5,0x1caf8
   1cad4:	0006a023          	sw	zero,0(a3)
   1cad8:	01b00793          	li	a5,27
   1cadc:	00f58023          	sb	a5,0(a1)
   1cae0:	02800793          	li	a5,40
   1cae4:	00f580a3          	sb	a5,1(a1)
   1cae8:	04200793          	li	a5,66
   1caec:	00f58123          	sb	a5,2(a1)
   1caf0:	00400513          	li	a0,4
   1caf4:	00358593          	add	a1,a1,3
   1caf8:	00c58023          	sb	a2,0(a1)
   1cafc:	00008067          	ret
   1cb00:	00100513          	li	a0,1
   1cb04:	00008067          	ret
   1cb08:	08a00793          	li	a5,138
   1cb0c:	00f52023          	sw	a5,0(a0)
   1cb10:	fff00513          	li	a0,-1
   1cb14:	00008067          	ret
   1cb18:	fe010113          	add	sp,sp,-32
   1cb1c:	00812c23          	sw	s0,24(sp)
   1cb20:	00912a23          	sw	s1,20(sp)
   1cb24:	00112e23          	sw	ra,28(sp)
   1cb28:	00050493          	mv	s1,a0
   1cb2c:	10450413          	add	s0,a0,260
   1cb30:	00068463          	beqz	a3,0x1cb38
   1cb34:	00068413          	mv	s0,a3
   1cb38:	e181a783          	lw	a5,-488(gp)
   1cb3c:	00040693          	mv	a3,s0
   1cb40:	02058463          	beqz	a1,0x1cb68
   1cb44:	00048513          	mv	a0,s1
   1cb48:	000780e7          	jalr	a5
   1cb4c:	fff00793          	li	a5,-1
   1cb50:	02f50863          	beq	a0,a5,0x1cb80
   1cb54:	01c12083          	lw	ra,28(sp)
   1cb58:	01812403          	lw	s0,24(sp)
   1cb5c:	01412483          	lw	s1,20(sp)
   1cb60:	02010113          	add	sp,sp,32
   1cb64:	00008067          	ret
   1cb68:	00000613          	li	a2,0
   1cb6c:	00410593          	add	a1,sp,4
   1cb70:	00048513          	mv	a0,s1
   1cb74:	000780e7          	jalr	a5
   1cb78:	fff00793          	li	a5,-1
   1cb7c:	fcf51ce3          	bne	a0,a5,0x1cb54
   1cb80:	00042023          	sw	zero,0(s0)
   1cb84:	01c12083          	lw	ra,28(sp)
   1cb88:	01812403          	lw	s0,24(sp)
   1cb8c:	08a00793          	li	a5,138
   1cb90:	00f4a023          	sw	a5,0(s1)
   1cb94:	01412483          	lw	s1,20(sp)
   1cb98:	02010113          	add	sp,sp,32
   1cb9c:	00008067          	ret
   1cba0:	fe010113          	add	sp,sp,-32
   1cba4:	00812c23          	sw	s0,24(sp)
   1cba8:	00912a23          	sw	s1,20(sp)
   1cbac:	00060413          	mv	s0,a2
   1cbb0:	00112e23          	sw	ra,28(sp)
   1cbb4:	00058613          	mv	a2,a1
   1cbb8:	f341a483          	lw	s1,-204(gp)
   1cbbc:	02040c63          	beqz	s0,0x1cbf4
   1cbc0:	e181a783          	lw	a5,-488(gp)
   1cbc4:	00040693          	mv	a3,s0
   1cbc8:	02050e63          	beqz	a0,0x1cc04
   1cbcc:	00050593          	mv	a1,a0
   1cbd0:	00048513          	mv	a0,s1
   1cbd4:	000780e7          	jalr	a5
   1cbd8:	fff00793          	li	a5,-1
   1cbdc:	04f50063          	beq	a0,a5,0x1cc1c
   1cbe0:	01c12083          	lw	ra,28(sp)
   1cbe4:	01812403          	lw	s0,24(sp)
   1cbe8:	01412483          	lw	s1,20(sp)
   1cbec:	02010113          	add	sp,sp,32
   1cbf0:	00008067          	ret
   1cbf4:	10448413          	add	s0,s1,260
   1cbf8:	e181a783          	lw	a5,-488(gp)
   1cbfc:	00040693          	mv	a3,s0
   1cc00:	fc0516e3          	bnez	a0,0x1cbcc
   1cc04:	00000613          	li	a2,0
   1cc08:	00410593          	add	a1,sp,4
   1cc0c:	00048513          	mv	a0,s1
   1cc10:	000780e7          	jalr	a5
   1cc14:	fff00793          	li	a5,-1
   1cc18:	fcf514e3          	bne	a0,a5,0x1cbe0
   1cc1c:	00042023          	sw	zero,0(s0)
   1cc20:	01c12083          	lw	ra,28(sp)
   1cc24:	01812403          	lw	s0,24(sp)
   1cc28:	08a00793          	li	a5,138
   1cc2c:	00f4a023          	sw	a5,0(s1)
   1cc30:	01412483          	lw	s1,20(sp)
   1cc34:	02010113          	add	sp,sp,32
   1cc38:	00008067          	ret
   1cc3c:	00070793          	mv	a5,a4
   1cc40:	00068713          	mv	a4,a3
   1cc44:	fff00693          	li	a3,-1
   1cc48:	4a10006f          	j	0x1d8e8
   1cc4c:	00060713          	mv	a4,a2
   1cc50:	00068793          	mv	a5,a3
   1cc54:	00058613          	mv	a2,a1
   1cc58:	fff00693          	li	a3,-1
   1cc5c:	00050593          	mv	a1,a0
   1cc60:	f341a503          	lw	a0,-204(gp)
   1cc64:	4850006f          	j	0x1d8e8
   1cc68:	00006797          	auipc	a5,0x6
   1cc6c:	b8078793          	add	a5,a5,-1152 # 0x227e8
   1cc70:	0ef52623          	sw	a5,236(a0)
   1cc74:	00008067          	ret
   1cc78:	00c59783          	lh	a5,12(a1)
   1cc7c:	f8010113          	add	sp,sp,-128
   1cc80:	06812c23          	sw	s0,120(sp)
   1cc84:	06112e23          	sw	ra,124(sp)
   1cc88:	0027f713          	and	a4,a5,2
   1cc8c:	00058413          	mv	s0,a1
   1cc90:	02070463          	beqz	a4,0x1ccb8
   1cc94:	04358793          	add	a5,a1,67
   1cc98:	00f5a023          	sw	a5,0(a1)
   1cc9c:	00f5a823          	sw	a5,16(a1)
   1cca0:	00100793          	li	a5,1
   1cca4:	00f5aa23          	sw	a5,20(a1)
   1cca8:	07c12083          	lw	ra,124(sp)
   1ccac:	07812403          	lw	s0,120(sp)
   1ccb0:	08010113          	add	sp,sp,128
   1ccb4:	00008067          	ret
   1ccb8:	00e59583          	lh	a1,14(a1)
   1ccbc:	06912a23          	sw	s1,116(sp)
   1ccc0:	07212823          	sw	s2,112(sp)
   1ccc4:	07312623          	sw	s3,108(sp)
   1ccc8:	07412423          	sw	s4,104(sp)
   1cccc:	00050493          	mv	s1,a0
   1ccd0:	0805c663          	bltz	a1,0x1cd5c
   1ccd4:	00810613          	add	a2,sp,8
   1ccd8:	76c000ef          	jal	0x1d444
   1ccdc:	06054e63          	bltz	a0,0x1cd58
   1cce0:	00c12783          	lw	a5,12(sp)
   1cce4:	0000f937          	lui	s2,0xf
   1cce8:	000019b7          	lui	s3,0x1
   1ccec:	00f97933          	and	s2,s2,a5
   1ccf0:	ffffe7b7          	lui	a5,0xffffe
   1ccf4:	00f90933          	add	s2,s2,a5
   1ccf8:	00193913          	seqz	s2,s2
   1ccfc:	40000a13          	li	s4,1024
   1cd00:	80098993          	add	s3,s3,-2048 # 0x800
   1cd04:	000a0593          	mv	a1,s4
   1cd08:	00048513          	mv	a0,s1
   1cd0c:	965f40ef          	jal	0x11670
   1cd10:	00c41783          	lh	a5,12(s0)
   1cd14:	06050863          	beqz	a0,0x1cd84
   1cd18:	0807e793          	or	a5,a5,128
   1cd1c:	00a42023          	sw	a0,0(s0)
   1cd20:	00a42823          	sw	a0,16(s0)
   1cd24:	00f41623          	sh	a5,12(s0)
   1cd28:	01442a23          	sw	s4,20(s0)
   1cd2c:	0a091063          	bnez	s2,0x1cdcc
   1cd30:	0137e7b3          	or	a5,a5,s3
   1cd34:	07c12083          	lw	ra,124(sp)
   1cd38:	00f41623          	sh	a5,12(s0)
   1cd3c:	07812403          	lw	s0,120(sp)
   1cd40:	07412483          	lw	s1,116(sp)
   1cd44:	07012903          	lw	s2,112(sp)
   1cd48:	06c12983          	lw	s3,108(sp)
   1cd4c:	06812a03          	lw	s4,104(sp)
   1cd50:	08010113          	add	sp,sp,128
   1cd54:	00008067          	ret
   1cd58:	00c41783          	lh	a5,12(s0)
   1cd5c:	0807f793          	and	a5,a5,128
   1cd60:	00000913          	li	s2,0
   1cd64:	04078e63          	beqz	a5,0x1cdc0
   1cd68:	04000a13          	li	s4,64
   1cd6c:	000a0593          	mv	a1,s4
   1cd70:	00048513          	mv	a0,s1
   1cd74:	8fdf40ef          	jal	0x11670
   1cd78:	00c41783          	lh	a5,12(s0)
   1cd7c:	00000993          	li	s3,0
   1cd80:	f8051ce3          	bnez	a0,0x1cd18
   1cd84:	2007f713          	and	a4,a5,512
   1cd88:	04071e63          	bnez	a4,0x1cde4
   1cd8c:	ffc7f793          	and	a5,a5,-4
   1cd90:	0027e793          	or	a5,a5,2
   1cd94:	04340713          	add	a4,s0,67
   1cd98:	00f41623          	sh	a5,12(s0)
   1cd9c:	00100793          	li	a5,1
   1cda0:	07412483          	lw	s1,116(sp)
   1cda4:	07012903          	lw	s2,112(sp)
   1cda8:	06c12983          	lw	s3,108(sp)
   1cdac:	06812a03          	lw	s4,104(sp)
   1cdb0:	00e42023          	sw	a4,0(s0)
   1cdb4:	00e42823          	sw	a4,16(s0)
   1cdb8:	00f42a23          	sw	a5,20(s0)
   1cdbc:	eedff06f          	j	0x1cca8
   1cdc0:	40000a13          	li	s4,1024
   1cdc4:	00000993          	li	s3,0
   1cdc8:	f3dff06f          	j	0x1cd04
   1cdcc:	00e41583          	lh	a1,14(s0)
   1cdd0:	00048513          	mv	a0,s1
   1cdd4:	6c8000ef          	jal	0x1d49c
   1cdd8:	02051063          	bnez	a0,0x1cdf8
   1cddc:	00c41783          	lh	a5,12(s0)
   1cde0:	f51ff06f          	j	0x1cd30
   1cde4:	07412483          	lw	s1,116(sp)
   1cde8:	07012903          	lw	s2,112(sp)
   1cdec:	06c12983          	lw	s3,108(sp)
   1cdf0:	06812a03          	lw	s4,104(sp)
   1cdf4:	eb5ff06f          	j	0x1cca8
   1cdf8:	00c45783          	lhu	a5,12(s0)
   1cdfc:	ffc7f793          	and	a5,a5,-4
   1ce00:	0017e793          	or	a5,a5,1
   1ce04:	01079793          	sll	a5,a5,0x10
   1ce08:	4107d793          	sra	a5,a5,0x10
   1ce0c:	f25ff06f          	j	0x1cd30
   1ce10:	f9010113          	add	sp,sp,-112
   1ce14:	06812423          	sw	s0,104(sp)
   1ce18:	00058413          	mv	s0,a1
   1ce1c:	00e59583          	lh	a1,14(a1)
   1ce20:	06912223          	sw	s1,100(sp)
   1ce24:	07212023          	sw	s2,96(sp)
   1ce28:	06112623          	sw	ra,108(sp)
   1ce2c:	00060493          	mv	s1,a2
   1ce30:	00068913          	mv	s2,a3
   1ce34:	0405ca63          	bltz	a1,0x1ce88
   1ce38:	00810613          	add	a2,sp,8
   1ce3c:	608000ef          	jal	0x1d444
   1ce40:	04054463          	bltz	a0,0x1ce88
   1ce44:	00c12703          	lw	a4,12(sp)
   1ce48:	0000f7b7          	lui	a5,0xf
   1ce4c:	06c12083          	lw	ra,108(sp)
   1ce50:	00e7f7b3          	and	a5,a5,a4
   1ce54:	ffffe737          	lui	a4,0xffffe
   1ce58:	00e787b3          	add	a5,a5,a4
   1ce5c:	06812403          	lw	s0,104(sp)
   1ce60:	0017b793          	seqz	a5,a5
   1ce64:	00f92023          	sw	a5,0(s2) # 0xf000
   1ce68:	40000713          	li	a4,1024
   1ce6c:	00e4a023          	sw	a4,0(s1)
   1ce70:	00001537          	lui	a0,0x1
   1ce74:	06412483          	lw	s1,100(sp)
   1ce78:	06012903          	lw	s2,96(sp)
   1ce7c:	80050513          	add	a0,a0,-2048 # 0x800
   1ce80:	07010113          	add	sp,sp,112
   1ce84:	00008067          	ret
   1ce88:	00c45783          	lhu	a5,12(s0)
   1ce8c:	0807f793          	and	a5,a5,128
   1ce90:	02078863          	beqz	a5,0x1cec0
   1ce94:	06c12083          	lw	ra,108(sp)
   1ce98:	06812403          	lw	s0,104(sp)
   1ce9c:	00000793          	li	a5,0
   1cea0:	00f92023          	sw	a5,0(s2)
   1cea4:	04000713          	li	a4,64
   1cea8:	00e4a023          	sw	a4,0(s1)
   1ceac:	06012903          	lw	s2,96(sp)
   1ceb0:	06412483          	lw	s1,100(sp)
   1ceb4:	00000513          	li	a0,0
   1ceb8:	07010113          	add	sp,sp,112
   1cebc:	00008067          	ret
   1cec0:	06c12083          	lw	ra,108(sp)
   1cec4:	06812403          	lw	s0,104(sp)
   1cec8:	00f92023          	sw	a5,0(s2)
   1cecc:	40000713          	li	a4,1024
   1ced0:	00e4a023          	sw	a4,0(s1)
   1ced4:	06012903          	lw	s2,96(sp)
   1ced8:	06412483          	lw	s1,100(sp)
   1cedc:	00000513          	li	a0,0
   1cee0:	07010113          	add	sp,sp,112
   1cee4:	00008067          	ret
   1cee8:	fe010113          	add	sp,sp,-32
   1ceec:	00812c23          	sw	s0,24(sp)
   1cef0:	00912a23          	sw	s1,20(sp)
   1cef4:	01212823          	sw	s2,16(sp)
   1cef8:	00112e23          	sw	ra,28(sp)
   1cefc:	00050913          	mv	s2,a0
   1cf00:	00058493          	mv	s1,a1
   1cf04:	00060413          	mv	s0,a2
   1cf08:	00050663          	beqz	a0,0x1cf14
   1cf0c:	03452783          	lw	a5,52(a0)
   1cf10:	16078063          	beqz	a5,0x1d070
   1cf14:	01842783          	lw	a5,24(s0)
   1cf18:	00c41703          	lh	a4,12(s0)
   1cf1c:	00f42423          	sw	a5,8(s0)
   1cf20:	00877793          	and	a5,a4,8
   1cf24:	08078063          	beqz	a5,0x1cfa4
   1cf28:	01042783          	lw	a5,16(s0)
   1cf2c:	06078c63          	beqz	a5,0x1cfa4
   1cf30:	01312623          	sw	s3,12(sp)
   1cf34:	01271693          	sll	a3,a4,0x12
   1cf38:	0ff4f993          	zext.b	s3,s1
   1cf3c:	0ff4f493          	zext.b	s1,s1
   1cf40:	0806d863          	bgez	a3,0x1cfd0
   1cf44:	00042703          	lw	a4,0(s0)
   1cf48:	01442683          	lw	a3,20(s0)
   1cf4c:	40f707b3          	sub	a5,a4,a5
   1cf50:	0ad7d863          	bge	a5,a3,0x1d000
   1cf54:	00842683          	lw	a3,8(s0)
   1cf58:	00170613          	add	a2,a4,1 # 0xffffe001
   1cf5c:	00c42023          	sw	a2,0(s0)
   1cf60:	fff68693          	add	a3,a3,-1
   1cf64:	00d42423          	sw	a3,8(s0)
   1cf68:	01370023          	sb	s3,0(a4)
   1cf6c:	01442703          	lw	a4,20(s0)
   1cf70:	00178793          	add	a5,a5,1 # 0xf001
   1cf74:	0cf70263          	beq	a4,a5,0x1d038
   1cf78:	00c45783          	lhu	a5,12(s0)
   1cf7c:	0017f793          	and	a5,a5,1
   1cf80:	0c079a63          	bnez	a5,0x1d054
   1cf84:	00c12983          	lw	s3,12(sp)
   1cf88:	01c12083          	lw	ra,28(sp)
   1cf8c:	01812403          	lw	s0,24(sp)
   1cf90:	01012903          	lw	s2,16(sp)
   1cf94:	00048513          	mv	a0,s1
   1cf98:	01412483          	lw	s1,20(sp)
   1cf9c:	02010113          	add	sp,sp,32
   1cfa0:	00008067          	ret
   1cfa4:	00040593          	mv	a1,s0
   1cfa8:	00090513          	mv	a0,s2
   1cfac:	8ccfa0ef          	jal	0x17078
   1cfb0:	08051e63          	bnez	a0,0x1d04c
   1cfb4:	00c41703          	lh	a4,12(s0)
   1cfb8:	01312623          	sw	s3,12(sp)
   1cfbc:	01042783          	lw	a5,16(s0)
   1cfc0:	01271693          	sll	a3,a4,0x12
   1cfc4:	0ff4f993          	zext.b	s3,s1
   1cfc8:	0ff4f493          	zext.b	s1,s1
   1cfcc:	f606cce3          	bltz	a3,0x1cf44
   1cfd0:	06442683          	lw	a3,100(s0)
   1cfd4:	ffffe637          	lui	a2,0xffffe
   1cfd8:	000025b7          	lui	a1,0x2
   1cfdc:	00b76733          	or	a4,a4,a1
   1cfe0:	fff60613          	add	a2,a2,-1 # 0xffffdfff
   1cfe4:	00c6f6b3          	and	a3,a3,a2
   1cfe8:	00e41623          	sh	a4,12(s0)
   1cfec:	00042703          	lw	a4,0(s0)
   1cff0:	06d42223          	sw	a3,100(s0)
   1cff4:	01442683          	lw	a3,20(s0)
   1cff8:	40f707b3          	sub	a5,a4,a5
   1cffc:	f4d7cce3          	blt	a5,a3,0x1cf54
   1d000:	00040593          	mv	a1,s0
   1d004:	00090513          	mv	a0,s2
   1d008:	9adf90ef          	jal	0x169b4
   1d00c:	02051e63          	bnez	a0,0x1d048
   1d010:	00042703          	lw	a4,0(s0)
   1d014:	00842683          	lw	a3,8(s0)
   1d018:	00100793          	li	a5,1
   1d01c:	00170613          	add	a2,a4,1
   1d020:	fff68693          	add	a3,a3,-1
   1d024:	00c42023          	sw	a2,0(s0)
   1d028:	00d42423          	sw	a3,8(s0)
   1d02c:	01370023          	sb	s3,0(a4)
   1d030:	01442703          	lw	a4,20(s0)
   1d034:	f4f712e3          	bne	a4,a5,0x1cf78
   1d038:	00040593          	mv	a1,s0
   1d03c:	00090513          	mv	a0,s2
   1d040:	975f90ef          	jal	0x169b4
   1d044:	f40500e3          	beqz	a0,0x1cf84
   1d048:	00c12983          	lw	s3,12(sp)
   1d04c:	fff00493          	li	s1,-1
   1d050:	f39ff06f          	j	0x1cf88
   1d054:	00a00793          	li	a5,10
   1d058:	f2f496e3          	bne	s1,a5,0x1cf84
   1d05c:	00040593          	mv	a1,s0
   1d060:	00090513          	mv	a0,s2
   1d064:	951f90ef          	jal	0x169b4
   1d068:	f0050ee3          	beqz	a0,0x1cf84
   1d06c:	fddff06f          	j	0x1d048
   1d070:	ff0f30ef          	jal	0x10860
   1d074:	ea1ff06f          	j	0x1cf14
   1d078:	00058613          	mv	a2,a1
   1d07c:	00050593          	mv	a1,a0
   1d080:	f341a503          	lw	a0,-204(gp)
   1d084:	e65ff06f          	j	0x1cee8
   1d088:	00050693          	mv	a3,a0
   1d08c:	00005817          	auipc	a6,0x5
   1d090:	75d80813          	add	a6,a6,1885 # 0x227e9
   1d094:	00100613          	li	a2,1
   1d098:	0006c783          	lbu	a5,0(a3)
   1d09c:	00158593          	add	a1,a1,1 # 0x2001
   1d0a0:	00168693          	add	a3,a3,1
   1d0a4:	00f80733          	add	a4,a6,a5
   1d0a8:	00074703          	lbu	a4,0(a4)
   1d0ac:	00377713          	and	a4,a4,3
   1d0b0:	00c71463          	bne	a4,a2,0x1d0b8
   1d0b4:	02078793          	add	a5,a5,32
   1d0b8:	fff5c503          	lbu	a0,-1(a1)
   1d0bc:	00a80733          	add	a4,a6,a0
   1d0c0:	00074703          	lbu	a4,0(a4)
   1d0c4:	40a788b3          	sub	a7,a5,a0
   1d0c8:	00377713          	and	a4,a4,3
   1d0cc:	00c70863          	beq	a4,a2,0x1d0dc
   1d0d0:	00a79e63          	bne	a5,a0,0x1d0ec
   1d0d4:	fc0512e3          	bnez	a0,0x1d098
   1d0d8:	00008067          	ret
   1d0dc:	02050713          	add	a4,a0,32
   1d0e0:	40e78533          	sub	a0,a5,a4
   1d0e4:	fae78ae3          	beq	a5,a4,0x1d098
   1d0e8:	00008067          	ret
   1d0ec:	00088513          	mv	a0,a7
   1d0f0:	00008067          	ret
   1d0f4:	ff010113          	add	sp,sp,-16
   1d0f8:	00812423          	sw	s0,8(sp)
   1d0fc:	00112623          	sw	ra,12(sp)
   1d100:	00357793          	and	a5,a0,3
   1d104:	00050413          	mv	s0,a0
   1d108:	04079463          	bnez	a5,0x1d150
   1d10c:	00052703          	lw	a4,0(a0)
   1d110:	feff0637          	lui	a2,0xfeff0
   1d114:	eff60613          	add	a2,a2,-257 # 0xfefefeff
   1d118:	00c707b3          	add	a5,a4,a2
   1d11c:	808086b7          	lui	a3,0x80808
   1d120:	fff74713          	not	a4,a4
   1d124:	00e7f7b3          	and	a5,a5,a4
   1d128:	08068693          	add	a3,a3,128 # 0x80808080
   1d12c:	00d7f7b3          	and	a5,a5,a3
   1d130:	02079063          	bnez	a5,0x1d150
   1d134:	00452703          	lw	a4,4(a0)
   1d138:	00450513          	add	a0,a0,4
   1d13c:	00c707b3          	add	a5,a4,a2
   1d140:	fff74713          	not	a4,a4
   1d144:	00e7f7b3          	and	a5,a5,a4
   1d148:	00d7f7b3          	and	a5,a5,a3
   1d14c:	fe0784e3          	beqz	a5,0x1d134
   1d150:	00054783          	lbu	a5,0(a0)
   1d154:	00078863          	beqz	a5,0x1d164
   1d158:	00154783          	lbu	a5,1(a0)
   1d15c:	00150513          	add	a0,a0,1
   1d160:	fe079ce3          	bnez	a5,0x1d158
   1d164:	dacfb0ef          	jal	0x18710
   1d168:	00c12083          	lw	ra,12(sp)
   1d16c:	00040513          	mv	a0,s0
   1d170:	00812403          	lw	s0,8(sp)
   1d174:	01010113          	add	sp,sp,16
   1d178:	00008067          	ret
   1d17c:	0ff5f693          	zext.b	a3,a1
   1d180:	00357793          	and	a5,a0,3
   1d184:	0c068063          	beqz	a3,0x1d244
   1d188:	00078e63          	beqz	a5,0x1d1a4
   1d18c:	00054783          	lbu	a5,0(a0)
   1d190:	0a078663          	beqz	a5,0x1d23c
   1d194:	0ad78663          	beq	a5,a3,0x1d240
   1d198:	00150513          	add	a0,a0,1
   1d19c:	00357793          	and	a5,a0,3
   1d1a0:	fe0796e3          	bnez	a5,0x1d18c
   1d1a4:	0ff5f593          	zext.b	a1,a1
   1d1a8:	00859893          	sll	a7,a1,0x8
   1d1ac:	00052703          	lw	a4,0(a0)
   1d1b0:	00b888b3          	add	a7,a7,a1
   1d1b4:	01089793          	sll	a5,a7,0x10
   1d1b8:	00f888b3          	add	a7,a7,a5
   1d1bc:	feff0837          	lui	a6,0xfeff0
   1d1c0:	00e8c633          	xor	a2,a7,a4
   1d1c4:	eff80813          	add	a6,a6,-257 # 0xfefefeff
   1d1c8:	010707b3          	add	a5,a4,a6
   1d1cc:	010605b3          	add	a1,a2,a6
   1d1d0:	fff74713          	not	a4,a4
   1d1d4:	fff64613          	not	a2,a2
   1d1d8:	00e7f7b3          	and	a5,a5,a4
   1d1dc:	80808337          	lui	t1,0x80808
   1d1e0:	00c5f733          	and	a4,a1,a2
   1d1e4:	00e7e7b3          	or	a5,a5,a4
   1d1e8:	08030313          	add	t1,t1,128 # 0x80808080
   1d1ec:	0067f7b3          	and	a5,a5,t1
   1d1f0:	02079a63          	bnez	a5,0x1d224
   1d1f4:	00452703          	lw	a4,4(a0)
   1d1f8:	00450513          	add	a0,a0,4
   1d1fc:	01174633          	xor	a2,a4,a7
   1d200:	010707b3          	add	a5,a4,a6
   1d204:	010605b3          	add	a1,a2,a6
   1d208:	fff74713          	not	a4,a4
   1d20c:	fff64613          	not	a2,a2
   1d210:	00e7f7b3          	and	a5,a5,a4
   1d214:	00c5f733          	and	a4,a1,a2
   1d218:	00e7e7b3          	or	a5,a5,a4
   1d21c:	0067f7b3          	and	a5,a5,t1
   1d220:	fc078ae3          	beqz	a5,0x1d1f4
   1d224:	00054783          	lbu	a5,0(a0)
   1d228:	00078a63          	beqz	a5,0x1d23c
   1d22c:	08f68663          	beq	a3,a5,0x1d2b8
   1d230:	00154783          	lbu	a5,1(a0)
   1d234:	00150513          	add	a0,a0,1
   1d238:	fe079ae3          	bnez	a5,0x1d22c
   1d23c:	00000513          	li	a0,0
   1d240:	00008067          	ret
   1d244:	00078c63          	beqz	a5,0x1d25c
   1d248:	00054783          	lbu	a5,0(a0)
   1d24c:	fe078ae3          	beqz	a5,0x1d240
   1d250:	00150513          	add	a0,a0,1
   1d254:	00357793          	and	a5,a0,3
   1d258:	fe0798e3          	bnez	a5,0x1d248
   1d25c:	00052703          	lw	a4,0(a0)
   1d260:	feff0637          	lui	a2,0xfeff0
   1d264:	eff60613          	add	a2,a2,-257 # 0xfefefeff
   1d268:	00c707b3          	add	a5,a4,a2
   1d26c:	808086b7          	lui	a3,0x80808
   1d270:	fff74713          	not	a4,a4
   1d274:	00e7f7b3          	and	a5,a5,a4
   1d278:	08068693          	add	a3,a3,128 # 0x80808080
   1d27c:	00d7f7b3          	and	a5,a5,a3
   1d280:	02079063          	bnez	a5,0x1d2a0
   1d284:	00452703          	lw	a4,4(a0)
   1d288:	00450513          	add	a0,a0,4
   1d28c:	00c707b3          	add	a5,a4,a2
   1d290:	fff74713          	not	a4,a4
   1d294:	00e7f7b3          	and	a5,a5,a4
   1d298:	00d7f7b3          	and	a5,a5,a3
   1d29c:	fe0784e3          	beqz	a5,0x1d284
   1d2a0:	00054783          	lbu	a5,0(a0)
   1d2a4:	f8078ee3          	beqz	a5,0x1d240
   1d2a8:	00154783          	lbu	a5,1(a0)
   1d2ac:	00150513          	add	a0,a0,1
   1d2b0:	fe079ce3          	bnez	a5,0x1d2a8
   1d2b4:	00008067          	ret
   1d2b8:	00008067          	ret
   1d2bc:	00058793          	mv	a5,a1
   1d2c0:	00061e63          	bnez	a2,0x1d2dc
   1d2c4:	0240006f          	j	0x1d2e8
   1d2c8:	0007c703          	lbu	a4,0(a5)
   1d2cc:	00150513          	add	a0,a0,1
   1d2d0:	00178793          	add	a5,a5,1
   1d2d4:	fee50fa3          	sb	a4,-1(a0)
   1d2d8:	00070e63          	beqz	a4,0x1d2f4
   1d2dc:	fff60613          	add	a2,a2,-1
   1d2e0:	fe0614e3          	bnez	a2,0x1d2c8
   1d2e4:	00050023          	sb	zero,0(a0)
   1d2e8:	0007c703          	lbu	a4,0(a5)
   1d2ec:	00178793          	add	a5,a5,1
   1d2f0:	fe071ce3          	bnez	a4,0x1d2e8
   1d2f4:	40b78533          	sub	a0,a5,a1
   1d2f8:	fff50513          	add	a0,a0,-1
   1d2fc:	00008067          	ret
   1d300:	00050693          	mv	a3,a0
   1d304:	04060c63          	beqz	a2,0x1d35c
   1d308:	00c58633          	add	a2,a1,a2
   1d30c:	00005897          	auipc	a7,0x5
   1d310:	4dd88893          	add	a7,a7,1245 # 0x227e9
   1d314:	00100813          	li	a6,1
   1d318:	0006c783          	lbu	a5,0(a3)
   1d31c:	00158593          	add	a1,a1,1
   1d320:	00168693          	add	a3,a3,1
   1d324:	00f88733          	add	a4,a7,a5
   1d328:	00074703          	lbu	a4,0(a4)
   1d32c:	00377713          	and	a4,a4,3
   1d330:	01071463          	bne	a4,a6,0x1d338
   1d334:	02078793          	add	a5,a5,32
   1d338:	fff5c503          	lbu	a0,-1(a1)
   1d33c:	00a88733          	add	a4,a7,a0
   1d340:	00074703          	lbu	a4,0(a4)
   1d344:	40a78333          	sub	t1,a5,a0
   1d348:	00377713          	and	a4,a4,3
   1d34c:	03070063          	beq	a4,a6,0x1d36c
   1d350:	00a79a63          	bne	a5,a0,0x1d364
   1d354:	00050a63          	beqz	a0,0x1d368
   1d358:	fcc590e3          	bne	a1,a2,0x1d318
   1d35c:	00000513          	li	a0,0
   1d360:	00008067          	ret
   1d364:	00030513          	mv	a0,t1
   1d368:	00008067          	ret
   1d36c:	02050713          	add	a4,a0,32
   1d370:	40e78533          	sub	a0,a5,a4
   1d374:	fee782e3          	beq	a5,a4,0x1d358
   1d378:	00008067          	ret
   1d37c:	04060a63          	beqz	a2,0x1d3d0
   1d380:	00b567b3          	or	a5,a0,a1
   1d384:	0037f793          	and	a5,a5,3
   1d388:	04078863          	beqz	a5,0x1d3d8
   1d38c:	00054703          	lbu	a4,0(a0)
   1d390:	0005c683          	lbu	a3,0(a1)
   1d394:	0ad71463          	bne	a4,a3,0x1d43c
   1d398:	00100793          	li	a5,1
   1d39c:	02f60a63          	beq	a2,a5,0x1d3d0
   1d3a0:	00050813          	mv	a6,a0
   1d3a4:	0140006f          	j	0x1d3b8
   1d3a8:	00054703          	lbu	a4,0(a0)
   1d3ac:	0005c683          	lbu	a3,0(a1)
   1d3b0:	08d71663          	bne	a4,a3,0x1d43c
   1d3b4:	00078e63          	beqz	a5,0x1d3d0
   1d3b8:	00150513          	add	a0,a0,1
   1d3bc:	40a607b3          	sub	a5,a2,a0
   1d3c0:	fff78793          	add	a5,a5,-1
   1d3c4:	00158593          	add	a1,a1,1
   1d3c8:	00f807b3          	add	a5,a6,a5
   1d3cc:	fc071ee3          	bnez	a4,0x1d3a8
   1d3d0:	00000513          	li	a0,0
   1d3d4:	00008067          	ret
   1d3d8:	feff0337          	lui	t1,0xfeff0
   1d3dc:	808088b7          	lui	a7,0x80808
   1d3e0:	00300793          	li	a5,3
   1d3e4:	eff30313          	add	t1,t1,-257 # 0xfefefeff
   1d3e8:	08088893          	add	a7,a7,128 # 0x80808080
   1d3ec:	00300e13          	li	t3,3
   1d3f0:	02c7e063          	bltu	a5,a2,0x1d410
   1d3f4:	f99ff06f          	j	0x1d38c
   1d3f8:	ffc60613          	add	a2,a2,-4
   1d3fc:	fc060ae3          	beqz	a2,0x1d3d0
   1d400:	fc0798e3          	bnez	a5,0x1d3d0
   1d404:	00450513          	add	a0,a0,4
   1d408:	00458593          	add	a1,a1,4
   1d40c:	f8ce70e3          	bgeu	t3,a2,0x1d38c
   1d410:	00052703          	lw	a4,0(a0)
   1d414:	0005a683          	lw	a3,0(a1)
   1d418:	006707b3          	add	a5,a4,t1
   1d41c:	fff74813          	not	a6,a4
   1d420:	0107f7b3          	and	a5,a5,a6
   1d424:	0117f7b3          	and	a5,a5,a7
   1d428:	fcd708e3          	beq	a4,a3,0x1d3f8
   1d42c:	00054703          	lbu	a4,0(a0)
   1d430:	0005c683          	lbu	a3,0(a1)
   1d434:	00050813          	mv	a6,a0
   1d438:	f8d700e3          	beq	a4,a3,0x1d3b8
   1d43c:	40d70533          	sub	a0,a4,a3
   1d440:	00008067          	ret
   1d444:	ff010113          	add	sp,sp,-16
   1d448:	00058713          	mv	a4,a1
   1d44c:	00812423          	sw	s0,8(sp)
   1d450:	00060593          	mv	a1,a2
   1d454:	00050413          	mv	s0,a0
   1d458:	00070513          	mv	a0,a4
   1d45c:	f401a823          	sw	zero,-176(gp)
   1d460:	00112623          	sw	ra,12(sp)
   1d464:	359000ef          	jal	0x1dfbc
   1d468:	fff00793          	li	a5,-1
   1d46c:	00f50a63          	beq	a0,a5,0x1d480
   1d470:	00c12083          	lw	ra,12(sp)
   1d474:	00812403          	lw	s0,8(sp)
   1d478:	01010113          	add	sp,sp,16
   1d47c:	00008067          	ret
   1d480:	f501a783          	lw	a5,-176(gp)
   1d484:	fe0786e3          	beqz	a5,0x1d470
   1d488:	00c12083          	lw	ra,12(sp)
   1d48c:	00f42023          	sw	a5,0(s0)
   1d490:	00812403          	lw	s0,8(sp)
   1d494:	01010113          	add	sp,sp,16
   1d498:	00008067          	ret
   1d49c:	ff010113          	add	sp,sp,-16
   1d4a0:	00812423          	sw	s0,8(sp)
   1d4a4:	00050413          	mv	s0,a0
   1d4a8:	00058513          	mv	a0,a1
   1d4ac:	f401a823          	sw	zero,-176(gp)
   1d4b0:	00112623          	sw	ra,12(sp)
   1d4b4:	371000ef          	jal	0x1e024
   1d4b8:	fff00793          	li	a5,-1
   1d4bc:	00f50a63          	beq	a0,a5,0x1d4d0
   1d4c0:	00c12083          	lw	ra,12(sp)
   1d4c4:	00812403          	lw	s0,8(sp)
   1d4c8:	01010113          	add	sp,sp,16
   1d4cc:	00008067          	ret
   1d4d0:	f501a783          	lw	a5,-176(gp)
   1d4d4:	fe0786e3          	beqz	a5,0x1d4c0
   1d4d8:	00c12083          	lw	ra,12(sp)
   1d4dc:	00f42023          	sw	a5,0(s0)
   1d4e0:	00812403          	lw	s0,8(sp)
   1d4e4:	01010113          	add	sp,sp,16
   1d4e8:	00008067          	ret
   1d4ec:	f341a503          	lw	a0,-204(gp)
   1d4f0:	00008067          	ret
   1d4f4:	ff010113          	add	sp,sp,-16
   1d4f8:	00068793          	mv	a5,a3
   1d4fc:	f341a703          	lw	a4,-204(gp)
   1d500:	00060813          	mv	a6,a2
   1d504:	00112623          	sw	ra,12(sp)
   1d508:	00c72883          	lw	a7,12(a4)
   1d50c:	00078613          	mv	a2,a5
   1d510:	00050693          	mv	a3,a0
   1d514:	00058713          	mv	a4,a1
   1d518:	00005797          	auipc	a5,0x5
   1d51c:	9dc78793          	add	a5,a5,-1572 # 0x21ef4
   1d520:	00080c63          	beqz	a6,0x1d538
   1d524:	00005597          	auipc	a1,0x5
   1d528:	9e058593          	add	a1,a1,-1568 # 0x21f04
   1d52c:	00088513          	mv	a0,a7
   1d530:	41c000ef          	jal	0x1d94c
   1d534:	460000ef          	jal	0x1d994
   1d538:	00004797          	auipc	a5,0x4
   1d53c:	71c78793          	add	a5,a5,1820 # 0x21c54
   1d540:	00078813          	mv	a6,a5
   1d544:	fe1ff06f          	j	0x1d524
   1d548:	ff010113          	add	sp,sp,-16
   1d54c:	00060693          	mv	a3,a2
   1d550:	00000613          	li	a2,0
   1d554:	00112623          	sw	ra,12(sp)
   1d558:	f9dff0ef          	jal	0x1d4f4
   1d55c:	fe010113          	add	sp,sp,-32
   1d560:	00812c23          	sw	s0,24(sp)
   1d564:	00112e23          	sw	ra,28(sp)
   1d568:	0105d693          	srl	a3,a1,0x10
   1d56c:	00058793          	mv	a5,a1
   1d570:	00050413          	mv	s0,a0
   1d574:	01065713          	srl	a4,a2,0x10
   1d578:	0c069063          	bnez	a3,0x1d638
   1d57c:	14071a63          	bnez	a4,0x1d6d0
   1d580:	01061593          	sll	a1,a2,0x10
   1d584:	01079513          	sll	a0,a5,0x10
   1d588:	0105d593          	srl	a1,a1,0x10
   1d58c:	01055513          	srl	a0,a0,0x10
   1d590:	4bc040ef          	jal	0x21a4c
   1d594:	00050593          	mv	a1,a0
   1d598:	00040513          	mv	a0,s0
   1d59c:	8d4f40ef          	jal	0x11670
   1d5a0:	00050413          	mv	s0,a0
   1d5a4:	10050a63          	beqz	a0,0x1d6b8
   1d5a8:	ffc52603          	lw	a2,-4(a0)
   1d5ac:	02400713          	li	a4,36
   1d5b0:	ffc67613          	and	a2,a2,-4
   1d5b4:	ffc60613          	add	a2,a2,-4
   1d5b8:	04c76863          	bltu	a4,a2,0x1d608
   1d5bc:	01300693          	li	a3,19
   1d5c0:	00050793          	mv	a5,a0
   1d5c4:	02c6f263          	bgeu	a3,a2,0x1d5e8
   1d5c8:	00052023          	sw	zero,0(a0)
   1d5cc:	00052223          	sw	zero,4(a0)
   1d5d0:	01b00793          	li	a5,27
   1d5d4:	04c7f863          	bgeu	a5,a2,0x1d624
   1d5d8:	00052423          	sw	zero,8(a0)
   1d5dc:	00052623          	sw	zero,12(a0)
   1d5e0:	01050793          	add	a5,a0,16
   1d5e4:	10e60263          	beq	a2,a4,0x1d6e8
   1d5e8:	0007a023          	sw	zero,0(a5)
   1d5ec:	0007a223          	sw	zero,4(a5)
   1d5f0:	0007a423          	sw	zero,8(a5)
   1d5f4:	01c12083          	lw	ra,28(sp)
   1d5f8:	00040513          	mv	a0,s0
   1d5fc:	01812403          	lw	s0,24(sp)
   1d600:	02010113          	add	sp,sp,32
   1d604:	00008067          	ret
   1d608:	00000593          	li	a1,0
   1d60c:	919f30ef          	jal	0x10f24
   1d610:	01c12083          	lw	ra,28(sp)
   1d614:	00040513          	mv	a0,s0
   1d618:	01812403          	lw	s0,24(sp)
   1d61c:	02010113          	add	sp,sp,32
   1d620:	00008067          	ret
   1d624:	00850793          	add	a5,a0,8
   1d628:	0007a023          	sw	zero,0(a5)
   1d62c:	0007a223          	sw	zero,4(a5)
   1d630:	0007a423          	sw	zero,8(a5)
   1d634:	fc1ff06f          	j	0x1d5f4
   1d638:	0c071663          	bnez	a4,0x1d704
   1d63c:	01212823          	sw	s2,16(sp)
   1d640:	01312623          	sw	s3,12(sp)
   1d644:	00912a23          	sw	s1,20(sp)
   1d648:	00068913          	mv	s2,a3
   1d64c:	00060993          	mv	s3,a2
   1d650:	01079513          	sll	a0,a5,0x10
   1d654:	01061593          	sll	a1,a2,0x10
   1d658:	0105d593          	srl	a1,a1,0x10
   1d65c:	01055513          	srl	a0,a0,0x10
   1d660:	3ec040ef          	jal	0x21a4c
   1d664:	00050493          	mv	s1,a0
   1d668:	01091593          	sll	a1,s2,0x10
   1d66c:	01099513          	sll	a0,s3,0x10
   1d670:	0105d593          	srl	a1,a1,0x10
   1d674:	01055513          	srl	a0,a0,0x10
   1d678:	3d4040ef          	jal	0x21a4c
   1d67c:	0104d793          	srl	a5,s1,0x10
   1d680:	00f505b3          	add	a1,a0,a5
   1d684:	0105d793          	srl	a5,a1,0x10
   1d688:	06079863          	bnez	a5,0x1d6f8
   1d68c:	01049493          	sll	s1,s1,0x10
   1d690:	0104d493          	srl	s1,s1,0x10
   1d694:	01059593          	sll	a1,a1,0x10
   1d698:	0095e5b3          	or	a1,a1,s1
   1d69c:	00040513          	mv	a0,s0
   1d6a0:	01412483          	lw	s1,20(sp)
   1d6a4:	01012903          	lw	s2,16(sp)
   1d6a8:	00c12983          	lw	s3,12(sp)
   1d6ac:	fc5f30ef          	jal	0x11670
   1d6b0:	00050413          	mv	s0,a0
   1d6b4:	ee051ae3          	bnez	a0,0x1d5a8
   1d6b8:	00000413          	li	s0,0
   1d6bc:	01c12083          	lw	ra,28(sp)
   1d6c0:	00040513          	mv	a0,s0
   1d6c4:	01812403          	lw	s0,24(sp)
   1d6c8:	02010113          	add	sp,sp,32
   1d6cc:	00008067          	ret
   1d6d0:	01212823          	sw	s2,16(sp)
   1d6d4:	01312623          	sw	s3,12(sp)
   1d6d8:	00912a23          	sw	s1,20(sp)
   1d6dc:	00070913          	mv	s2,a4
   1d6e0:	00058993          	mv	s3,a1
   1d6e4:	f6dff06f          	j	0x1d650
   1d6e8:	00052823          	sw	zero,16(a0)
   1d6ec:	01850793          	add	a5,a0,24
   1d6f0:	00052a23          	sw	zero,20(a0)
   1d6f4:	ef5ff06f          	j	0x1d5e8
   1d6f8:	01412483          	lw	s1,20(sp)
   1d6fc:	01012903          	lw	s2,16(sp)
   1d700:	00c12983          	lw	s3,12(sp)
   1d704:	de9ff0ef          	jal	0x1d4ec
   1d708:	00c00793          	li	a5,12
   1d70c:	00f52023          	sw	a5,0(a0)
   1d710:	00000413          	li	s0,0
   1d714:	fa9ff06f          	j	0x1d6bc
   1d718:	f6018513          	add	a0,gp,-160
   1d71c:	fecf306f          	j	0x10f08
   1d720:	f6018513          	add	a0,gp,-160
   1d724:	ffcf306f          	j	0x10f20
   1d728:	fa010113          	add	sp,sp,-96
   1d72c:	04912a23          	sw	s1,84(sp)
   1d730:	05212823          	sw	s2,80(sp)
   1d734:	05312623          	sw	s3,76(sp)
   1d738:	05412423          	sw	s4,72(sp)
   1d73c:	05512223          	sw	s5,68(sp)
   1d740:	04112e23          	sw	ra,92(sp)
   1d744:	03912a23          	sw	s9,52(sp)
   1d748:	03a12823          	sw	s10,48(sp)
   1d74c:	00a12623          	sw	a0,12(sp)
   1d750:	00058a13          	mv	s4,a1
   1d754:	00060a93          	mv	s5,a2
   1d758:	00070913          	mv	s2,a4
   1d75c:	00080993          	mv	s3,a6
   1d760:	00078493          	mv	s1,a5
   1d764:	12078063          	beqz	a5,0x1d884
   1d768:	000aac83          	lw	s9,0(s5)
   1d76c:	120a0263          	beqz	s4,0x1d890
   1d770:	14090e63          	beqz	s2,0x1d8cc
   1d774:	05612023          	sw	s6,64(sp)
   1d778:	fff68b13          	add	s6,a3,-1
   1d77c:	16068063          	beqz	a3,0x1d8dc
   1d780:	04812c23          	sw	s0,88(sp)
   1d784:	03b12623          	sw	s11,44(sp)
   1d788:	03712e23          	sw	s7,60(sp)
   1d78c:	03812c23          	sw	s8,56(sp)
   1d790:	000a0413          	mv	s0,s4
   1d794:	00000d13          	li	s10,0
   1d798:	fff00d93          	li	s11,-1
   1d79c:	0240006f          	j	0x1d7c0
   1d7a0:	080a1a63          	bnez	s4,0x1d834
   1d7a4:	000ca783          	lw	a5,0(s9)
   1d7a8:	004c8c93          	add	s9,s9,4
   1d7ac:	0c078263          	beqz	a5,0x1d870
   1d7b0:	1326f263          	bgeu	a3,s2,0x1d8d4
   1d7b4:	fffb0b13          	add	s6,s6,-1 # 0x7fffffff
   1d7b8:	00068d13          	mv	s10,a3
   1d7bc:	03bb0c63          	beq	s6,s11,0x1d7f4
   1d7c0:	0e09a783          	lw	a5,224(s3)
   1d7c4:	000ca603          	lw	a2,0(s9)
   1d7c8:	00c12503          	lw	a0,12(sp)
   1d7cc:	00048693          	mv	a3,s1
   1d7d0:	01410593          	add	a1,sp,20
   1d7d4:	0004ac03          	lw	s8,0(s1)
   1d7d8:	0044ab83          	lw	s7,4(s1)
   1d7dc:	000780e7          	jalr	a5
   1d7e0:	0bb50e63          	beq	a0,s11,0x1d89c
   1d7e4:	01a506b3          	add	a3,a0,s10
   1d7e8:	fad97ce3          	bgeu	s2,a3,0x1d7a0
   1d7ec:	0184a023          	sw	s8,0(s1)
   1d7f0:	0174a223          	sw	s7,4(s1)
   1d7f4:	05812403          	lw	s0,88(sp)
   1d7f8:	04012b03          	lw	s6,64(sp)
   1d7fc:	03c12b83          	lw	s7,60(sp)
   1d800:	03812c03          	lw	s8,56(sp)
   1d804:	02c12d83          	lw	s11,44(sp)
   1d808:	05c12083          	lw	ra,92(sp)
   1d80c:	05412483          	lw	s1,84(sp)
   1d810:	05012903          	lw	s2,80(sp)
   1d814:	04c12983          	lw	s3,76(sp)
   1d818:	04812a03          	lw	s4,72(sp)
   1d81c:	04412a83          	lw	s5,68(sp)
   1d820:	03412c83          	lw	s9,52(sp)
   1d824:	000d0513          	mv	a0,s10
   1d828:	03012d03          	lw	s10,48(sp)
   1d82c:	06010113          	add	sp,sp,96
   1d830:	00008067          	ret
   1d834:	08a05063          	blez	a0,0x1d8b4
   1d838:	01410893          	add	a7,sp,20
   1d83c:	00a40533          	add	a0,s0,a0
   1d840:	0008c783          	lbu	a5,0(a7)
   1d844:	00140413          	add	s0,s0,1
   1d848:	00188893          	add	a7,a7,1
   1d84c:	fef40fa3          	sb	a5,-1(s0)
   1d850:	fe8518e3          	bne	a0,s0,0x1d840
   1d854:	000aa783          	lw	a5,0(s5)
   1d858:	00050413          	mv	s0,a0
   1d85c:	00478793          	add	a5,a5,4
   1d860:	00faa023          	sw	a5,0(s5)
   1d864:	000ca783          	lw	a5,0(s9)
   1d868:	004c8c93          	add	s9,s9,4
   1d86c:	f40792e3          	bnez	a5,0x1d7b0
   1d870:	000a0463          	beqz	s4,0x1d878
   1d874:	000aa023          	sw	zero,0(s5)
   1d878:	0004a023          	sw	zero,0(s1)
   1d87c:	fff68d13          	add	s10,a3,-1
   1d880:	f75ff06f          	j	0x1d7f4
   1d884:	000aac83          	lw	s9,0(s5)
   1d888:	10c50493          	add	s1,a0,268
   1d88c:	ee0a12e3          	bnez	s4,0x1d770
   1d890:	05612023          	sw	s6,64(sp)
   1d894:	fff00913          	li	s2,-1
   1d898:	ee1ff06f          	j	0x1d778
   1d89c:	00c12703          	lw	a4,12(sp)
   1d8a0:	08a00793          	li	a5,138
   1d8a4:	fff00d13          	li	s10,-1
   1d8a8:	00f72023          	sw	a5,0(a4)
   1d8ac:	0004a023          	sw	zero,0(s1)
   1d8b0:	f45ff06f          	j	0x1d7f4
   1d8b4:	000aa783          	lw	a5,0(s5)
   1d8b8:	00040513          	mv	a0,s0
   1d8bc:	00050413          	mv	s0,a0
   1d8c0:	00478793          	add	a5,a5,4
   1d8c4:	00faa023          	sw	a5,0(s5)
   1d8c8:	f9dff06f          	j	0x1d864
   1d8cc:	00000d13          	li	s10,0
   1d8d0:	f39ff06f          	j	0x1d808
   1d8d4:	00068d13          	mv	s10,a3
   1d8d8:	f1dff06f          	j	0x1d7f4
   1d8dc:	04012b03          	lw	s6,64(sp)
   1d8e0:	00000d13          	li	s10,0
   1d8e4:	f25ff06f          	j	0x1d808
   1d8e8:	d3818813          	add	a6,gp,-712
   1d8ec:	f341a503          	lw	a0,-204(gp)
   1d8f0:	e39ff06f          	j	0x1d728
   1d8f4:	00070793          	mv	a5,a4
   1d8f8:	d3818813          	add	a6,gp,-712
   1d8fc:	00068713          	mv	a4,a3
   1d900:	00060693          	mv	a3,a2
   1d904:	00058613          	mv	a2,a1
   1d908:	00050593          	mv	a1,a0
   1d90c:	f341a503          	lw	a0,-204(gp)
   1d910:	e19ff06f          	j	0x1d728
   1d914:	fc010113          	add	sp,sp,-64
   1d918:	02c10313          	add	t1,sp,44
   1d91c:	02d12623          	sw	a3,44(sp)
   1d920:	00030693          	mv	a3,t1
   1d924:	00112e23          	sw	ra,28(sp)
   1d928:	02e12823          	sw	a4,48(sp)
   1d92c:	02f12a23          	sw	a5,52(sp)
   1d930:	03012c23          	sw	a6,56(sp)
   1d934:	03112e23          	sw	a7,60(sp)
   1d938:	00612623          	sw	t1,12(sp)
   1d93c:	bf0f70ef          	jal	0x14d2c
   1d940:	01c12083          	lw	ra,28(sp)
   1d944:	04010113          	add	sp,sp,64
   1d948:	00008067          	ret
   1d94c:	fc010113          	add	sp,sp,-64
   1d950:	02810313          	add	t1,sp,40
   1d954:	02c12423          	sw	a2,40(sp)
   1d958:	02d12623          	sw	a3,44(sp)
   1d95c:	00058613          	mv	a2,a1
   1d960:	00030693          	mv	a3,t1
   1d964:	00050593          	mv	a1,a0
   1d968:	f341a503          	lw	a0,-204(gp)
   1d96c:	00112e23          	sw	ra,28(sp)
   1d970:	02e12823          	sw	a4,48(sp)
   1d974:	02f12a23          	sw	a5,52(sp)
   1d978:	03012c23          	sw	a6,56(sp)
   1d97c:	03112e23          	sw	a7,60(sp)
   1d980:	00612623          	sw	t1,12(sp)
   1d984:	ba8f70ef          	jal	0x14d2c
   1d988:	01c12083          	lw	ra,28(sp)
   1d98c:	04010113          	add	sp,sp,64
   1d990:	00008067          	ret
   1d994:	ff010113          	add	sp,sp,-16
   1d998:	00600513          	li	a0,6
   1d99c:	00112623          	sw	ra,12(sp)
   1d9a0:	2a8000ef          	jal	0x1dc48
   1d9a4:	00100513          	li	a0,1
   1d9a8:	5e4000ef          	jal	0x1df8c
   1d9ac:	11852783          	lw	a5,280(a0)
   1d9b0:	00078663          	beqz	a5,0x1d9bc
   1d9b4:	00000513          	li	a0,0
   1d9b8:	00008067          	ret
   1d9bc:	ff010113          	add	sp,sp,-16
   1d9c0:	08000593          	li	a1,128
   1d9c4:	00812423          	sw	s0,8(sp)
   1d9c8:	00112623          	sw	ra,12(sp)
   1d9cc:	00050413          	mv	s0,a0
   1d9d0:	ca1f30ef          	jal	0x11670
   1d9d4:	10a42c23          	sw	a0,280(s0)
   1d9d8:	02050463          	beqz	a0,0x1da00
   1d9dc:	08050793          	add	a5,a0,128
   1d9e0:	00052023          	sw	zero,0(a0)
   1d9e4:	00450513          	add	a0,a0,4
   1d9e8:	fef51ce3          	bne	a0,a5,0x1d9e0
   1d9ec:	00000513          	li	a0,0
   1d9f0:	00c12083          	lw	ra,12(sp)
   1d9f4:	00812403          	lw	s0,8(sp)
   1d9f8:	01010113          	add	sp,sp,16
   1d9fc:	00008067          	ret
   1da00:	fff00513          	li	a0,-1
   1da04:	fedff06f          	j	0x1d9f0
   1da08:	fe010113          	add	sp,sp,-32
   1da0c:	00912a23          	sw	s1,20(sp)
   1da10:	00112e23          	sw	ra,28(sp)
   1da14:	01f00793          	li	a5,31
   1da18:	00050493          	mv	s1,a0
   1da1c:	02b7ec63          	bltu	a5,a1,0x1da54
   1da20:	11852783          	lw	a5,280(a0)
   1da24:	00812c23          	sw	s0,24(sp)
   1da28:	00058413          	mv	s0,a1
   1da2c:	02078c63          	beqz	a5,0x1da64
   1da30:	00241413          	sll	s0,s0,0x2
   1da34:	008787b3          	add	a5,a5,s0
   1da38:	01812403          	lw	s0,24(sp)
   1da3c:	0007a503          	lw	a0,0(a5)
   1da40:	00c7a023          	sw	a2,0(a5)
   1da44:	01c12083          	lw	ra,28(sp)
   1da48:	01412483          	lw	s1,20(sp)
   1da4c:	02010113          	add	sp,sp,32
   1da50:	00008067          	ret
   1da54:	01600793          	li	a5,22
   1da58:	00f52023          	sw	a5,0(a0)
   1da5c:	fff00513          	li	a0,-1
   1da60:	fe5ff06f          	j	0x1da44
   1da64:	08000593          	li	a1,128
   1da68:	00c12623          	sw	a2,12(sp)
   1da6c:	c05f30ef          	jal	0x11670
   1da70:	10a4ac23          	sw	a0,280(s1)
   1da74:	00c12603          	lw	a2,12(sp)
   1da78:	00050793          	mv	a5,a0
   1da7c:	00050713          	mv	a4,a0
   1da80:	08050693          	add	a3,a0,128
   1da84:	00050a63          	beqz	a0,0x1da98
   1da88:	00072023          	sw	zero,0(a4)
   1da8c:	00470713          	add	a4,a4,4
   1da90:	fed71ce3          	bne	a4,a3,0x1da88
   1da94:	f9dff06f          	j	0x1da30
   1da98:	01812403          	lw	s0,24(sp)
   1da9c:	fff00513          	li	a0,-1
   1daa0:	fa5ff06f          	j	0x1da44
   1daa4:	ff010113          	add	sp,sp,-16
   1daa8:	00912223          	sw	s1,4(sp)
   1daac:	00112623          	sw	ra,12(sp)
   1dab0:	01f00793          	li	a5,31
   1dab4:	00050493          	mv	s1,a0
   1dab8:	0ab7e063          	bltu	a5,a1,0x1db58
   1dabc:	11852783          	lw	a5,280(a0)
   1dac0:	00812423          	sw	s0,8(sp)
   1dac4:	00058413          	mv	s0,a1
   1dac8:	04078463          	beqz	a5,0x1db10
   1dacc:	00259713          	sll	a4,a1,0x2
   1dad0:	00e787b3          	add	a5,a5,a4
   1dad4:	0007a703          	lw	a4,0(a5)
   1dad8:	02070c63          	beqz	a4,0x1db10
   1dadc:	00100693          	li	a3,1
   1dae0:	00d70c63          	beq	a4,a3,0x1daf8
   1dae4:	fff00693          	li	a3,-1
   1dae8:	04d70863          	beq	a4,a3,0x1db38
   1daec:	0007a023          	sw	zero,0(a5)
   1daf0:	00058513          	mv	a0,a1
   1daf4:	000700e7          	jalr	a4
   1daf8:	00812403          	lw	s0,8(sp)
   1dafc:	00000513          	li	a0,0
   1db00:	00c12083          	lw	ra,12(sp)
   1db04:	00412483          	lw	s1,4(sp)
   1db08:	01010113          	add	sp,sp,16
   1db0c:	00008067          	ret
   1db10:	00048513          	mv	a0,s1
   1db14:	430000ef          	jal	0x1df44
   1db18:	00040613          	mv	a2,s0
   1db1c:	00812403          	lw	s0,8(sp)
   1db20:	00c12083          	lw	ra,12(sp)
   1db24:	00050593          	mv	a1,a0
   1db28:	00048513          	mv	a0,s1
   1db2c:	00412483          	lw	s1,4(sp)
   1db30:	01010113          	add	sp,sp,16
   1db34:	3b80006f          	j	0x1deec
   1db38:	00812403          	lw	s0,8(sp)
   1db3c:	00c12083          	lw	ra,12(sp)
   1db40:	01600793          	li	a5,22
   1db44:	00f52023          	sw	a5,0(a0)
   1db48:	00412483          	lw	s1,4(sp)
   1db4c:	00100513          	li	a0,1
   1db50:	01010113          	add	sp,sp,16
   1db54:	00008067          	ret
   1db58:	01600793          	li	a5,22
   1db5c:	00f52023          	sw	a5,0(a0)
   1db60:	fff00513          	li	a0,-1
   1db64:	f9dff06f          	j	0x1db00
   1db68:	01f00793          	li	a5,31
   1db6c:	0cb7ea63          	bltu	a5,a1,0x1dc40
   1db70:	11852783          	lw	a5,280(a0)
   1db74:	ff010113          	add	sp,sp,-16
   1db78:	00812423          	sw	s0,8(sp)
   1db7c:	00912223          	sw	s1,4(sp)
   1db80:	00112623          	sw	ra,12(sp)
   1db84:	00058413          	mv	s0,a1
   1db88:	00050493          	mv	s1,a0
   1db8c:	08078063          	beqz	a5,0x1dc0c
   1db90:	00241713          	sll	a4,s0,0x2
   1db94:	00e787b3          	add	a5,a5,a4
   1db98:	0007a703          	lw	a4,0(a5)
   1db9c:	02070c63          	beqz	a4,0x1dbd4
   1dba0:	fff00693          	li	a3,-1
   1dba4:	06d70063          	beq	a4,a3,0x1dc04
   1dba8:	00100693          	li	a3,1
   1dbac:	04d70063          	beq	a4,a3,0x1dbec
   1dbb0:	00040513          	mv	a0,s0
   1dbb4:	0007a023          	sw	zero,0(a5)
   1dbb8:	000700e7          	jalr	a4
   1dbbc:	00000513          	li	a0,0
   1dbc0:	00c12083          	lw	ra,12(sp)
   1dbc4:	00812403          	lw	s0,8(sp)
   1dbc8:	00412483          	lw	s1,4(sp)
   1dbcc:	01010113          	add	sp,sp,16
   1dbd0:	00008067          	ret
   1dbd4:	00c12083          	lw	ra,12(sp)
   1dbd8:	00812403          	lw	s0,8(sp)
   1dbdc:	00412483          	lw	s1,4(sp)
   1dbe0:	00100513          	li	a0,1
   1dbe4:	01010113          	add	sp,sp,16
   1dbe8:	00008067          	ret
   1dbec:	00c12083          	lw	ra,12(sp)
   1dbf0:	00812403          	lw	s0,8(sp)
   1dbf4:	00412483          	lw	s1,4(sp)
   1dbf8:	00300513          	li	a0,3
   1dbfc:	01010113          	add	sp,sp,16
   1dc00:	00008067          	ret
   1dc04:	00200513          	li	a0,2
   1dc08:	fb9ff06f          	j	0x1dbc0
   1dc0c:	08000593          	li	a1,128
   1dc10:	a61f30ef          	jal	0x11670
   1dc14:	10a4ac23          	sw	a0,280(s1)
   1dc18:	00050793          	mv	a5,a0
   1dc1c:	00050e63          	beqz	a0,0x1dc38
   1dc20:	00050713          	mv	a4,a0
   1dc24:	08050693          	add	a3,a0,128
   1dc28:	00072023          	sw	zero,0(a4)
   1dc2c:	00470713          	add	a4,a4,4
   1dc30:	fed71ce3          	bne	a4,a3,0x1dc28
   1dc34:	f5dff06f          	j	0x1db90
   1dc38:	fff00513          	li	a0,-1
   1dc3c:	f85ff06f          	j	0x1dbc0
   1dc40:	fff00513          	li	a0,-1
   1dc44:	00008067          	ret
   1dc48:	ff010113          	add	sp,sp,-16
   1dc4c:	00912223          	sw	s1,4(sp)
   1dc50:	00112623          	sw	ra,12(sp)
   1dc54:	01f00793          	li	a5,31
   1dc58:	f341a483          	lw	s1,-204(gp)
   1dc5c:	08a7ee63          	bltu	a5,a0,0x1dcf8
   1dc60:	1184a783          	lw	a5,280(s1)
   1dc64:	00812423          	sw	s0,8(sp)
   1dc68:	00050413          	mv	s0,a0
   1dc6c:	04078263          	beqz	a5,0x1dcb0
   1dc70:	00251713          	sll	a4,a0,0x2
   1dc74:	00e787b3          	add	a5,a5,a4
   1dc78:	0007a703          	lw	a4,0(a5)
   1dc7c:	02070a63          	beqz	a4,0x1dcb0
   1dc80:	00100693          	li	a3,1
   1dc84:	00d70a63          	beq	a4,a3,0x1dc98
   1dc88:	fff00693          	li	a3,-1
   1dc8c:	04d70663          	beq	a4,a3,0x1dcd8
   1dc90:	0007a023          	sw	zero,0(a5)
   1dc94:	000700e7          	jalr	a4
   1dc98:	00812403          	lw	s0,8(sp)
   1dc9c:	00000513          	li	a0,0
   1dca0:	00c12083          	lw	ra,12(sp)
   1dca4:	00412483          	lw	s1,4(sp)
   1dca8:	01010113          	add	sp,sp,16
   1dcac:	00008067          	ret
   1dcb0:	00048513          	mv	a0,s1
   1dcb4:	290000ef          	jal	0x1df44
   1dcb8:	00040613          	mv	a2,s0
   1dcbc:	00812403          	lw	s0,8(sp)
   1dcc0:	00c12083          	lw	ra,12(sp)
   1dcc4:	00050593          	mv	a1,a0
   1dcc8:	00048513          	mv	a0,s1
   1dccc:	00412483          	lw	s1,4(sp)
   1dcd0:	01010113          	add	sp,sp,16
   1dcd4:	2180006f          	j	0x1deec
   1dcd8:	00812403          	lw	s0,8(sp)
   1dcdc:	00c12083          	lw	ra,12(sp)
   1dce0:	01600793          	li	a5,22
   1dce4:	00f4a023          	sw	a5,0(s1)
   1dce8:	00100513          	li	a0,1
   1dcec:	00412483          	lw	s1,4(sp)
   1dcf0:	01010113          	add	sp,sp,16
   1dcf4:	00008067          	ret
   1dcf8:	01600793          	li	a5,22
   1dcfc:	00f4a023          	sw	a5,0(s1)
   1dd00:	fff00513          	li	a0,-1
   1dd04:	f9dff06f          	j	0x1dca0
   1dd08:	ff010113          	add	sp,sp,-16
   1dd0c:	01212023          	sw	s2,0(sp)
   1dd10:	00112623          	sw	ra,12(sp)
   1dd14:	01f00793          	li	a5,31
   1dd18:	f341a903          	lw	s2,-204(gp)
   1dd1c:	04a7e263          	bltu	a5,a0,0x1dd60
   1dd20:	00812423          	sw	s0,8(sp)
   1dd24:	00050413          	mv	s0,a0
   1dd28:	11892503          	lw	a0,280(s2)
   1dd2c:	00912223          	sw	s1,4(sp)
   1dd30:	00058493          	mv	s1,a1
   1dd34:	02050e63          	beqz	a0,0x1dd70
   1dd38:	00241413          	sll	s0,s0,0x2
   1dd3c:	008507b3          	add	a5,a0,s0
   1dd40:	0007a503          	lw	a0,0(a5)
   1dd44:	00812403          	lw	s0,8(sp)
   1dd48:	0097a023          	sw	s1,0(a5)
   1dd4c:	00412483          	lw	s1,4(sp)
   1dd50:	00c12083          	lw	ra,12(sp)
   1dd54:	00012903          	lw	s2,0(sp)
   1dd58:	01010113          	add	sp,sp,16
   1dd5c:	00008067          	ret
   1dd60:	01600793          	li	a5,22
   1dd64:	00f92023          	sw	a5,0(s2)
   1dd68:	fff00513          	li	a0,-1
   1dd6c:	fe5ff06f          	j	0x1dd50
   1dd70:	08000593          	li	a1,128
   1dd74:	00090513          	mv	a0,s2
   1dd78:	8f9f30ef          	jal	0x11670
   1dd7c:	10a92c23          	sw	a0,280(s2)
   1dd80:	00050793          	mv	a5,a0
   1dd84:	08050713          	add	a4,a0,128
   1dd88:	00050a63          	beqz	a0,0x1dd9c
   1dd8c:	0007a023          	sw	zero,0(a5)
   1dd90:	00478793          	add	a5,a5,4
   1dd94:	fef71ce3          	bne	a4,a5,0x1dd8c
   1dd98:	fa1ff06f          	j	0x1dd38
   1dd9c:	00812403          	lw	s0,8(sp)
   1dda0:	00412483          	lw	s1,4(sp)
   1dda4:	fff00513          	li	a0,-1
   1dda8:	fa9ff06f          	j	0x1dd50
   1ddac:	ff010113          	add	sp,sp,-16
   1ddb0:	00812423          	sw	s0,8(sp)
   1ddb4:	f341a403          	lw	s0,-204(gp)
   1ddb8:	11842783          	lw	a5,280(s0)
   1ddbc:	00112623          	sw	ra,12(sp)
   1ddc0:	00078c63          	beqz	a5,0x1ddd8
   1ddc4:	00000513          	li	a0,0
   1ddc8:	00c12083          	lw	ra,12(sp)
   1ddcc:	00812403          	lw	s0,8(sp)
   1ddd0:	01010113          	add	sp,sp,16
   1ddd4:	00008067          	ret
   1ddd8:	08000593          	li	a1,128
   1dddc:	00040513          	mv	a0,s0
   1dde0:	891f30ef          	jal	0x11670
   1dde4:	10a42c23          	sw	a0,280(s0)
   1dde8:	00050c63          	beqz	a0,0x1de00
   1ddec:	08050793          	add	a5,a0,128
   1ddf0:	00052023          	sw	zero,0(a0)
   1ddf4:	00450513          	add	a0,a0,4
   1ddf8:	fef51ce3          	bne	a0,a5,0x1ddf0
   1ddfc:	fc9ff06f          	j	0x1ddc4
   1de00:	fff00513          	li	a0,-1
   1de04:	fc5ff06f          	j	0x1ddc8
   1de08:	ff010113          	add	sp,sp,-16
   1de0c:	00912223          	sw	s1,4(sp)
   1de10:	00112623          	sw	ra,12(sp)
   1de14:	01f00793          	li	a5,31
   1de18:	f341a483          	lw	s1,-204(gp)
   1de1c:	0ca7e463          	bltu	a5,a0,0x1dee4
   1de20:	1184a783          	lw	a5,280(s1)
   1de24:	00812423          	sw	s0,8(sp)
   1de28:	00050413          	mv	s0,a0
   1de2c:	08078263          	beqz	a5,0x1deb0
   1de30:	00241713          	sll	a4,s0,0x2
   1de34:	00e787b3          	add	a5,a5,a4
   1de38:	0007a703          	lw	a4,0(a5)
   1de3c:	02070c63          	beqz	a4,0x1de74
   1de40:	fff00693          	li	a3,-1
   1de44:	06d70063          	beq	a4,a3,0x1dea4
   1de48:	00100693          	li	a3,1
   1de4c:	04d70063          	beq	a4,a3,0x1de8c
   1de50:	00040513          	mv	a0,s0
   1de54:	0007a023          	sw	zero,0(a5)
   1de58:	000700e7          	jalr	a4
   1de5c:	00812403          	lw	s0,8(sp)
   1de60:	00000513          	li	a0,0
   1de64:	00c12083          	lw	ra,12(sp)
   1de68:	00412483          	lw	s1,4(sp)
   1de6c:	01010113          	add	sp,sp,16
   1de70:	00008067          	ret
   1de74:	00812403          	lw	s0,8(sp)
   1de78:	00c12083          	lw	ra,12(sp)
   1de7c:	00412483          	lw	s1,4(sp)
   1de80:	00100513          	li	a0,1
   1de84:	01010113          	add	sp,sp,16
   1de88:	00008067          	ret
   1de8c:	00812403          	lw	s0,8(sp)
   1de90:	00c12083          	lw	ra,12(sp)
   1de94:	00412483          	lw	s1,4(sp)
   1de98:	00300513          	li	a0,3
   1de9c:	01010113          	add	sp,sp,16
   1dea0:	00008067          	ret
   1dea4:	00812403          	lw	s0,8(sp)
   1dea8:	00200513          	li	a0,2
   1deac:	fb9ff06f          	j	0x1de64
   1deb0:	08000593          	li	a1,128
   1deb4:	00048513          	mv	a0,s1
   1deb8:	fb8f30ef          	jal	0x11670
   1debc:	10a4ac23          	sw	a0,280(s1)
   1dec0:	00050793          	mv	a5,a0
   1dec4:	00050e63          	beqz	a0,0x1dee0
   1dec8:	00050713          	mv	a4,a0
   1decc:	08050693          	add	a3,a0,128
   1ded0:	00072023          	sw	zero,0(a4)
   1ded4:	00470713          	add	a4,a4,4
   1ded8:	fee69ce3          	bne	a3,a4,0x1ded0
   1dedc:	f55ff06f          	j	0x1de30
   1dee0:	00812403          	lw	s0,8(sp)
   1dee4:	fff00513          	li	a0,-1
   1dee8:	f7dff06f          	j	0x1de64
   1deec:	ff010113          	add	sp,sp,-16
   1def0:	00058713          	mv	a4,a1
   1def4:	00812423          	sw	s0,8(sp)
   1def8:	00060593          	mv	a1,a2
   1defc:	00050413          	mv	s0,a0
   1df00:	00070513          	mv	a0,a4
   1df04:	f401a823          	sw	zero,-176(gp)
   1df08:	00112623          	sw	ra,12(sp)
   1df0c:	158000ef          	jal	0x1e064
   1df10:	fff00793          	li	a5,-1
   1df14:	00f50a63          	beq	a0,a5,0x1df28
   1df18:	00c12083          	lw	ra,12(sp)
   1df1c:	00812403          	lw	s0,8(sp)
   1df20:	01010113          	add	sp,sp,16
   1df24:	00008067          	ret
   1df28:	f501a783          	lw	a5,-176(gp)
   1df2c:	fe0786e3          	beqz	a5,0x1df18
   1df30:	00c12083          	lw	ra,12(sp)
   1df34:	00f42023          	sw	a5,0(s0)
   1df38:	00812403          	lw	s0,8(sp)
   1df3c:	01010113          	add	sp,sp,16
   1df40:	00008067          	ret
   1df44:	0d80006f          	j	0x1e01c
   1df48:	ff010113          	add	sp,sp,-16
   1df4c:	00112623          	sw	ra,12(sp)
   1df50:	00812423          	sw	s0,8(sp)
   1df54:	03900893          	li	a7,57
   1df58:	00000073          	ecall
   1df5c:	00050413          	mv	s0,a0
   1df60:	00054c63          	bltz	a0,0x1df78
   1df64:	00c12083          	lw	ra,12(sp)
   1df68:	00040513          	mv	a0,s0
   1df6c:	00812403          	lw	s0,8(sp)
   1df70:	01010113          	add	sp,sp,16
   1df74:	00008067          	ret
   1df78:	40800433          	neg	s0,s0
   1df7c:	d70ff0ef          	jal	0x1d4ec
   1df80:	00852023          	sw	s0,0(a0)
   1df84:	fff00413          	li	s0,-1
   1df88:	fddff06f          	j	0x1df64
   1df8c:	05d00893          	li	a7,93
   1df90:	00000073          	ecall
   1df94:	00054463          	bltz	a0,0x1df9c
   1df98:	0000006f          	j	0x1df98
   1df9c:	ff010113          	add	sp,sp,-16
   1dfa0:	00812423          	sw	s0,8(sp)
   1dfa4:	00050413          	mv	s0,a0
   1dfa8:	00112623          	sw	ra,12(sp)
   1dfac:	40800433          	neg	s0,s0
   1dfb0:	d3cff0ef          	jal	0x1d4ec
   1dfb4:	00852023          	sw	s0,0(a0)
   1dfb8:	0000006f          	j	0x1dfb8
   1dfbc:	f7010113          	add	sp,sp,-144
   1dfc0:	08912223          	sw	s1,132(sp)
   1dfc4:	08112623          	sw	ra,140(sp)
   1dfc8:	00058493          	mv	s1,a1
   1dfcc:	08812423          	sw	s0,136(sp)
   1dfd0:	05000893          	li	a7,80
   1dfd4:	00010593          	mv	a1,sp
   1dfd8:	00000073          	ecall
   1dfdc:	00050413          	mv	s0,a0
   1dfe0:	02054463          	bltz	a0,0x1e008
   1dfe4:	00048513          	mv	a0,s1
   1dfe8:	00010593          	mv	a1,sp
   1dfec:	1e4000ef          	jal	0x1e1d0
   1dff0:	08c12083          	lw	ra,140(sp)
   1dff4:	00040513          	mv	a0,s0
   1dff8:	08812403          	lw	s0,136(sp)
   1dffc:	08412483          	lw	s1,132(sp)
   1e000:	09010113          	add	sp,sp,144
   1e004:	00008067          	ret
   1e008:	40800433          	neg	s0,s0
   1e00c:	ce0ff0ef          	jal	0x1d4ec
   1e010:	00852023          	sw	s0,0(a0)
   1e014:	fff00413          	li	s0,-1
   1e018:	fcdff06f          	j	0x1dfe4
   1e01c:	00100513          	li	a0,1
   1e020:	00008067          	ret
   1e024:	f9010113          	add	sp,sp,-112
   1e028:	00810593          	add	a1,sp,8
   1e02c:	06112623          	sw	ra,108(sp)
   1e030:	f8dff0ef          	jal	0x1dfbc
   1e034:	fff00793          	li	a5,-1
   1e038:	00f50e63          	beq	a0,a5,0x1e054
   1e03c:	00c12503          	lw	a0,12(sp)
   1e040:	06c12083          	lw	ra,108(sp)
   1e044:	00d55513          	srl	a0,a0,0xd
   1e048:	00157513          	and	a0,a0,1
   1e04c:	07010113          	add	sp,sp,112
   1e050:	00008067          	ret
   1e054:	06c12083          	lw	ra,108(sp)
   1e058:	00000513          	li	a0,0
   1e05c:	07010113          	add	sp,sp,112
   1e060:	00008067          	ret
   1e064:	ff010113          	add	sp,sp,-16
   1e068:	00112623          	sw	ra,12(sp)
   1e06c:	c80ff0ef          	jal	0x1d4ec
   1e070:	00c12083          	lw	ra,12(sp)
   1e074:	01600793          	li	a5,22
   1e078:	00f52023          	sw	a5,0(a0)
   1e07c:	fff00513          	li	a0,-1
   1e080:	01010113          	add	sp,sp,16
   1e084:	00008067          	ret
   1e088:	ff010113          	add	sp,sp,-16
   1e08c:	00112623          	sw	ra,12(sp)
   1e090:	00812423          	sw	s0,8(sp)
   1e094:	03e00893          	li	a7,62
   1e098:	00000073          	ecall
   1e09c:	00050413          	mv	s0,a0
   1e0a0:	00054c63          	bltz	a0,0x1e0b8
   1e0a4:	00c12083          	lw	ra,12(sp)
   1e0a8:	00040513          	mv	a0,s0
   1e0ac:	00812403          	lw	s0,8(sp)
   1e0b0:	01010113          	add	sp,sp,16
   1e0b4:	00008067          	ret
   1e0b8:	40800433          	neg	s0,s0
   1e0bc:	c30ff0ef          	jal	0x1d4ec
   1e0c0:	00852023          	sw	s0,0(a0)
   1e0c4:	fff00413          	li	s0,-1
   1e0c8:	fddff06f          	j	0x1e0a4
   1e0cc:	ff010113          	add	sp,sp,-16
   1e0d0:	00112623          	sw	ra,12(sp)
   1e0d4:	00812423          	sw	s0,8(sp)
   1e0d8:	03f00893          	li	a7,63
   1e0dc:	00000073          	ecall
   1e0e0:	00050413          	mv	s0,a0
   1e0e4:	00054c63          	bltz	a0,0x1e0fc
   1e0e8:	00c12083          	lw	ra,12(sp)
   1e0ec:	00040513          	mv	a0,s0
   1e0f0:	00812403          	lw	s0,8(sp)
   1e0f4:	01010113          	add	sp,sp,16
   1e0f8:	00008067          	ret
   1e0fc:	40800433          	neg	s0,s0
   1e100:	becff0ef          	jal	0x1d4ec
   1e104:	00852023          	sw	s0,0(a0)
   1e108:	fff00413          	li	s0,-1
   1e10c:	fddff06f          	j	0x1e0e8
   1e110:	f8c18693          	add	a3,gp,-116
   1e114:	0006a703          	lw	a4,0(a3)
   1e118:	ff010113          	add	sp,sp,-16
   1e11c:	00112623          	sw	ra,12(sp)
   1e120:	00050793          	mv	a5,a0
   1e124:	02071063          	bnez	a4,0x1e144
   1e128:	0d600893          	li	a7,214
   1e12c:	00000513          	li	a0,0
   1e130:	00000073          	ecall
   1e134:	fff00613          	li	a2,-1
   1e138:	00050713          	mv	a4,a0
   1e13c:	02c50a63          	beq	a0,a2,0x1e170
   1e140:	00a6a023          	sw	a0,0(a3)
   1e144:	0d600893          	li	a7,214
   1e148:	00e78533          	add	a0,a5,a4
   1e14c:	00000073          	ecall
   1e150:	0006a703          	lw	a4,0(a3)
   1e154:	00e787b3          	add	a5,a5,a4
   1e158:	00f51c63          	bne	a0,a5,0x1e170
   1e15c:	00c12083          	lw	ra,12(sp)
   1e160:	00a6a023          	sw	a0,0(a3)
   1e164:	00070513          	mv	a0,a4
   1e168:	01010113          	add	sp,sp,16
   1e16c:	00008067          	ret
   1e170:	b7cff0ef          	jal	0x1d4ec
   1e174:	00c12083          	lw	ra,12(sp)
   1e178:	00c00793          	li	a5,12
   1e17c:	00f52023          	sw	a5,0(a0)
   1e180:	fff00513          	li	a0,-1
   1e184:	01010113          	add	sp,sp,16
   1e188:	00008067          	ret
   1e18c:	ff010113          	add	sp,sp,-16
   1e190:	00112623          	sw	ra,12(sp)
   1e194:	00812423          	sw	s0,8(sp)
   1e198:	04000893          	li	a7,64
   1e19c:	00000073          	ecall
   1e1a0:	00050413          	mv	s0,a0
   1e1a4:	00054c63          	bltz	a0,0x1e1bc
   1e1a8:	00c12083          	lw	ra,12(sp)
   1e1ac:	00040513          	mv	a0,s0
   1e1b0:	00812403          	lw	s0,8(sp)
   1e1b4:	01010113          	add	sp,sp,16
   1e1b8:	00008067          	ret
   1e1bc:	40800433          	neg	s0,s0
   1e1c0:	b2cff0ef          	jal	0x1d4ec
   1e1c4:	00852023          	sw	s0,0(a0)
   1e1c8:	fff00413          	li	s0,-1
   1e1cc:	fddff06f          	j	0x1e1a8
   1e1d0:	0185d703          	lhu	a4,24(a1)
   1e1d4:	0145d783          	lhu	a5,20(a1)
   1e1d8:	ff010113          	add	sp,sp,-16
   1e1dc:	01c5a283          	lw	t0,28(a1)
   1e1e0:	0205af83          	lw	t6,32(a1)
   1e1e4:	0305af03          	lw	t5,48(a1)
   1e1e8:	0405ae83          	lw	t4,64(a1)
   1e1ec:	0385ae03          	lw	t3,56(a1)
   1e1f0:	0485a303          	lw	t1,72(a1)
   1e1f4:	04c5a383          	lw	t2,76(a1)
   1e1f8:	0585a803          	lw	a6,88(a1)
   1e1fc:	05c5a883          	lw	a7,92(a1)
   1e200:	00812623          	sw	s0,12(sp)
   1e204:	00912423          	sw	s1,8(sp)
   1e208:	0105a403          	lw	s0,16(a1)
   1e20c:	0085a483          	lw	s1,8(a1)
   1e210:	01212223          	sw	s2,4(sp)
   1e214:	0005a903          	lw	s2,0(a1)
   1e218:	0685a603          	lw	a2,104(a1)
   1e21c:	01071713          	sll	a4,a4,0x10
   1e220:	00e7e7b3          	or	a5,a5,a4
   1e224:	06c5a683          	lw	a3,108(a1)
   1e228:	01251023          	sh	s2,0(a0)
   1e22c:	00951123          	sh	s1,2(a0)
   1e230:	00852223          	sw	s0,4(a0)
   1e234:	00f52423          	sw	a5,8(a0)
   1e238:	00551623          	sh	t0,12(a0)
   1e23c:	01f51723          	sh	t6,14(a0)
   1e240:	01e52823          	sw	t5,16(a0)
   1e244:	05d52623          	sw	t4,76(a0)
   1e248:	05c52423          	sw	t3,72(a0)
   1e24c:	00652c23          	sw	t1,24(a0)
   1e250:	00752e23          	sw	t2,28(a0)
   1e254:	03052423          	sw	a6,40(a0)
   1e258:	03152623          	sw	a7,44(a0)
   1e25c:	02c52c23          	sw	a2,56(a0)
   1e260:	00c12403          	lw	s0,12(sp)
   1e264:	02d52e23          	sw	a3,60(a0)
   1e268:	00812483          	lw	s1,8(sp)
   1e26c:	00412903          	lw	s2,4(sp)
   1e270:	01010113          	add	sp,sp,16
   1e274:	00008067          	ret
   1e278:	fd010113          	add	sp,sp,-48
   1e27c:	01312e23          	sw	s3,28(sp)
   1e280:	02112623          	sw	ra,44(sp)
   1e284:	01612823          	sw	s6,16(sp)
   1e288:	00050993          	mv	s3,a0
   1e28c:	16069663          	bnez	a3,0x1e3f8
   1e290:	02812423          	sw	s0,40(sp)
   1e294:	01512a23          	sw	s5,20(sp)
   1e298:	02912223          	sw	s1,36(sp)
   1e29c:	03212023          	sw	s2,32(sp)
   1e2a0:	01412c23          	sw	s4,24(sp)
   1e2a4:	00060a93          	mv	s5,a2
   1e2a8:	00050413          	mv	s0,a0
   1e2ac:	1cc5f063          	bgeu	a1,a2,0x1e46c
   1e2b0:	000107b7          	lui	a5,0x10
   1e2b4:	00058493          	mv	s1,a1
   1e2b8:	2af66e63          	bltu	a2,a5,0x1e574
   1e2bc:	010007b7          	lui	a5,0x1000
   1e2c0:	01800713          	li	a4,24
   1e2c4:	00f67463          	bgeu	a2,a5,0x1e2cc
   1e2c8:	01000713          	li	a4,16
   1e2cc:	00e656b3          	srl	a3,a2,a4
   1e2d0:	00004797          	auipc	a5,0x4
   1e2d4:	65c78793          	add	a5,a5,1628 # 0x2292c
   1e2d8:	00d787b3          	add	a5,a5,a3
   1e2dc:	0007c783          	lbu	a5,0(a5)
   1e2e0:	02000693          	li	a3,32
   1e2e4:	00e787b3          	add	a5,a5,a4
   1e2e8:	40f68733          	sub	a4,a3,a5
   1e2ec:	00f68c63          	beq	a3,a5,0x1e304
   1e2f0:	00e594b3          	sll	s1,a1,a4
   1e2f4:	00f9d7b3          	srl	a5,s3,a5
   1e2f8:	00e61ab3          	sll	s5,a2,a4
   1e2fc:	0097e4b3          	or	s1,a5,s1
   1e300:	00e99433          	sll	s0,s3,a4
   1e304:	010ada13          	srl	s4,s5,0x10
   1e308:	000a0593          	mv	a1,s4
   1e30c:	00048513          	mv	a0,s1
   1e310:	010a9b13          	sll	s6,s5,0x10
   1e314:	764030ef          	jal	0x21a78
   1e318:	010b5b13          	srl	s6,s6,0x10
   1e31c:	00050593          	mv	a1,a0
   1e320:	00050913          	mv	s2,a0
   1e324:	000b0513          	mv	a0,s6
   1e328:	724030ef          	jal	0x21a4c
   1e32c:	00050793          	mv	a5,a0
   1e330:	000a0593          	mv	a1,s4
   1e334:	00048513          	mv	a0,s1
   1e338:	00078493          	mv	s1,a5
   1e33c:	784030ef          	jal	0x21ac0
   1e340:	01051513          	sll	a0,a0,0x10
   1e344:	01045793          	srl	a5,s0,0x10
   1e348:	00a7e7b3          	or	a5,a5,a0
   1e34c:	0097fc63          	bgeu	a5,s1,0x1e364
   1e350:	00fa87b3          	add	a5,s5,a5
   1e354:	fff90713          	add	a4,s2,-1
   1e358:	0157e463          	bltu	a5,s5,0x1e360
   1e35c:	5a97e863          	bltu	a5,s1,0x1e90c
   1e360:	00070913          	mv	s2,a4
   1e364:	409784b3          	sub	s1,a5,s1
   1e368:	000a0593          	mv	a1,s4
   1e36c:	00048513          	mv	a0,s1
   1e370:	708030ef          	jal	0x21a78
   1e374:	00050593          	mv	a1,a0
   1e378:	00050993          	mv	s3,a0
   1e37c:	000b0513          	mv	a0,s6
   1e380:	6cc030ef          	jal	0x21a4c
   1e384:	00050793          	mv	a5,a0
   1e388:	000a0593          	mv	a1,s4
   1e38c:	00048513          	mv	a0,s1
   1e390:	01041413          	sll	s0,s0,0x10
   1e394:	00078493          	mv	s1,a5
   1e398:	728030ef          	jal	0x21ac0
   1e39c:	01051513          	sll	a0,a0,0x10
   1e3a0:	01045413          	srl	s0,s0,0x10
   1e3a4:	00a46433          	or	s0,s0,a0
   1e3a8:	00947c63          	bgeu	s0,s1,0x1e3c0
   1e3ac:	008a8433          	add	s0,s5,s0
   1e3b0:	fff98793          	add	a5,s3,-1
   1e3b4:	4d546e63          	bltu	s0,s5,0x1e890
   1e3b8:	ffe98993          	add	s3,s3,-2
   1e3bc:	4c947a63          	bgeu	s0,s1,0x1e890
   1e3c0:	01091613          	sll	a2,s2,0x10
   1e3c4:	01366533          	or	a0,a2,s3
   1e3c8:	00000b13          	li	s6,0
   1e3cc:	02812403          	lw	s0,40(sp)
   1e3d0:	02c12083          	lw	ra,44(sp)
   1e3d4:	02412483          	lw	s1,36(sp)
   1e3d8:	02012903          	lw	s2,32(sp)
   1e3dc:	01812a03          	lw	s4,24(sp)
   1e3e0:	01412a83          	lw	s5,20(sp)
   1e3e4:	01c12983          	lw	s3,28(sp)
   1e3e8:	000b0593          	mv	a1,s6
   1e3ec:	01012b03          	lw	s6,16(sp)
   1e3f0:	03010113          	add	sp,sp,48
   1e3f4:	00008067          	ret
   1e3f8:	02d5f263          	bgeu	a1,a3,0x1e41c
   1e3fc:	00000b13          	li	s6,0
   1e400:	00000513          	li	a0,0
   1e404:	02c12083          	lw	ra,44(sp)
   1e408:	01c12983          	lw	s3,28(sp)
   1e40c:	000b0593          	mv	a1,s6
   1e410:	01012b03          	lw	s6,16(sp)
   1e414:	03010113          	add	sp,sp,48
   1e418:	00008067          	ret
   1e41c:	000107b7          	lui	a5,0x10
   1e420:	26f6ee63          	bltu	a3,a5,0x1e69c
   1e424:	01000737          	lui	a4,0x1000
   1e428:	01800793          	li	a5,24
   1e42c:	00e6f463          	bgeu	a3,a4,0x1e434
   1e430:	01000793          	li	a5,16
   1e434:	00f6d533          	srl	a0,a3,a5
   1e438:	00004717          	auipc	a4,0x4
   1e43c:	4f470713          	add	a4,a4,1268 # 0x2292c
   1e440:	00a70733          	add	a4,a4,a0
   1e444:	00074703          	lbu	a4,0(a4)
   1e448:	02000513          	li	a0,32
   1e44c:	00f70733          	add	a4,a4,a5
   1e450:	40e50b33          	sub	s6,a0,a4
   1e454:	26e51c63          	bne	a0,a4,0x1e6cc
   1e458:	46b6ee63          	bltu	a3,a1,0x1e8d4
   1e45c:	00c9b533          	sltu	a0,s3,a2
   1e460:	00153513          	seqz	a0,a0
   1e464:	00000b13          	li	s6,0
   1e468:	f9dff06f          	j	0x1e404
   1e46c:	10060c63          	beqz	a2,0x1e584
   1e470:	000107b7          	lui	a5,0x10
   1e474:	44f67663          	bgeu	a2,a5,0x1e8c0
   1e478:	10063713          	sltiu	a4,a2,256
   1e47c:	00173713          	seqz	a4,a4
   1e480:	00371713          	sll	a4,a4,0x3
   1e484:	00e656b3          	srl	a3,a2,a4
   1e488:	00004797          	auipc	a5,0x4
   1e48c:	4a478793          	add	a5,a5,1188 # 0x2292c
   1e490:	00d787b3          	add	a5,a5,a3
   1e494:	0007c483          	lbu	s1,0(a5)
   1e498:	02000793          	li	a5,32
   1e49c:	00e484b3          	add	s1,s1,a4
   1e4a0:	40978733          	sub	a4,a5,s1
   1e4a4:	10979463          	bne	a5,s1,0x1e5ac
   1e4a8:	01061a13          	sll	s4,a2,0x10
   1e4ac:	40c584b3          	sub	s1,a1,a2
   1e4b0:	01065913          	srl	s2,a2,0x10
   1e4b4:	010a5a13          	srl	s4,s4,0x10
   1e4b8:	00100b13          	li	s6,1
   1e4bc:	00090593          	mv	a1,s2
   1e4c0:	00048513          	mv	a0,s1
   1e4c4:	5b4030ef          	jal	0x21a78
   1e4c8:	000a0593          	mv	a1,s4
   1e4cc:	00050993          	mv	s3,a0
   1e4d0:	57c030ef          	jal	0x21a4c
   1e4d4:	00050793          	mv	a5,a0
   1e4d8:	00090593          	mv	a1,s2
   1e4dc:	00048513          	mv	a0,s1
   1e4e0:	00078493          	mv	s1,a5
   1e4e4:	5dc030ef          	jal	0x21ac0
   1e4e8:	01051513          	sll	a0,a0,0x10
   1e4ec:	01045793          	srl	a5,s0,0x10
   1e4f0:	00a7e7b3          	or	a5,a5,a0
   1e4f4:	0097fc63          	bgeu	a5,s1,0x1e50c
   1e4f8:	00fa87b3          	add	a5,s5,a5
   1e4fc:	fff98713          	add	a4,s3,-1
   1e500:	0157e463          	bltu	a5,s5,0x1e508
   1e504:	3e97ee63          	bltu	a5,s1,0x1e900
   1e508:	00070993          	mv	s3,a4
   1e50c:	409784b3          	sub	s1,a5,s1
   1e510:	00090593          	mv	a1,s2
   1e514:	00048513          	mv	a0,s1
   1e518:	560030ef          	jal	0x21a78
   1e51c:	000a0593          	mv	a1,s4
   1e520:	00050a13          	mv	s4,a0
   1e524:	528030ef          	jal	0x21a4c
   1e528:	00050793          	mv	a5,a0
   1e52c:	00090593          	mv	a1,s2
   1e530:	00048513          	mv	a0,s1
   1e534:	01041413          	sll	s0,s0,0x10
   1e538:	00078493          	mv	s1,a5
   1e53c:	584030ef          	jal	0x21ac0
   1e540:	01051513          	sll	a0,a0,0x10
   1e544:	01045413          	srl	s0,s0,0x10
   1e548:	00a46433          	or	s0,s0,a0
   1e54c:	00947e63          	bgeu	s0,s1,0x1e568
   1e550:	008a8433          	add	s0,s5,s0
   1e554:	fffa0793          	add	a5,s4,-1
   1e558:	01546663          	bltu	s0,s5,0x1e564
   1e55c:	ffea0a13          	add	s4,s4,-2
   1e560:	00946463          	bltu	s0,s1,0x1e568
   1e564:	00078a13          	mv	s4,a5
   1e568:	01099613          	sll	a2,s3,0x10
   1e56c:	01466533          	or	a0,a2,s4
   1e570:	e5dff06f          	j	0x1e3cc
   1e574:	10063713          	sltiu	a4,a2,256
   1e578:	00173713          	seqz	a4,a4
   1e57c:	00371713          	sll	a4,a4,0x3
   1e580:	d4dff06f          	j	0x1e2cc
   1e584:	00000693          	li	a3,0
   1e588:	00004797          	auipc	a5,0x4
   1e58c:	3a478793          	add	a5,a5,932 # 0x2292c
   1e590:	00d787b3          	add	a5,a5,a3
   1e594:	0007c483          	lbu	s1,0(a5)
   1e598:	00000713          	li	a4,0
   1e59c:	02000793          	li	a5,32
   1e5a0:	00e484b3          	add	s1,s1,a4
   1e5a4:	40978733          	sub	a4,a5,s1
   1e5a8:	f09780e3          	beq	a5,s1,0x1e4a8
   1e5ac:	00e61ab3          	sll	s5,a2,a4
   1e5b0:	01712623          	sw	s7,12(sp)
   1e5b4:	010ad913          	srl	s2,s5,0x10
   1e5b8:	0095dbb3          	srl	s7,a1,s1
   1e5bc:	00e597b3          	sll	a5,a1,a4
   1e5c0:	0099d4b3          	srl	s1,s3,s1
   1e5c4:	00090593          	mv	a1,s2
   1e5c8:	000b8513          	mv	a0,s7
   1e5cc:	010a9a13          	sll	s4,s5,0x10
   1e5d0:	00f4e4b3          	or	s1,s1,a5
   1e5d4:	00e99433          	sll	s0,s3,a4
   1e5d8:	010a5a13          	srl	s4,s4,0x10
   1e5dc:	49c030ef          	jal	0x21a78
   1e5e0:	00050593          	mv	a1,a0
   1e5e4:	00050b13          	mv	s6,a0
   1e5e8:	000a0513          	mv	a0,s4
   1e5ec:	460030ef          	jal	0x21a4c
   1e5f0:	00050993          	mv	s3,a0
   1e5f4:	00090593          	mv	a1,s2
   1e5f8:	000b8513          	mv	a0,s7
   1e5fc:	4c4030ef          	jal	0x21ac0
   1e600:	01051513          	sll	a0,a0,0x10
   1e604:	0104d793          	srl	a5,s1,0x10
   1e608:	00a7e7b3          	or	a5,a5,a0
   1e60c:	0137fe63          	bgeu	a5,s3,0x1e628
   1e610:	00fa87b3          	add	a5,s5,a5
   1e614:	fffb0713          	add	a4,s6,-1
   1e618:	2d57ec63          	bltu	a5,s5,0x1e8f0
   1e61c:	2d37fa63          	bgeu	a5,s3,0x1e8f0
   1e620:	ffeb0b13          	add	s6,s6,-2
   1e624:	015787b3          	add	a5,a5,s5
   1e628:	413789b3          	sub	s3,a5,s3
   1e62c:	00090593          	mv	a1,s2
   1e630:	00098513          	mv	a0,s3
   1e634:	444030ef          	jal	0x21a78
   1e638:	00050593          	mv	a1,a0
   1e63c:	00050b93          	mv	s7,a0
   1e640:	000a0513          	mv	a0,s4
   1e644:	408030ef          	jal	0x21a4c
   1e648:	00050793          	mv	a5,a0
   1e64c:	00090593          	mv	a1,s2
   1e650:	00098513          	mv	a0,s3
   1e654:	01049493          	sll	s1,s1,0x10
   1e658:	00078993          	mv	s3,a5
   1e65c:	464030ef          	jal	0x21ac0
   1e660:	01051513          	sll	a0,a0,0x10
   1e664:	0104d493          	srl	s1,s1,0x10
   1e668:	00a4e4b3          	or	s1,s1,a0
   1e66c:	0134fe63          	bgeu	s1,s3,0x1e688
   1e670:	009a84b3          	add	s1,s5,s1
   1e674:	fffb8793          	add	a5,s7,-1
   1e678:	2754e463          	bltu	s1,s5,0x1e8e0
   1e67c:	2734f263          	bgeu	s1,s3,0x1e8e0
   1e680:	ffeb8b93          	add	s7,s7,-2
   1e684:	015484b3          	add	s1,s1,s5
   1e688:	010b1b13          	sll	s6,s6,0x10
   1e68c:	017b6b33          	or	s6,s6,s7
   1e690:	413484b3          	sub	s1,s1,s3
   1e694:	00c12b83          	lw	s7,12(sp)
   1e698:	e25ff06f          	j	0x1e4bc
   1e69c:	1006b793          	sltiu	a5,a3,256
   1e6a0:	0017b793          	seqz	a5,a5
   1e6a4:	00379793          	sll	a5,a5,0x3
   1e6a8:	00f6d533          	srl	a0,a3,a5
   1e6ac:	00004717          	auipc	a4,0x4
   1e6b0:	28070713          	add	a4,a4,640 # 0x2292c
   1e6b4:	00a70733          	add	a4,a4,a0
   1e6b8:	00074703          	lbu	a4,0(a4)
   1e6bc:	02000513          	li	a0,32
   1e6c0:	00f70733          	add	a4,a4,a5
   1e6c4:	40e50b33          	sub	s6,a0,a4
   1e6c8:	d8e508e3          	beq	a0,a4,0x1e458
   1e6cc:	016696b3          	sll	a3,a3,s6
   1e6d0:	01912223          	sw	s9,4(sp)
   1e6d4:	00e65cb3          	srl	s9,a2,a4
   1e6d8:	00dcecb3          	or	s9,s9,a3
   1e6dc:	01512a23          	sw	s5,20(sp)
   1e6e0:	01712623          	sw	s7,12(sp)
   1e6e4:	010cda93          	srl	s5,s9,0x10
   1e6e8:	00e5dbb3          	srl	s7,a1,a4
   1e6ec:	016597b3          	sll	a5,a1,s6
   1e6f0:	00e9d733          	srl	a4,s3,a4
   1e6f4:	01812423          	sw	s8,8(sp)
   1e6f8:	000a8593          	mv	a1,s5
   1e6fc:	000b8513          	mv	a0,s7
   1e700:	010c9c13          	sll	s8,s9,0x10
   1e704:	02812423          	sw	s0,40(sp)
   1e708:	02912223          	sw	s1,36(sp)
   1e70c:	03212023          	sw	s2,32(sp)
   1e710:	00f764b3          	or	s1,a4,a5
   1e714:	01661933          	sll	s2,a2,s6
   1e718:	01412c23          	sw	s4,24(sp)
   1e71c:	010c5c13          	srl	s8,s8,0x10
   1e720:	358030ef          	jal	0x21a78
   1e724:	00050593          	mv	a1,a0
   1e728:	00050413          	mv	s0,a0
   1e72c:	000c0513          	mv	a0,s8
   1e730:	31c030ef          	jal	0x21a4c
   1e734:	00050a13          	mv	s4,a0
   1e738:	000a8593          	mv	a1,s5
   1e73c:	000b8513          	mv	a0,s7
   1e740:	380030ef          	jal	0x21ac0
   1e744:	01051513          	sll	a0,a0,0x10
   1e748:	0104d793          	srl	a5,s1,0x10
   1e74c:	00a7e7b3          	or	a5,a5,a0
   1e750:	0147fe63          	bgeu	a5,s4,0x1e76c
   1e754:	00fc87b3          	add	a5,s9,a5
   1e758:	fff40713          	add	a4,s0,-1
   1e75c:	1997ee63          	bltu	a5,s9,0x1e8f8
   1e760:	1947fc63          	bgeu	a5,s4,0x1e8f8
   1e764:	ffe40413          	add	s0,s0,-2
   1e768:	019787b3          	add	a5,a5,s9
   1e76c:	41478a33          	sub	s4,a5,s4
   1e770:	000a8593          	mv	a1,s5
   1e774:	000a0513          	mv	a0,s4
   1e778:	300030ef          	jal	0x21a78
   1e77c:	00050593          	mv	a1,a0
   1e780:	00050b93          	mv	s7,a0
   1e784:	000c0513          	mv	a0,s8
   1e788:	2c4030ef          	jal	0x21a4c
   1e78c:	00050793          	mv	a5,a0
   1e790:	000a8593          	mv	a1,s5
   1e794:	000a0513          	mv	a0,s4
   1e798:	00078a13          	mv	s4,a5
   1e79c:	324030ef          	jal	0x21ac0
   1e7a0:	01049713          	sll	a4,s1,0x10
   1e7a4:	01051513          	sll	a0,a0,0x10
   1e7a8:	01075713          	srl	a4,a4,0x10
   1e7ac:	00a76733          	or	a4,a4,a0
   1e7b0:	01477e63          	bgeu	a4,s4,0x1e7cc
   1e7b4:	00ec8733          	add	a4,s9,a4
   1e7b8:	fffb8793          	add	a5,s7,-1
   1e7bc:	13976663          	bltu	a4,s9,0x1e8e8
   1e7c0:	13477463          	bgeu	a4,s4,0x1e8e8
   1e7c4:	ffeb8b93          	add	s7,s7,-2
   1e7c8:	01970733          	add	a4,a4,s9
   1e7cc:	00010e37          	lui	t3,0x10
   1e7d0:	01041413          	sll	s0,s0,0x10
   1e7d4:	01746433          	or	s0,s0,s7
   1e7d8:	fffe0793          	add	a5,t3,-1 # 0xffff
   1e7dc:	00f47833          	and	a6,s0,a5
   1e7e0:	00f977b3          	and	a5,s2,a5
   1e7e4:	41470733          	sub	a4,a4,s4
   1e7e8:	01045e93          	srl	t4,s0,0x10
   1e7ec:	01095913          	srl	s2,s2,0x10
   1e7f0:	00080513          	mv	a0,a6
   1e7f4:	00078593          	mv	a1,a5
   1e7f8:	254030ef          	jal	0x21a4c
   1e7fc:	00050313          	mv	t1,a0
   1e800:	00090593          	mv	a1,s2
   1e804:	00080513          	mv	a0,a6
   1e808:	244030ef          	jal	0x21a4c
   1e80c:	00050813          	mv	a6,a0
   1e810:	00078593          	mv	a1,a5
   1e814:	000e8513          	mv	a0,t4
   1e818:	234030ef          	jal	0x21a4c
   1e81c:	00050893          	mv	a7,a0
   1e820:	00090593          	mv	a1,s2
   1e824:	000e8513          	mv	a0,t4
   1e828:	224030ef          	jal	0x21a4c
   1e82c:	01035793          	srl	a5,t1,0x10
   1e830:	01180833          	add	a6,a6,a7
   1e834:	010787b3          	add	a5,a5,a6
   1e838:	0117f463          	bgeu	a5,a7,0x1e840
   1e83c:	01c50533          	add	a0,a0,t3
   1e840:	0107d693          	srl	a3,a5,0x10
   1e844:	00a686b3          	add	a3,a3,a0
   1e848:	06d76863          	bltu	a4,a3,0x1e8b8
   1e84c:	04d70663          	beq	a4,a3,0x1e898
   1e850:	00040513          	mv	a0,s0
   1e854:	02812403          	lw	s0,40(sp)
   1e858:	02c12083          	lw	ra,44(sp)
   1e85c:	00000b13          	li	s6,0
   1e860:	02412483          	lw	s1,36(sp)
   1e864:	02012903          	lw	s2,32(sp)
   1e868:	01812a03          	lw	s4,24(sp)
   1e86c:	01412a83          	lw	s5,20(sp)
   1e870:	00c12b83          	lw	s7,12(sp)
   1e874:	00812c03          	lw	s8,8(sp)
   1e878:	00412c83          	lw	s9,4(sp)
   1e87c:	01c12983          	lw	s3,28(sp)
   1e880:	000b0593          	mv	a1,s6
   1e884:	01012b03          	lw	s6,16(sp)
   1e888:	03010113          	add	sp,sp,48
   1e88c:	00008067          	ret
   1e890:	00078993          	mv	s3,a5
   1e894:	b2dff06f          	j	0x1e3c0
   1e898:	00010737          	lui	a4,0x10
   1e89c:	fff70713          	add	a4,a4,-1 # 0xffff
   1e8a0:	00e7f7b3          	and	a5,a5,a4
   1e8a4:	01079793          	sll	a5,a5,0x10
   1e8a8:	00e37333          	and	t1,t1,a4
   1e8ac:	01699533          	sll	a0,s3,s6
   1e8b0:	006787b3          	add	a5,a5,t1
   1e8b4:	f8f57ee3          	bgeu	a0,a5,0x1e850
   1e8b8:	fff40513          	add	a0,s0,-1
   1e8bc:	f99ff06f          	j	0x1e854
   1e8c0:	010007b7          	lui	a5,0x1000
   1e8c4:	04f67a63          	bgeu	a2,a5,0x1e918
   1e8c8:	01065693          	srl	a3,a2,0x10
   1e8cc:	01000713          	li	a4,16
   1e8d0:	bb9ff06f          	j	0x1e488
   1e8d4:	00000b13          	li	s6,0
   1e8d8:	00100513          	li	a0,1
   1e8dc:	b29ff06f          	j	0x1e404
   1e8e0:	00078b93          	mv	s7,a5
   1e8e4:	da5ff06f          	j	0x1e688
   1e8e8:	00078b93          	mv	s7,a5
   1e8ec:	ee1ff06f          	j	0x1e7cc
   1e8f0:	00070b13          	mv	s6,a4
   1e8f4:	d35ff06f          	j	0x1e628
   1e8f8:	00070413          	mv	s0,a4
   1e8fc:	e71ff06f          	j	0x1e76c
   1e900:	ffe98993          	add	s3,s3,-2
   1e904:	015787b3          	add	a5,a5,s5
   1e908:	c05ff06f          	j	0x1e50c
   1e90c:	ffe90913          	add	s2,s2,-2
   1e910:	015787b3          	add	a5,a5,s5
   1e914:	a51ff06f          	j	0x1e364
   1e918:	01865693          	srl	a3,a2,0x18
   1e91c:	01800713          	li	a4,24
   1e920:	b69ff06f          	j	0x1e488
   1e924:	fd010113          	add	sp,sp,-48
   1e928:	02112623          	sw	ra,44(sp)
   1e92c:	00050793          	mv	a5,a0
   1e930:	14069663          	bnez	a3,0x1ea7c
   1e934:	03212023          	sw	s2,32(sp)
   1e938:	01412c23          	sw	s4,24(sp)
   1e93c:	02812423          	sw	s0,40(sp)
   1e940:	02912223          	sw	s1,36(sp)
   1e944:	01312e23          	sw	s3,28(sp)
   1e948:	01512a23          	sw	s5,20(sp)
   1e94c:	00060a13          	mv	s4,a2
   1e950:	00050913          	mv	s2,a0
   1e954:	1ac5f663          	bgeu	a1,a2,0x1eb00
   1e958:	01612823          	sw	s6,16(sp)
   1e95c:	00010737          	lui	a4,0x10
   1e960:	00058993          	mv	s3,a1
   1e964:	28e66063          	bltu	a2,a4,0x1ebe4
   1e968:	01000737          	lui	a4,0x1000
   1e96c:	01800693          	li	a3,24
   1e970:	00e67463          	bgeu	a2,a4,0x1e978
   1e974:	01000693          	li	a3,16
   1e978:	00d65533          	srl	a0,a2,a3
   1e97c:	00004717          	auipc	a4,0x4
   1e980:	fb070713          	add	a4,a4,-80 # 0x2292c
   1e984:	00a70733          	add	a4,a4,a0
   1e988:	00074703          	lbu	a4,0(a4)
   1e98c:	02000513          	li	a0,32
   1e990:	00d70733          	add	a4,a4,a3
   1e994:	40e504b3          	sub	s1,a0,a4
   1e998:	00e50c63          	beq	a0,a4,0x1e9b0
   1e99c:	009599b3          	sll	s3,a1,s1
   1e9a0:	00e7d733          	srl	a4,a5,a4
   1e9a4:	00961a33          	sll	s4,a2,s1
   1e9a8:	013769b3          	or	s3,a4,s3
   1e9ac:	00979933          	sll	s2,a5,s1
   1e9b0:	010a5a93          	srl	s5,s4,0x10
   1e9b4:	000a8593          	mv	a1,s5
   1e9b8:	00098513          	mv	a0,s3
   1e9bc:	010a1b13          	sll	s6,s4,0x10
   1e9c0:	0b8030ef          	jal	0x21a78
   1e9c4:	010b5b13          	srl	s6,s6,0x10
   1e9c8:	000b0593          	mv	a1,s6
   1e9cc:	080030ef          	jal	0x21a4c
   1e9d0:	00050413          	mv	s0,a0
   1e9d4:	000a8593          	mv	a1,s5
   1e9d8:	00098513          	mv	a0,s3
   1e9dc:	0e4030ef          	jal	0x21ac0
   1e9e0:	01051513          	sll	a0,a0,0x10
   1e9e4:	01095793          	srl	a5,s2,0x10
   1e9e8:	00a7e7b3          	or	a5,a5,a0
   1e9ec:	0087f863          	bgeu	a5,s0,0x1e9fc
   1e9f0:	00fa07b3          	add	a5,s4,a5
   1e9f4:	0147e463          	bltu	a5,s4,0x1e9fc
   1e9f8:	5687e863          	bltu	a5,s0,0x1ef68
   1e9fc:	40878433          	sub	s0,a5,s0
   1ea00:	000a8593          	mv	a1,s5
   1ea04:	00040513          	mv	a0,s0
   1ea08:	070030ef          	jal	0x21a78
   1ea0c:	000b0593          	mv	a1,s6
   1ea10:	03c030ef          	jal	0x21a4c
   1ea14:	00050793          	mv	a5,a0
   1ea18:	000a8593          	mv	a1,s5
   1ea1c:	00040513          	mv	a0,s0
   1ea20:	00078413          	mv	s0,a5
   1ea24:	09c030ef          	jal	0x21ac0
   1ea28:	01091793          	sll	a5,s2,0x10
   1ea2c:	01051513          	sll	a0,a0,0x10
   1ea30:	0107d793          	srl	a5,a5,0x10
   1ea34:	00a7e7b3          	or	a5,a5,a0
   1ea38:	0087f863          	bgeu	a5,s0,0x1ea48
   1ea3c:	00fa07b3          	add	a5,s4,a5
   1ea40:	0147e463          	bltu	a5,s4,0x1ea48
   1ea44:	5087ea63          	bltu	a5,s0,0x1ef58
   1ea48:	01012b03          	lw	s6,16(sp)
   1ea4c:	408787b3          	sub	a5,a5,s0
   1ea50:	0097d533          	srl	a0,a5,s1
   1ea54:	02812403          	lw	s0,40(sp)
   1ea58:	02412483          	lw	s1,36(sp)
   1ea5c:	02012903          	lw	s2,32(sp)
   1ea60:	01c12983          	lw	s3,28(sp)
   1ea64:	01812a03          	lw	s4,24(sp)
   1ea68:	01412a83          	lw	s5,20(sp)
   1ea6c:	00000593          	li	a1,0
   1ea70:	02c12083          	lw	ra,44(sp)
   1ea74:	03010113          	add	sp,sp,48
   1ea78:	00008067          	ret
   1ea7c:	00050893          	mv	a7,a0
   1ea80:	fed5e8e3          	bltu	a1,a3,0x1ea70
   1ea84:	03212023          	sw	s2,32(sp)
   1ea88:	01312e23          	sw	s3,28(sp)
   1ea8c:	00010737          	lui	a4,0x10
   1ea90:	00058813          	mv	a6,a1
   1ea94:	24e6ec63          	bltu	a3,a4,0x1ecec
   1ea98:	01000737          	lui	a4,0x1000
   1ea9c:	01800513          	li	a0,24
   1eaa0:	00e6f463          	bgeu	a3,a4,0x1eaa8
   1eaa4:	01000513          	li	a0,16
   1eaa8:	00a6d333          	srl	t1,a3,a0
   1eaac:	00004717          	auipc	a4,0x4
   1eab0:	e8070713          	add	a4,a4,-384 # 0x2292c
   1eab4:	00670733          	add	a4,a4,t1
   1eab8:	00074703          	lbu	a4,0(a4)
   1eabc:	02000313          	li	t1,32
   1eac0:	00a709b3          	add	s3,a4,a0
   1eac4:	41330933          	sub	s2,t1,s3
   1eac8:	25331a63          	bne	t1,s3,0x1ed1c
   1eacc:	00b6e463          	bltu	a3,a1,0x1ead4
   1ead0:	00c7ea63          	bltu	a5,a2,0x1eae4
   1ead4:	40c788b3          	sub	a7,a5,a2
   1ead8:	40d586b3          	sub	a3,a1,a3
   1eadc:	0117b833          	sltu	a6,a5,a7
   1eae0:	41068833          	sub	a6,a3,a6
   1eae4:	02c12083          	lw	ra,44(sp)
   1eae8:	02012903          	lw	s2,32(sp)
   1eaec:	01c12983          	lw	s3,28(sp)
   1eaf0:	00088513          	mv	a0,a7
   1eaf4:	00080593          	mv	a1,a6
   1eaf8:	03010113          	add	sp,sp,48
   1eafc:	00008067          	ret
   1eb00:	0e060a63          	beqz	a2,0x1ebf4
   1eb04:	00010737          	lui	a4,0x10
   1eb08:	42e67663          	bgeu	a2,a4,0x1ef34
   1eb0c:	10063693          	sltiu	a3,a2,256
   1eb10:	0016b693          	seqz	a3,a3
   1eb14:	00369693          	sll	a3,a3,0x3
   1eb18:	00d65533          	srl	a0,a2,a3
   1eb1c:	00004717          	auipc	a4,0x4
   1eb20:	e1070713          	add	a4,a4,-496 # 0x2292c
   1eb24:	00a70733          	add	a4,a4,a0
   1eb28:	00074983          	lbu	s3,0(a4)
   1eb2c:	02000713          	li	a4,32
   1eb30:	00d989b3          	add	s3,s3,a3
   1eb34:	413704b3          	sub	s1,a4,s3
   1eb38:	0f371263          	bne	a4,s3,0x1ec1c
   1eb3c:	01061413          	sll	s0,a2,0x10
   1eb40:	40c589b3          	sub	s3,a1,a2
   1eb44:	01065a93          	srl	s5,a2,0x10
   1eb48:	01045413          	srl	s0,s0,0x10
   1eb4c:	000a8593          	mv	a1,s5
   1eb50:	00098513          	mv	a0,s3
   1eb54:	725020ef          	jal	0x21a78
   1eb58:	00040593          	mv	a1,s0
   1eb5c:	6f1020ef          	jal	0x21a4c
   1eb60:	00050793          	mv	a5,a0
   1eb64:	000a8593          	mv	a1,s5
   1eb68:	00098513          	mv	a0,s3
   1eb6c:	00078993          	mv	s3,a5
   1eb70:	751020ef          	jal	0x21ac0
   1eb74:	01051513          	sll	a0,a0,0x10
   1eb78:	01095793          	srl	a5,s2,0x10
   1eb7c:	00a7e7b3          	or	a5,a5,a0
   1eb80:	0137f863          	bgeu	a5,s3,0x1eb90
   1eb84:	00fa07b3          	add	a5,s4,a5
   1eb88:	0147e463          	bltu	a5,s4,0x1eb90
   1eb8c:	3d37ea63          	bltu	a5,s3,0x1ef60
   1eb90:	413789b3          	sub	s3,a5,s3
   1eb94:	000a8593          	mv	a1,s5
   1eb98:	00098513          	mv	a0,s3
   1eb9c:	6dd020ef          	jal	0x21a78
   1eba0:	00040593          	mv	a1,s0
   1eba4:	6a9020ef          	jal	0x21a4c
   1eba8:	00050413          	mv	s0,a0
   1ebac:	000a8593          	mv	a1,s5
   1ebb0:	00098513          	mv	a0,s3
   1ebb4:	70d020ef          	jal	0x21ac0
   1ebb8:	01091913          	sll	s2,s2,0x10
   1ebbc:	01051793          	sll	a5,a0,0x10
   1ebc0:	01095913          	srl	s2,s2,0x10
   1ebc4:	00f967b3          	or	a5,s2,a5
   1ebc8:	0087fa63          	bgeu	a5,s0,0x1ebdc
   1ebcc:	00fa07b3          	add	a5,s4,a5
   1ebd0:	0147e663          	bltu	a5,s4,0x1ebdc
   1ebd4:	0087f463          	bgeu	a5,s0,0x1ebdc
   1ebd8:	014787b3          	add	a5,a5,s4
   1ebdc:	408787b3          	sub	a5,a5,s0
   1ebe0:	e71ff06f          	j	0x1ea50
   1ebe4:	10063693          	sltiu	a3,a2,256
   1ebe8:	0016b693          	seqz	a3,a3
   1ebec:	00369693          	sll	a3,a3,0x3
   1ebf0:	d89ff06f          	j	0x1e978
   1ebf4:	00000513          	li	a0,0
   1ebf8:	00004717          	auipc	a4,0x4
   1ebfc:	d3470713          	add	a4,a4,-716 # 0x2292c
   1ec00:	00a70733          	add	a4,a4,a0
   1ec04:	00074983          	lbu	s3,0(a4)
   1ec08:	00000693          	li	a3,0
   1ec0c:	02000713          	li	a4,32
   1ec10:	00d989b3          	add	s3,s3,a3
   1ec14:	413704b3          	sub	s1,a4,s3
   1ec18:	f33702e3          	beq	a4,s3,0x1eb3c
   1ec1c:	00961a33          	sll	s4,a2,s1
   1ec20:	01712623          	sw	s7,12(sp)
   1ec24:	010a5a93          	srl	s5,s4,0x10
   1ec28:	0135dbb3          	srl	s7,a1,s3
   1ec2c:	00959733          	sll	a4,a1,s1
   1ec30:	0137d9b3          	srl	s3,a5,s3
   1ec34:	000a8593          	mv	a1,s5
   1ec38:	000b8513          	mv	a0,s7
   1ec3c:	010a1413          	sll	s0,s4,0x10
   1ec40:	00e9e9b3          	or	s3,s3,a4
   1ec44:	00979933          	sll	s2,a5,s1
   1ec48:	01612823          	sw	s6,16(sp)
   1ec4c:	01045413          	srl	s0,s0,0x10
   1ec50:	629020ef          	jal	0x21a78
   1ec54:	00040593          	mv	a1,s0
   1ec58:	5f5020ef          	jal	0x21a4c
   1ec5c:	00050b13          	mv	s6,a0
   1ec60:	000a8593          	mv	a1,s5
   1ec64:	000b8513          	mv	a0,s7
   1ec68:	659020ef          	jal	0x21ac0
   1ec6c:	01051513          	sll	a0,a0,0x10
   1ec70:	0109d793          	srl	a5,s3,0x10
   1ec74:	00a7e7b3          	or	a5,a5,a0
   1ec78:	0167fa63          	bgeu	a5,s6,0x1ec8c
   1ec7c:	00fa07b3          	add	a5,s4,a5
   1ec80:	0147e663          	bltu	a5,s4,0x1ec8c
   1ec84:	0167f463          	bgeu	a5,s6,0x1ec8c
   1ec88:	014787b3          	add	a5,a5,s4
   1ec8c:	41678b33          	sub	s6,a5,s6
   1ec90:	000a8593          	mv	a1,s5
   1ec94:	000b0513          	mv	a0,s6
   1ec98:	5e1020ef          	jal	0x21a78
   1ec9c:	00040593          	mv	a1,s0
   1eca0:	5ad020ef          	jal	0x21a4c
   1eca4:	00050793          	mv	a5,a0
   1eca8:	000a8593          	mv	a1,s5
   1ecac:	000b0513          	mv	a0,s6
   1ecb0:	01099993          	sll	s3,s3,0x10
   1ecb4:	00078b13          	mv	s6,a5
   1ecb8:	609020ef          	jal	0x21ac0
   1ecbc:	01051513          	sll	a0,a0,0x10
   1ecc0:	0109d993          	srl	s3,s3,0x10
   1ecc4:	00a9e9b3          	or	s3,s3,a0
   1ecc8:	0169fa63          	bgeu	s3,s6,0x1ecdc
   1eccc:	013a09b3          	add	s3,s4,s3
   1ecd0:	0149e663          	bltu	s3,s4,0x1ecdc
   1ecd4:	0169f463          	bgeu	s3,s6,0x1ecdc
   1ecd8:	014989b3          	add	s3,s3,s4
   1ecdc:	416989b3          	sub	s3,s3,s6
   1ece0:	00c12b83          	lw	s7,12(sp)
   1ece4:	01012b03          	lw	s6,16(sp)
   1ece8:	e65ff06f          	j	0x1eb4c
   1ecec:	1006b513          	sltiu	a0,a3,256
   1ecf0:	00153513          	seqz	a0,a0
   1ecf4:	00351513          	sll	a0,a0,0x3
   1ecf8:	00a6d333          	srl	t1,a3,a0
   1ecfc:	00004717          	auipc	a4,0x4
   1ed00:	c3070713          	add	a4,a4,-976 # 0x2292c
   1ed04:	00670733          	add	a4,a4,t1
   1ed08:	00074703          	lbu	a4,0(a4)
   1ed0c:	02000313          	li	t1,32
   1ed10:	00a709b3          	add	s3,a4,a0
   1ed14:	41330933          	sub	s2,t1,s3
   1ed18:	db330ae3          	beq	t1,s3,0x1eacc
   1ed1c:	01512a23          	sw	s5,20(sp)
   1ed20:	012696b3          	sll	a3,a3,s2
   1ed24:	01365ab3          	srl	s5,a2,s3
   1ed28:	00daeab3          	or	s5,s5,a3
   1ed2c:	01712623          	sw	s7,12(sp)
   1ed30:	01a12023          	sw	s10,0(sp)
   1ed34:	010adb93          	srl	s7,s5,0x10
   1ed38:	0135dd33          	srl	s10,a1,s3
   1ed3c:	01259733          	sll	a4,a1,s2
   1ed40:	0137d6b3          	srl	a3,a5,s3
   1ed44:	01912223          	sw	s9,4(sp)
   1ed48:	000b8593          	mv	a1,s7
   1ed4c:	000d0513          	mv	a0,s10
   1ed50:	010a9c93          	sll	s9,s5,0x10
   1ed54:	02812423          	sw	s0,40(sp)
   1ed58:	02912223          	sw	s1,36(sp)
   1ed5c:	01261433          	sll	s0,a2,s2
   1ed60:	012794b3          	sll	s1,a5,s2
   1ed64:	01412c23          	sw	s4,24(sp)
   1ed68:	01612823          	sw	s6,16(sp)
   1ed6c:	00e6ea33          	or	s4,a3,a4
   1ed70:	01812423          	sw	s8,8(sp)
   1ed74:	010cdc93          	srl	s9,s9,0x10
   1ed78:	501020ef          	jal	0x21a78
   1ed7c:	00050593          	mv	a1,a0
   1ed80:	00050b13          	mv	s6,a0
   1ed84:	000c8513          	mv	a0,s9
   1ed88:	4c5020ef          	jal	0x21a4c
   1ed8c:	00050c13          	mv	s8,a0
   1ed90:	000b8593          	mv	a1,s7
   1ed94:	000d0513          	mv	a0,s10
   1ed98:	529020ef          	jal	0x21ac0
   1ed9c:	01051513          	sll	a0,a0,0x10
   1eda0:	010a5793          	srl	a5,s4,0x10
   1eda4:	00a7e7b3          	or	a5,a5,a0
   1eda8:	0187fe63          	bgeu	a5,s8,0x1edc4
   1edac:	00fa87b3          	add	a5,s5,a5
   1edb0:	fffb0713          	add	a4,s6,-1
   1edb4:	1957ee63          	bltu	a5,s5,0x1ef50
   1edb8:	1987fc63          	bgeu	a5,s8,0x1ef50
   1edbc:	ffeb0b13          	add	s6,s6,-2
   1edc0:	015787b3          	add	a5,a5,s5
   1edc4:	41878c33          	sub	s8,a5,s8
   1edc8:	000b8593          	mv	a1,s7
   1edcc:	000c0513          	mv	a0,s8
   1edd0:	4a9020ef          	jal	0x21a78
   1edd4:	00050593          	mv	a1,a0
   1edd8:	00050d13          	mv	s10,a0
   1eddc:	000c8513          	mv	a0,s9
   1ede0:	46d020ef          	jal	0x21a4c
   1ede4:	00050793          	mv	a5,a0
   1ede8:	000b8593          	mv	a1,s7
   1edec:	000c0513          	mv	a0,s8
   1edf0:	00078b93          	mv	s7,a5
   1edf4:	4cd020ef          	jal	0x21ac0
   1edf8:	010a1593          	sll	a1,s4,0x10
   1edfc:	01051513          	sll	a0,a0,0x10
   1ee00:	0105d593          	srl	a1,a1,0x10
   1ee04:	00a5e5b3          	or	a1,a1,a0
   1ee08:	0175fe63          	bgeu	a1,s7,0x1ee24
   1ee0c:	00ba85b3          	add	a1,s5,a1
   1ee10:	fffd0793          	add	a5,s10,-1
   1ee14:	1355ea63          	bltu	a1,s5,0x1ef48
   1ee18:	1375f863          	bgeu	a1,s7,0x1ef48
   1ee1c:	ffed0d13          	add	s10,s10,-2
   1ee20:	015585b3          	add	a1,a1,s5
   1ee24:	010b1793          	sll	a5,s6,0x10
   1ee28:	00010e37          	lui	t3,0x10
   1ee2c:	01a7e7b3          	or	a5,a5,s10
   1ee30:	fffe0313          	add	t1,t3,-1 # 0xffff
   1ee34:	0067f8b3          	and	a7,a5,t1
   1ee38:	00647333          	and	t1,s0,t1
   1ee3c:	41758733          	sub	a4,a1,s7
   1ee40:	0107d793          	srl	a5,a5,0x10
   1ee44:	01045e93          	srl	t4,s0,0x10
   1ee48:	00088513          	mv	a0,a7
   1ee4c:	00030593          	mv	a1,t1
   1ee50:	3fd020ef          	jal	0x21a4c
   1ee54:	00050813          	mv	a6,a0
   1ee58:	000e8593          	mv	a1,t4
   1ee5c:	00088513          	mv	a0,a7
   1ee60:	3ed020ef          	jal	0x21a4c
   1ee64:	00050893          	mv	a7,a0
   1ee68:	00030593          	mv	a1,t1
   1ee6c:	00078513          	mv	a0,a5
   1ee70:	3dd020ef          	jal	0x21a4c
   1ee74:	00050313          	mv	t1,a0
   1ee78:	000e8593          	mv	a1,t4
   1ee7c:	00078513          	mv	a0,a5
   1ee80:	3cd020ef          	jal	0x21a4c
   1ee84:	01085793          	srl	a5,a6,0x10
   1ee88:	006888b3          	add	a7,a7,t1
   1ee8c:	011787b3          	add	a5,a5,a7
   1ee90:	0067f463          	bgeu	a5,t1,0x1ee98
   1ee94:	01c50533          	add	a0,a0,t3
   1ee98:	00010637          	lui	a2,0x10
   1ee9c:	fff60613          	add	a2,a2,-1 # 0xffff
   1eea0:	0107d693          	srl	a3,a5,0x10
   1eea4:	00c7f7b3          	and	a5,a5,a2
   1eea8:	01079793          	sll	a5,a5,0x10
   1eeac:	00c87833          	and	a6,a6,a2
   1eeb0:	00a686b3          	add	a3,a3,a0
   1eeb4:	010787b3          	add	a5,a5,a6
   1eeb8:	06d76263          	bltu	a4,a3,0x1ef1c
   1eebc:	04d70e63          	beq	a4,a3,0x1ef18
   1eec0:	40f487b3          	sub	a5,s1,a5
   1eec4:	00f4b4b3          	sltu	s1,s1,a5
   1eec8:	02812403          	lw	s0,40(sp)
   1eecc:	02c12083          	lw	ra,44(sp)
   1eed0:	40d705b3          	sub	a1,a4,a3
   1eed4:	409585b3          	sub	a1,a1,s1
   1eed8:	01359733          	sll	a4,a1,s3
   1eedc:	0127d7b3          	srl	a5,a5,s2
   1eee0:	02412483          	lw	s1,36(sp)
   1eee4:	01c12983          	lw	s3,28(sp)
   1eee8:	01812a03          	lw	s4,24(sp)
   1eeec:	01412a83          	lw	s5,20(sp)
   1eef0:	01012b03          	lw	s6,16(sp)
   1eef4:	00c12b83          	lw	s7,12(sp)
   1eef8:	00812c03          	lw	s8,8(sp)
   1eefc:	00412c83          	lw	s9,4(sp)
   1ef00:	00012d03          	lw	s10,0(sp)
   1ef04:	0125d5b3          	srl	a1,a1,s2
   1ef08:	00f76533          	or	a0,a4,a5
   1ef0c:	02012903          	lw	s2,32(sp)
   1ef10:	03010113          	add	sp,sp,48
   1ef14:	00008067          	ret
   1ef18:	faf4f4e3          	bgeu	s1,a5,0x1eec0
   1ef1c:	40878433          	sub	s0,a5,s0
   1ef20:	0087b7b3          	sltu	a5,a5,s0
   1ef24:	01578ab3          	add	s5,a5,s5
   1ef28:	415686b3          	sub	a3,a3,s5
   1ef2c:	00040793          	mv	a5,s0
   1ef30:	f91ff06f          	j	0x1eec0
   1ef34:	01000737          	lui	a4,0x1000
   1ef38:	02e67c63          	bgeu	a2,a4,0x1ef70
   1ef3c:	01065513          	srl	a0,a2,0x10
   1ef40:	01000693          	li	a3,16
   1ef44:	bd9ff06f          	j	0x1eb1c
   1ef48:	00078d13          	mv	s10,a5
   1ef4c:	ed9ff06f          	j	0x1ee24
   1ef50:	00070b13          	mv	s6,a4
   1ef54:	e71ff06f          	j	0x1edc4
   1ef58:	014787b3          	add	a5,a5,s4
   1ef5c:	aedff06f          	j	0x1ea48
   1ef60:	014787b3          	add	a5,a5,s4
   1ef64:	c2dff06f          	j	0x1eb90
   1ef68:	014787b3          	add	a5,a5,s4
   1ef6c:	a91ff06f          	j	0x1e9fc
   1ef70:	01865513          	srl	a0,a2,0x18
   1ef74:	01800693          	li	a3,24
   1ef78:	ba5ff06f          	j	0x1eb1c
   1ef7c:	001007b7          	lui	a5,0x100
   1ef80:	fe010113          	add	sp,sp,-32
   1ef84:	fff78e93          	add	t4,a5,-1 # 0xfffff
   1ef88:	00bef833          	and	a6,t4,a1
   1ef8c:	00def7b3          	and	a5,t4,a3
   1ef90:	0146d313          	srl	t1,a3,0x14
   1ef94:	01212823          	sw	s2,16(sp)
   1ef98:	0145d913          	srl	s2,a1,0x14
   1ef9c:	00379793          	sll	a5,a5,0x3
   1efa0:	00812c23          	sw	s0,24(sp)
   1efa4:	00381813          	sll	a6,a6,0x3
   1efa8:	01f5d413          	srl	s0,a1,0x1f
   1efac:	01d55713          	srl	a4,a0,0x1d
   1efb0:	01d65893          	srl	a7,a2,0x1d
   1efb4:	7ff97913          	and	s2,s2,2047
   1efb8:	7ff37313          	and	t1,t1,2047
   1efbc:	00112e23          	sw	ra,28(sp)
   1efc0:	00912a23          	sw	s1,20(sp)
   1efc4:	01312623          	sw	s3,12(sp)
   1efc8:	01f6d693          	srl	a3,a3,0x1f
   1efcc:	00f8e8b3          	or	a7,a7,a5
   1efd0:	01076733          	or	a4,a4,a6
   1efd4:	00351593          	sll	a1,a0,0x3
   1efd8:	00361f13          	sll	t5,a2,0x3
   1efdc:	406907b3          	sub	a5,s2,t1
   1efe0:	1ed40463          	beq	s0,a3,0x1f1c8
   1efe4:	16f05263          	blez	a5,0x1f148
   1efe8:	28030663          	beqz	t1,0x1f274
   1efec:	7ff00693          	li	a3,2047
   1eff0:	42d90663          	beq	s2,a3,0x1f41c
   1eff4:	03800693          	li	a3,56
   1eff8:	00100613          	li	a2,1
   1effc:	02f6ce63          	blt	a3,a5,0x1f038
   1f000:	008006b7          	lui	a3,0x800
   1f004:	00d8e8b3          	or	a7,a7,a3
   1f008:	01f00693          	li	a3,31
   1f00c:	52f6ce63          	blt	a3,a5,0x1f548
   1f010:	02000693          	li	a3,32
   1f014:	40f686b3          	sub	a3,a3,a5
   1f018:	00d89633          	sll	a2,a7,a3
   1f01c:	00ff5533          	srl	a0,t5,a5
   1f020:	00df16b3          	sll	a3,t5,a3
   1f024:	00a66633          	or	a2,a2,a0
   1f028:	00d036b3          	snez	a3,a3
   1f02c:	00f8d8b3          	srl	a7,a7,a5
   1f030:	00d66633          	or	a2,a2,a3
   1f034:	41170733          	sub	a4,a4,a7
   1f038:	40c58633          	sub	a2,a1,a2
   1f03c:	00c5b5b3          	sltu	a1,a1,a2
   1f040:	00060493          	mv	s1,a2
   1f044:	40b709b3          	sub	s3,a4,a1
   1f048:	00899793          	sll	a5,s3,0x8
   1f04c:	3207da63          	bgez	a5,0x1f380
   1f050:	008007b7          	lui	a5,0x800
   1f054:	fff78793          	add	a5,a5,-1 # 0x7fffff
   1f058:	00f9f9b3          	and	s3,s3,a5
   1f05c:	2c098863          	beqz	s3,0x1f32c
   1f060:	00098513          	mv	a0,s3
   1f064:	2c1020ef          	jal	0x21b24
   1f068:	ff850793          	add	a5,a0,-8
   1f06c:	02000693          	li	a3,32
   1f070:	40f68733          	sub	a4,a3,a5
   1f074:	00e4d733          	srl	a4,s1,a4
   1f078:	00f999b3          	sll	s3,s3,a5
   1f07c:	01376733          	or	a4,a4,s3
   1f080:	00f494b3          	sll	s1,s1,a5
   1f084:	4b27c863          	blt	a5,s2,0x1f534
   1f088:	412787b3          	sub	a5,a5,s2
   1f08c:	00178793          	add	a5,a5,1
   1f090:	40f686b3          	sub	a3,a3,a5
   1f094:	00d49633          	sll	a2,s1,a3
   1f098:	00f4d9b3          	srl	s3,s1,a5
   1f09c:	00c03633          	snez	a2,a2
   1f0a0:	01366633          	or	a2,a2,s3
   1f0a4:	00d716b3          	sll	a3,a4,a3
   1f0a8:	00c6e4b3          	or	s1,a3,a2
   1f0ac:	00f759b3          	srl	s3,a4,a5
   1f0b0:	00000913          	li	s2,0
   1f0b4:	0074f793          	and	a5,s1,7
   1f0b8:	02078063          	beqz	a5,0x1f0d8
   1f0bc:	00f4f793          	and	a5,s1,15
   1f0c0:	00400713          	li	a4,4
   1f0c4:	00e78a63          	beq	a5,a4,0x1f0d8
   1f0c8:	00448793          	add	a5,s1,4
   1f0cc:	0097b633          	sltu	a2,a5,s1
   1f0d0:	00c989b3          	add	s3,s3,a2
   1f0d4:	00078493          	mv	s1,a5
   1f0d8:	00899793          	sll	a5,s3,0x8
   1f0dc:	6e07da63          	bgez	a5,0x1f7d0
   1f0e0:	00190793          	add	a5,s2,1
   1f0e4:	7ff00713          	li	a4,2047
   1f0e8:	00040e13          	mv	t3,s0
   1f0ec:	2ae78663          	beq	a5,a4,0x1f398
   1f0f0:	ff800737          	lui	a4,0xff800
   1f0f4:	fff70713          	add	a4,a4,-1 # 0xff7fffff
   1f0f8:	00e9f733          	and	a4,s3,a4
   1f0fc:	7ff7f793          	and	a5,a5,2047
   1f100:	01d71813          	sll	a6,a4,0x1d
   1f104:	0034d613          	srl	a2,s1,0x3
   1f108:	00971713          	sll	a4,a4,0x9
   1f10c:	00c86833          	or	a6,a6,a2
   1f110:	00c75713          	srl	a4,a4,0xc
   1f114:	01c12083          	lw	ra,28(sp)
   1f118:	01812403          	lw	s0,24(sp)
   1f11c:	01479793          	sll	a5,a5,0x14
   1f120:	00e7e7b3          	or	a5,a5,a4
   1f124:	01fe1713          	sll	a4,t3,0x1f
   1f128:	00e7e7b3          	or	a5,a5,a4
   1f12c:	01412483          	lw	s1,20(sp)
   1f130:	01012903          	lw	s2,16(sp)
   1f134:	00c12983          	lw	s3,12(sp)
   1f138:	00080513          	mv	a0,a6
   1f13c:	00078593          	mv	a1,a5
   1f140:	02010113          	add	sp,sp,32
   1f144:	00008067          	ret
   1f148:	14078c63          	beqz	a5,0x1f2a0
   1f14c:	412307b3          	sub	a5,t1,s2
   1f150:	3c091263          	bnez	s2,0x1f514
   1f154:	00b76533          	or	a0,a4,a1
   1f158:	4c050463          	beqz	a0,0x1f620
   1f15c:	fff78513          	add	a0,a5,-1
   1f160:	60050263          	beqz	a0,0x1f764
   1f164:	7ff00813          	li	a6,2047
   1f168:	57078663          	beq	a5,a6,0x1f6d4
   1f16c:	03800793          	li	a5,56
   1f170:	00100613          	li	a2,1
   1f174:	02a7cc63          	blt	a5,a0,0x1f1ac
   1f178:	00050793          	mv	a5,a0
   1f17c:	01f00613          	li	a2,31
   1f180:	56f64c63          	blt	a2,a5,0x1f6f8
   1f184:	02000513          	li	a0,32
   1f188:	40f50533          	sub	a0,a0,a5
   1f18c:	00a71633          	sll	a2,a4,a0
   1f190:	00f5d833          	srl	a6,a1,a5
   1f194:	00a59533          	sll	a0,a1,a0
   1f198:	01066633          	or	a2,a2,a6
   1f19c:	00a03533          	snez	a0,a0
   1f1a0:	00f75733          	srl	a4,a4,a5
   1f1a4:	00a66633          	or	a2,a2,a0
   1f1a8:	40e888b3          	sub	a7,a7,a4
   1f1ac:	40cf0633          	sub	a2,t5,a2
   1f1b0:	00cf3733          	sltu	a4,t5,a2
   1f1b4:	00060493          	mv	s1,a2
   1f1b8:	40e889b3          	sub	s3,a7,a4
   1f1bc:	00030913          	mv	s2,t1
   1f1c0:	00068413          	mv	s0,a3
   1f1c4:	e85ff06f          	j	0x1f048
   1f1c8:	1ef05063          	blez	a5,0x1f3a8
   1f1cc:	14031063          	bnez	t1,0x1f30c
   1f1d0:	01e8e6b3          	or	a3,a7,t5
   1f1d4:	26068c63          	beqz	a3,0x1f44c
   1f1d8:	fff78693          	add	a3,a5,-1
   1f1dc:	48068063          	beqz	a3,0x1f65c
   1f1e0:	7ff00613          	li	a2,2047
   1f1e4:	22c78c63          	beq	a5,a2,0x1f41c
   1f1e8:	03800793          	li	a5,56
   1f1ec:	00100993          	li	s3,1
   1f1f0:	02d7cc63          	blt	a5,a3,0x1f228
   1f1f4:	00068793          	mv	a5,a3
   1f1f8:	01f00693          	li	a3,31
   1f1fc:	4af6c063          	blt	a3,a5,0x1f69c
   1f200:	02000693          	li	a3,32
   1f204:	40f686b3          	sub	a3,a3,a5
   1f208:	00d899b3          	sll	s3,a7,a3
   1f20c:	00ff5633          	srl	a2,t5,a5
   1f210:	00df16b3          	sll	a3,t5,a3
   1f214:	00c9e9b3          	or	s3,s3,a2
   1f218:	00d036b3          	snez	a3,a3
   1f21c:	00f8d8b3          	srl	a7,a7,a5
   1f220:	00d9e9b3          	or	s3,s3,a3
   1f224:	01170733          	add	a4,a4,a7
   1f228:	00b985b3          	add	a1,s3,a1
   1f22c:	0135b9b3          	sltu	s3,a1,s3
   1f230:	00058493          	mv	s1,a1
   1f234:	00e989b3          	add	s3,s3,a4
   1f238:	00899793          	sll	a5,s3,0x8
   1f23c:	1407d263          	bgez	a5,0x1f380
   1f240:	00190913          	add	s2,s2,1
   1f244:	7ff00793          	li	a5,2047
   1f248:	36f90c63          	beq	s2,a5,0x1f5c0
   1f24c:	ff8007b7          	lui	a5,0xff800
   1f250:	fff78793          	add	a5,a5,-1 # 0xff7fffff
   1f254:	0014f613          	and	a2,s1,1
   1f258:	00f9f7b3          	and	a5,s3,a5
   1f25c:	0014d713          	srl	a4,s1,0x1
   1f260:	00c76733          	or	a4,a4,a2
   1f264:	01f79613          	sll	a2,a5,0x1f
   1f268:	00e664b3          	or	s1,a2,a4
   1f26c:	0017d993          	srl	s3,a5,0x1
   1f270:	e45ff06f          	j	0x1f0b4
   1f274:	01e8e6b3          	or	a3,a7,t5
   1f278:	1c068a63          	beqz	a3,0x1f44c
   1f27c:	fff78693          	add	a3,a5,-1
   1f280:	40068063          	beqz	a3,0x1f680
   1f284:	7ff00613          	li	a2,2047
   1f288:	18c78a63          	beq	a5,a2,0x1f41c
   1f28c:	03800793          	li	a5,56
   1f290:	00100613          	li	a2,1
   1f294:	dad7c2e3          	blt	a5,a3,0x1f038
   1f298:	00068793          	mv	a5,a3
   1f29c:	d6dff06f          	j	0x1f008
   1f2a0:	00190813          	add	a6,s2,1
   1f2a4:	7fe87813          	and	a6,a6,2046
   1f2a8:	22081c63          	bnez	a6,0x1f4e0
   1f2ac:	00b76333          	or	t1,a4,a1
   1f2b0:	01e8e833          	or	a6,a7,t5
   1f2b4:	38091063          	bnez	s2,0x1f634
   1f2b8:	46030e63          	beqz	t1,0x1f734
   1f2bc:	40080663          	beqz	a6,0x1f6c8
   1f2c0:	41e589b3          	sub	s3,a1,t5
   1f2c4:	0135b533          	sltu	a0,a1,s3
   1f2c8:	41170633          	sub	a2,a4,a7
   1f2cc:	40a60633          	sub	a2,a2,a0
   1f2d0:	00861513          	sll	a0,a2,0x8
   1f2d4:	50055e63          	bgez	a0,0x1f7f0
   1f2d8:	40bf05b3          	sub	a1,t5,a1
   1f2dc:	40e88733          	sub	a4,a7,a4
   1f2e0:	00bf3f33          	sltu	t5,t5,a1
   1f2e4:	41e70733          	sub	a4,a4,t5
   1f2e8:	00871613          	sll	a2,a4,0x8
   1f2ec:	00058493          	mv	s1,a1
   1f2f0:	52065e63          	bgez	a2,0x1f82c
   1f2f4:	ff8007b7          	lui	a5,0xff800
   1f2f8:	fff78793          	add	a5,a5,-1 # 0xff7fffff
   1f2fc:	00f77733          	and	a4,a4,a5
   1f300:	00068e13          	mv	t3,a3
   1f304:	00100793          	li	a5,1
   1f308:	df9ff06f          	j	0x1f100
   1f30c:	7ff00693          	li	a3,2047
   1f310:	10d90663          	beq	s2,a3,0x1f41c
   1f314:	03800693          	li	a3,56
   1f318:	00100993          	li	s3,1
   1f31c:	f0f6c6e3          	blt	a3,a5,0x1f228
   1f320:	008006b7          	lui	a3,0x800
   1f324:	00d8e8b3          	or	a7,a7,a3
   1f328:	ed1ff06f          	j	0x1f1f8
   1f32c:	00048513          	mv	a0,s1
   1f330:	7f4020ef          	jal	0x21b24
   1f334:	01850793          	add	a5,a0,24
   1f338:	01f00693          	li	a3,31
   1f33c:	d2f6d8e3          	bge	a3,a5,0x1f06c
   1f340:	ff850713          	add	a4,a0,-8
   1f344:	00e49733          	sll	a4,s1,a4
   1f348:	2327c663          	blt	a5,s2,0x1f574
   1f34c:	41278933          	sub	s2,a5,s2
   1f350:	00190793          	add	a5,s2,1
   1f354:	48f6d663          	bge	a3,a5,0x1f7e0
   1f358:	fe190913          	add	s2,s2,-31
   1f35c:	02000693          	li	a3,32
   1f360:	012754b3          	srl	s1,a4,s2
   1f364:	00d78c63          	beq	a5,a3,0x1f37c
   1f368:	04000693          	li	a3,64
   1f36c:	40f687b3          	sub	a5,a3,a5
   1f370:	00f71733          	sll	a4,a4,a5
   1f374:	00e03733          	snez	a4,a4
   1f378:	00e4e4b3          	or	s1,s1,a4
   1f37c:	00000913          	li	s2,0
   1f380:	0074f793          	and	a5,s1,7
   1f384:	d2079ce3          	bnez	a5,0x1f0bc
   1f388:	00090793          	mv	a5,s2
   1f38c:	0034d613          	srl	a2,s1,0x3
   1f390:	00098713          	mv	a4,s3
   1f394:	0c00006f          	j	0x1f454
   1f398:	7ff00793          	li	a5,2047
   1f39c:	00000713          	li	a4,0
   1f3a0:	00000813          	li	a6,0
   1f3a4:	d71ff06f          	j	0x1f114
   1f3a8:	0c078a63          	beqz	a5,0x1f47c
   1f3ac:	412307b3          	sub	a5,t1,s2
   1f3b0:	1e090263          	beqz	s2,0x1f594
   1f3b4:	7ff00693          	li	a3,2047
   1f3b8:	32d30863          	beq	t1,a3,0x1f6e8
   1f3bc:	03800693          	li	a3,56
   1f3c0:	00100993          	li	s3,1
   1f3c4:	02f6ce63          	blt	a3,a5,0x1f400
   1f3c8:	008006b7          	lui	a3,0x800
   1f3cc:	00d76733          	or	a4,a4,a3
   1f3d0:	01f00693          	li	a3,31
   1f3d4:	3cf6c863          	blt	a3,a5,0x1f7a4
   1f3d8:	02000693          	li	a3,32
   1f3dc:	40f686b3          	sub	a3,a3,a5
   1f3e0:	00d719b3          	sll	s3,a4,a3
   1f3e4:	00f5d633          	srl	a2,a1,a5
   1f3e8:	00d596b3          	sll	a3,a1,a3
   1f3ec:	00c9e9b3          	or	s3,s3,a2
   1f3f0:	00d036b3          	snez	a3,a3
   1f3f4:	00f75733          	srl	a4,a4,a5
   1f3f8:	00d9e9b3          	or	s3,s3,a3
   1f3fc:	00e888b3          	add	a7,a7,a4
   1f400:	01e98733          	add	a4,s3,t5
   1f404:	013739b3          	sltu	s3,a4,s3
   1f408:	00070493          	mv	s1,a4
   1f40c:	011989b3          	add	s3,s3,a7
   1f410:	00030913          	mv	s2,t1
   1f414:	e25ff06f          	j	0x1f238
   1f418:	02081063          	bnez	a6,0x1f438
   1f41c:	00351613          	sll	a2,a0,0x3
   1f420:	00365613          	srl	a2,a2,0x3
   1f424:	01d71813          	sll	a6,a4,0x1d
   1f428:	00c86833          	or	a6,a6,a2
   1f42c:	00375713          	srl	a4,a4,0x3
   1f430:	01076733          	or	a4,a4,a6
   1f434:	18070663          	beqz	a4,0x1f5c0
   1f438:	00000e13          	li	t3,0
   1f43c:	7ff00793          	li	a5,2047
   1f440:	00080737          	lui	a4,0x80
   1f444:	00000813          	li	a6,0
   1f448:	ccdff06f          	j	0x1f114
   1f44c:	00351613          	sll	a2,a0,0x3
   1f450:	00365613          	srl	a2,a2,0x3
   1f454:	01d71813          	sll	a6,a4,0x1d
   1f458:	7ff00693          	li	a3,2047
   1f45c:	00c86833          	or	a6,a6,a2
   1f460:	00375713          	srl	a4,a4,0x3
   1f464:	fcd786e3          	beq	a5,a3,0x1f430
   1f468:	00c71713          	sll	a4,a4,0xc
   1f46c:	00c75713          	srl	a4,a4,0xc
   1f470:	7ff7f793          	and	a5,a5,2047
   1f474:	00040e13          	mv	t3,s0
   1f478:	c9dff06f          	j	0x1f114
   1f47c:	00190693          	add	a3,s2,1
   1f480:	7fe6f813          	and	a6,a3,2046
   1f484:	14081863          	bnez	a6,0x1f5d4
   1f488:	00b766b3          	or	a3,a4,a1
   1f48c:	28091c63          	bnez	s2,0x1f724
   1f490:	30068263          	beqz	a3,0x1f794
   1f494:	01e8e6b3          	or	a3,a7,t5
   1f498:	22068863          	beqz	a3,0x1f6c8
   1f49c:	01e587b3          	add	a5,a1,t5
   1f4a0:	00b7b5b3          	sltu	a1,a5,a1
   1f4a4:	01170733          	add	a4,a4,a7
   1f4a8:	00b70733          	add	a4,a4,a1
   1f4ac:	0037d813          	srl	a6,a5,0x3
   1f4b0:	00871793          	sll	a5,a4,0x8
   1f4b4:	00040e13          	mv	t3,s0
   1f4b8:	3407de63          	bgez	a5,0x1f814
   1f4bc:	ff8007b7          	lui	a5,0xff800
   1f4c0:	fff78793          	add	a5,a5,-1 # 0xff7fffff
   1f4c4:	00f77733          	and	a4,a4,a5
   1f4c8:	01d71793          	sll	a5,a4,0x1d
   1f4cc:	00375713          	srl	a4,a4,0x3
   1f4d0:	0107e833          	or	a6,a5,a6
   1f4d4:	01d77733          	and	a4,a4,t4
   1f4d8:	00100793          	li	a5,1
   1f4dc:	c39ff06f          	j	0x1f114
   1f4e0:	41e58833          	sub	a6,a1,t5
   1f4e4:	0105b7b3          	sltu	a5,a1,a6
   1f4e8:	411709b3          	sub	s3,a4,a7
   1f4ec:	40f989b3          	sub	s3,s3,a5
   1f4f0:	00899793          	sll	a5,s3,0x8
   1f4f4:	00080493          	mv	s1,a6
   1f4f8:	1007c663          	bltz	a5,0x1f604
   1f4fc:	01386833          	or	a6,a6,s3
   1f500:	b4081ee3          	bnez	a6,0x1f05c
   1f504:	00000e13          	li	t3,0
   1f508:	00000793          	li	a5,0
   1f50c:	00000713          	li	a4,0
   1f510:	c05ff06f          	j	0x1f114
   1f514:	7ff00513          	li	a0,2047
   1f518:	1aa30e63          	beq	t1,a0,0x1f6d4
   1f51c:	03800513          	li	a0,56
   1f520:	00100613          	li	a2,1
   1f524:	c8f544e3          	blt	a0,a5,0x1f1ac
   1f528:	00800637          	lui	a2,0x800
   1f52c:	00c76733          	or	a4,a4,a2
   1f530:	c4dff06f          	j	0x1f17c
   1f534:	ff8009b7          	lui	s3,0xff800
   1f538:	fff98993          	add	s3,s3,-1 # 0xff7fffff
   1f53c:	40f90933          	sub	s2,s2,a5
   1f540:	013779b3          	and	s3,a4,s3
   1f544:	b71ff06f          	j	0x1f0b4
   1f548:	fe078693          	add	a3,a5,-32
   1f54c:	02000613          	li	a2,32
   1f550:	00d8d6b3          	srl	a3,a7,a3
   1f554:	00c78a63          	beq	a5,a2,0x1f568
   1f558:	04000613          	li	a2,64
   1f55c:	40f607b3          	sub	a5,a2,a5
   1f560:	00f897b3          	sll	a5,a7,a5
   1f564:	00ff6f33          	or	t5,t5,a5
   1f568:	01e03633          	snez	a2,t5
   1f56c:	00d66633          	or	a2,a2,a3
   1f570:	ac9ff06f          	j	0x1f038
   1f574:	ff8006b7          	lui	a3,0xff800
   1f578:	fff68693          	add	a3,a3,-1 # 0xff7fffff
   1f57c:	40f907b3          	sub	a5,s2,a5
   1f580:	00d77733          	and	a4,a4,a3
   1f584:	01d71813          	sll	a6,a4,0x1d
   1f588:	01386833          	or	a6,a6,s3
   1f58c:	00375713          	srl	a4,a4,0x3
   1f590:	ed9ff06f          	j	0x1f468
   1f594:	00b766b3          	or	a3,a4,a1
   1f598:	1e068663          	beqz	a3,0x1f784
   1f59c:	fff78693          	add	a3,a5,-1
   1f5a0:	0a068e63          	beqz	a3,0x1f65c
   1f5a4:	7ff00513          	li	a0,2047
   1f5a8:	14a78063          	beq	a5,a0,0x1f6e8
   1f5ac:	03800793          	li	a5,56
   1f5b0:	00100993          	li	s3,1
   1f5b4:	e4d7c6e3          	blt	a5,a3,0x1f400
   1f5b8:	00068793          	mv	a5,a3
   1f5bc:	e15ff06f          	j	0x1f3d0
   1f5c0:	00040e13          	mv	t3,s0
   1f5c4:	7ff00793          	li	a5,2047
   1f5c8:	00000713          	li	a4,0
   1f5cc:	00000813          	li	a6,0
   1f5d0:	b45ff06f          	j	0x1f114
   1f5d4:	7ff00793          	li	a5,2047
   1f5d8:	fef684e3          	beq	a3,a5,0x1f5c0
   1f5dc:	01e58f33          	add	t5,a1,t5
   1f5e0:	00bf35b3          	sltu	a1,t5,a1
   1f5e4:	011707b3          	add	a5,a4,a7
   1f5e8:	00b787b3          	add	a5,a5,a1
   1f5ec:	01f79613          	sll	a2,a5,0x1f
   1f5f0:	001f5f13          	srl	t5,t5,0x1
   1f5f4:	01e664b3          	or	s1,a2,t5
   1f5f8:	0017d993          	srl	s3,a5,0x1
   1f5fc:	00068913          	mv	s2,a3
   1f600:	ab5ff06f          	j	0x1f0b4
   1f604:	40bf0633          	sub	a2,t5,a1
   1f608:	40e887b3          	sub	a5,a7,a4
   1f60c:	00cf3733          	sltu	a4,t5,a2
   1f610:	00060493          	mv	s1,a2
   1f614:	40e789b3          	sub	s3,a5,a4
   1f618:	00068413          	mv	s0,a3
   1f61c:	a41ff06f          	j	0x1f05c
   1f620:	00361613          	sll	a2,a2,0x3
   1f624:	00365613          	srl	a2,a2,0x3
   1f628:	00068413          	mv	s0,a3
   1f62c:	00088713          	mv	a4,a7
   1f630:	e25ff06f          	j	0x1f454
   1f634:	de0312e3          	bnez	t1,0x1f418
   1f638:	1c080663          	beqz	a6,0x1f804
   1f63c:	0038d713          	srl	a4,a7,0x3
   1f640:	00361613          	sll	a2,a2,0x3
   1f644:	01d89893          	sll	a7,a7,0x1d
   1f648:	01176733          	or	a4,a4,a7
   1f64c:	00365613          	srl	a2,a2,0x3
   1f650:	00c76733          	or	a4,a4,a2
   1f654:	00068413          	mv	s0,a3
   1f658:	dddff06f          	j	0x1f434
   1f65c:	01e58f33          	add	t5,a1,t5
   1f660:	011708b3          	add	a7,a4,a7
   1f664:	00bf35b3          	sltu	a1,t5,a1
   1f668:	00b889b3          	add	s3,a7,a1
   1f66c:	00899793          	sll	a5,s3,0x8
   1f670:	000f0493          	mv	s1,t5
   1f674:	0e07d463          	bgez	a5,0x1f75c
   1f678:	00200913          	li	s2,2
   1f67c:	bd1ff06f          	j	0x1f24c
   1f680:	41e58f33          	sub	t5,a1,t5
   1f684:	411708b3          	sub	a7,a4,a7
   1f688:	01e5b5b3          	sltu	a1,a1,t5
   1f68c:	000f0493          	mv	s1,t5
   1f690:	40b889b3          	sub	s3,a7,a1
   1f694:	00100913          	li	s2,1
   1f698:	9b1ff06f          	j	0x1f048
   1f69c:	fe078693          	add	a3,a5,-32
   1f6a0:	02000613          	li	a2,32
   1f6a4:	00d8d6b3          	srl	a3,a7,a3
   1f6a8:	00c78a63          	beq	a5,a2,0x1f6bc
   1f6ac:	04000613          	li	a2,64
   1f6b0:	40f607b3          	sub	a5,a2,a5
   1f6b4:	00f897b3          	sll	a5,a7,a5
   1f6b8:	00ff6f33          	or	t5,t5,a5
   1f6bc:	01e039b3          	snez	s3,t5
   1f6c0:	00d9e9b3          	or	s3,s3,a3
   1f6c4:	b65ff06f          	j	0x1f228
   1f6c8:	00351613          	sll	a2,a0,0x3
   1f6cc:	00365993          	srl	s3,a2,0x3
   1f6d0:	eb5ff06f          	j	0x1f584
   1f6d4:	00361613          	sll	a2,a2,0x3
   1f6d8:	00365613          	srl	a2,a2,0x3
   1f6dc:	00068413          	mv	s0,a3
   1f6e0:	00088713          	mv	a4,a7
   1f6e4:	d41ff06f          	j	0x1f424
   1f6e8:	00361613          	sll	a2,a2,0x3
   1f6ec:	00365613          	srl	a2,a2,0x3
   1f6f0:	00088713          	mv	a4,a7
   1f6f4:	d31ff06f          	j	0x1f424
   1f6f8:	fe078513          	add	a0,a5,-32
   1f6fc:	02000613          	li	a2,32
   1f700:	00a75533          	srl	a0,a4,a0
   1f704:	00c78a63          	beq	a5,a2,0x1f718
   1f708:	04000613          	li	a2,64
   1f70c:	40f607b3          	sub	a5,a2,a5
   1f710:	00f717b3          	sll	a5,a4,a5
   1f714:	00f5e5b3          	or	a1,a1,a5
   1f718:	00b03633          	snez	a2,a1
   1f71c:	00a66633          	or	a2,a2,a0
   1f720:	a8dff06f          	j	0x1f1ac
   1f724:	fc0682e3          	beqz	a3,0x1f6e8
   1f728:	01e8ef33          	or	t5,a7,t5
   1f72c:	d00f16e3          	bnez	t5,0x1f438
   1f730:	cedff06f          	j	0x1f41c
   1f734:	dc0808e3          	beqz	a6,0x1f504
   1f738:	00361813          	sll	a6,a2,0x3
   1f73c:	01d89793          	sll	a5,a7,0x1d
   1f740:	00385813          	srl	a6,a6,0x3
   1f744:	0038d713          	srl	a4,a7,0x3
   1f748:	00f86833          	or	a6,a6,a5
   1f74c:	01d77733          	and	a4,a4,t4
   1f750:	00068e13          	mv	t3,a3
   1f754:	00000793          	li	a5,0
   1f758:	9bdff06f          	j	0x1f114
   1f75c:	00100793          	li	a5,1
   1f760:	c2dff06f          	j	0x1f38c
   1f764:	40bf05b3          	sub	a1,t5,a1
   1f768:	40e888b3          	sub	a7,a7,a4
   1f76c:	00bf3733          	sltu	a4,t5,a1
   1f770:	00058493          	mv	s1,a1
   1f774:	40e889b3          	sub	s3,a7,a4
   1f778:	00068413          	mv	s0,a3
   1f77c:	00100913          	li	s2,1
   1f780:	8c9ff06f          	j	0x1f048
   1f784:	00361613          	sll	a2,a2,0x3
   1f788:	00365613          	srl	a2,a2,0x3
   1f78c:	00088713          	mv	a4,a7
   1f790:	cc5ff06f          	j	0x1f454
   1f794:	00361613          	sll	a2,a2,0x3
   1f798:	00365993          	srl	s3,a2,0x3
   1f79c:	00088713          	mv	a4,a7
   1f7a0:	de5ff06f          	j	0x1f584
   1f7a4:	fe078693          	add	a3,a5,-32
   1f7a8:	02000613          	li	a2,32
   1f7ac:	00d756b3          	srl	a3,a4,a3
   1f7b0:	00c78a63          	beq	a5,a2,0x1f7c4
   1f7b4:	04000613          	li	a2,64
   1f7b8:	40f607b3          	sub	a5,a2,a5
   1f7bc:	00f717b3          	sll	a5,a4,a5
   1f7c0:	00f5e5b3          	or	a1,a1,a5
   1f7c4:	00b039b3          	snez	s3,a1
   1f7c8:	00d9e9b3          	or	s3,s3,a3
   1f7cc:	c35ff06f          	j	0x1f400
   1f7d0:	0034d613          	srl	a2,s1,0x3
   1f7d4:	00090793          	mv	a5,s2
   1f7d8:	00098713          	mv	a4,s3
   1f7dc:	c79ff06f          	j	0x1f454
   1f7e0:	02000693          	li	a3,32
   1f7e4:	40f686b3          	sub	a3,a3,a5
   1f7e8:	00000613          	li	a2,0
   1f7ec:	8b5ff06f          	j	0x1f0a0
   1f7f0:	00c9e833          	or	a6,s3,a2
   1f7f4:	d00808e3          	beqz	a6,0x1f504
   1f7f8:	0039d993          	srl	s3,s3,0x3
   1f7fc:	00060713          	mv	a4,a2
   1f800:	d85ff06f          	j	0x1f584
   1f804:	00000e13          	li	t3,0
   1f808:	7ff00793          	li	a5,2047
   1f80c:	00080737          	lui	a4,0x80
   1f810:	905ff06f          	j	0x1f114
   1f814:	01d71793          	sll	a5,a4,0x1d
   1f818:	00375713          	srl	a4,a4,0x3
   1f81c:	0107e833          	or	a6,a5,a6
   1f820:	01d77733          	and	a4,a4,t4
   1f824:	00000793          	li	a5,0
   1f828:	8edff06f          	j	0x1f114
   1f82c:	01d71813          	sll	a6,a4,0x1d
   1f830:	0035d593          	srl	a1,a1,0x3
   1f834:	00b86833          	or	a6,a6,a1
   1f838:	00375713          	srl	a4,a4,0x3
   1f83c:	00068413          	mv	s0,a3
   1f840:	c29ff06f          	j	0x1f468
   1f844:	fb010113          	add	sp,sp,-80
   1f848:	0145d793          	srl	a5,a1,0x14
   1f84c:	04812423          	sw	s0,72(sp)
   1f850:	04912223          	sw	s1,68(sp)
   1f854:	05212023          	sw	s2,64(sp)
   1f858:	03412c23          	sw	s4,56(sp)
   1f85c:	03512a23          	sw	s5,52(sp)
   1f860:	00c59493          	sll	s1,a1,0xc
   1f864:	04112623          	sw	ra,76(sp)
   1f868:	03312e23          	sw	s3,60(sp)
   1f86c:	03612823          	sw	s6,48(sp)
   1f870:	03712623          	sw	s7,44(sp)
   1f874:	03812423          	sw	s8,40(sp)
   1f878:	7ff7f793          	and	a5,a5,2047
   1f87c:	00050413          	mv	s0,a0
   1f880:	00060a13          	mv	s4,a2
   1f884:	00068913          	mv	s2,a3
   1f888:	00c4d493          	srl	s1,s1,0xc
   1f88c:	01f5da93          	srl	s5,a1,0x1f
   1f890:	18078c63          	beqz	a5,0x1fa28
   1f894:	7ff00713          	li	a4,2047
   1f898:	08e78a63          	beq	a5,a4,0x1f92c
   1f89c:	01d55b13          	srl	s6,a0,0x1d
   1f8a0:	00349493          	sll	s1,s1,0x3
   1f8a4:	009b64b3          	or	s1,s6,s1
   1f8a8:	00800737          	lui	a4,0x800
   1f8ac:	00e4eb33          	or	s6,s1,a4
   1f8b0:	00351b93          	sll	s7,a0,0x3
   1f8b4:	c0178993          	add	s3,a5,-1023
   1f8b8:	00000493          	li	s1,0
   1f8bc:	00000c13          	li	s8,0
   1f8c0:	01495793          	srl	a5,s2,0x14
   1f8c4:	00c91413          	sll	s0,s2,0xc
   1f8c8:	7ff7f793          	and	a5,a5,2047
   1f8cc:	00c45413          	srl	s0,s0,0xc
   1f8d0:	01f95913          	srl	s2,s2,0x1f
   1f8d4:	08078463          	beqz	a5,0x1f95c
   1f8d8:	7ff00713          	li	a4,2047
   1f8dc:	18e78c63          	beq	a5,a4,0x1fa74
   1f8e0:	00341413          	sll	s0,s0,0x3
   1f8e4:	01da5713          	srl	a4,s4,0x1d
   1f8e8:	00876733          	or	a4,a4,s0
   1f8ec:	c0178793          	add	a5,a5,-1023
   1f8f0:	00800437          	lui	s0,0x800
   1f8f4:	40f989b3          	sub	s3,s3,a5
   1f8f8:	00876433          	or	s0,a4,s0
   1f8fc:	003a1813          	sll	a6,s4,0x3
   1f900:	00000793          	li	a5,0
   1f904:	00f00713          	li	a4,15
   1f908:	012aca33          	xor	s4,s5,s2
   1f90c:	24976663          	bltu	a4,s1,0x1fb58
   1f910:	00003697          	auipc	a3,0x3
   1f914:	fdc68693          	add	a3,a3,-36 # 0x228ec
   1f918:	00249493          	sll	s1,s1,0x2
   1f91c:	00d484b3          	add	s1,s1,a3
   1f920:	0004a703          	lw	a4,0(s1)
   1f924:	00d70733          	add	a4,a4,a3
   1f928:	00070067          	jr	a4 # 0x800000
   1f92c:	00a4eb33          	or	s6,s1,a0
   1f930:	1c0b1e63          	bnez	s6,0x1fb0c
   1f934:	01495793          	srl	a5,s2,0x14
   1f938:	00c91413          	sll	s0,s2,0xc
   1f93c:	7ff7f793          	and	a5,a5,2047
   1f940:	00000b93          	li	s7,0
   1f944:	00800493          	li	s1,8
   1f948:	7ff00993          	li	s3,2047
   1f94c:	00200c13          	li	s8,2
   1f950:	00c45413          	srl	s0,s0,0xc
   1f954:	01f95913          	srl	s2,s2,0x1f
   1f958:	f80790e3          	bnez	a5,0x1f8d8
   1f95c:	01446833          	or	a6,s0,s4
   1f960:	1c080263          	beqz	a6,0x1fb24
   1f964:	5c040663          	beqz	s0,0x1ff30
   1f968:	00040513          	mv	a0,s0
   1f96c:	1b8020ef          	jal	0x21b24
   1f970:	00050793          	mv	a5,a0
   1f974:	ff550693          	add	a3,a0,-11
   1f978:	01d00713          	li	a4,29
   1f97c:	ff878813          	add	a6,a5,-8
   1f980:	40d70733          	sub	a4,a4,a3
   1f984:	01041433          	sll	s0,s0,a6
   1f988:	00ea5733          	srl	a4,s4,a4
   1f98c:	00876433          	or	s0,a4,s0
   1f990:	010a1833          	sll	a6,s4,a6
   1f994:	013787b3          	add	a5,a5,s3
   1f998:	3f378993          	add	s3,a5,1011
   1f99c:	00000793          	li	a5,0
   1f9a0:	f65ff06f          	j	0x1f904
   1f9a4:	40f70733          	sub	a4,a4,a5
   1f9a8:	03800693          	li	a3,56
   1f9ac:	60e6d063          	bge	a3,a4,0x1ffac
   1f9b0:	00000793          	li	a5,0
   1f9b4:	00000693          	li	a3,0
   1f9b8:	00000713          	li	a4,0
   1f9bc:	04c12083          	lw	ra,76(sp)
   1f9c0:	04812403          	lw	s0,72(sp)
   1f9c4:	01479793          	sll	a5,a5,0x14
   1f9c8:	00d7e7b3          	or	a5,a5,a3
   1f9cc:	01fa1693          	sll	a3,s4,0x1f
   1f9d0:	00d7e7b3          	or	a5,a5,a3
   1f9d4:	04412483          	lw	s1,68(sp)
   1f9d8:	04012903          	lw	s2,64(sp)
   1f9dc:	03c12983          	lw	s3,60(sp)
   1f9e0:	03812a03          	lw	s4,56(sp)
   1f9e4:	03412a83          	lw	s5,52(sp)
   1f9e8:	03012b03          	lw	s6,48(sp)
   1f9ec:	02c12b83          	lw	s7,44(sp)
   1f9f0:	02812c03          	lw	s8,40(sp)
   1f9f4:	00070513          	mv	a0,a4
   1f9f8:	00078593          	mv	a1,a5
   1f9fc:	05010113          	add	sp,sp,80
   1fa00:	00008067          	ret
   1fa04:	7ff00793          	li	a5,2047
   1fa08:	00000693          	li	a3,0
   1fa0c:	00000713          	li	a4,0
   1fa10:	fadff06f          	j	0x1f9bc
   1fa14:	00000a13          	li	s4,0
   1fa18:	7ff00793          	li	a5,2047
   1fa1c:	000806b7          	lui	a3,0x80
   1fa20:	00000713          	li	a4,0
   1fa24:	f99ff06f          	j	0x1f9bc
   1fa28:	00a4eb33          	or	s6,s1,a0
   1fa2c:	100b0c63          	beqz	s6,0x1fb44
   1fa30:	52048463          	beqz	s1,0x1ff58
   1fa34:	00048513          	mv	a0,s1
   1fa38:	0ec020ef          	jal	0x21b24
   1fa3c:	00050713          	mv	a4,a0
   1fa40:	ff550793          	add	a5,a0,-11
   1fa44:	01d00b13          	li	s6,29
   1fa48:	ff870b93          	add	s7,a4,-8
   1fa4c:	40fb0b33          	sub	s6,s6,a5
   1fa50:	017494b3          	sll	s1,s1,s7
   1fa54:	01645b33          	srl	s6,s0,s6
   1fa58:	009b6b33          	or	s6,s6,s1
   1fa5c:	01741bb3          	sll	s7,s0,s7
   1fa60:	c0d00793          	li	a5,-1011
   1fa64:	40e789b3          	sub	s3,a5,a4
   1fa68:	00000493          	li	s1,0
   1fa6c:	00000c13          	li	s8,0
   1fa70:	e51ff06f          	j	0x1f8c0
   1fa74:	01446833          	or	a6,s0,s4
   1fa78:	80198993          	add	s3,s3,-2047
   1fa7c:	0a081c63          	bnez	a6,0x1fb34
   1fa80:	0024e493          	or	s1,s1,2
   1fa84:	00000413          	li	s0,0
   1fa88:	00200793          	li	a5,2
   1fa8c:	e79ff06f          	j	0x1f904
   1fa90:	000a8913          	mv	s2,s5
   1fa94:	000b0413          	mv	s0,s6
   1fa98:	000b8813          	mv	a6,s7
   1fa9c:	00200793          	li	a5,2
   1faa0:	60fc0863          	beq	s8,a5,0x200b0
   1faa4:	00300793          	li	a5,3
   1faa8:	f6fc06e3          	beq	s8,a5,0x1fa14
   1faac:	00100793          	li	a5,1
   1fab0:	00090a13          	mv	s4,s2
   1fab4:	eefc0ee3          	beq	s8,a5,0x1f9b0
   1fab8:	3ff98793          	add	a5,s3,1023
   1fabc:	3cf05263          	blez	a5,0x1fe80
   1fac0:	00787713          	and	a4,a6,7
   1fac4:	5c071663          	bnez	a4,0x20090
   1fac8:	00741713          	sll	a4,s0,0x7
   1facc:	00075a63          	bgez	a4,0x1fae0
   1fad0:	ff0007b7          	lui	a5,0xff000
   1fad4:	fff78793          	add	a5,a5,-1 # 0xfeffffff
   1fad8:	00f47433          	and	s0,s0,a5
   1fadc:	40098793          	add	a5,s3,1024
   1fae0:	7fe00713          	li	a4,2046
   1fae4:	f2f740e3          	blt	a4,a5,0x1fa04
   1fae8:	00385813          	srl	a6,a6,0x3
   1faec:	01d41713          	sll	a4,s0,0x1d
   1faf0:	00941693          	sll	a3,s0,0x9
   1faf4:	01076733          	or	a4,a4,a6
   1faf8:	00c6d693          	srl	a3,a3,0xc
   1fafc:	7ff7f793          	and	a5,a5,2047
   1fb00:	ebdff06f          	j	0x1f9bc
   1fb04:	00078c13          	mv	s8,a5
   1fb08:	f95ff06f          	j	0x1fa9c
   1fb0c:	00048b13          	mv	s6,s1
   1fb10:	00050b93          	mv	s7,a0
   1fb14:	00c00493          	li	s1,12
   1fb18:	7ff00993          	li	s3,2047
   1fb1c:	00300c13          	li	s8,3
   1fb20:	da1ff06f          	j	0x1f8c0
   1fb24:	0014e493          	or	s1,s1,1
   1fb28:	00000413          	li	s0,0
   1fb2c:	00100793          	li	a5,1
   1fb30:	dd5ff06f          	j	0x1f904
   1fb34:	0034e493          	or	s1,s1,3
   1fb38:	000a0813          	mv	a6,s4
   1fb3c:	00300793          	li	a5,3
   1fb40:	dc5ff06f          	j	0x1f904
   1fb44:	00000b93          	li	s7,0
   1fb48:	00400493          	li	s1,4
   1fb4c:	00000993          	li	s3,0
   1fb50:	00100c13          	li	s8,1
   1fb54:	d6dff06f          	j	0x1f8c0
   1fb58:	03912223          	sw	s9,36(sp)
   1fb5c:	03a12023          	sw	s10,32(sp)
   1fb60:	01b12e23          	sw	s11,28(sp)
   1fb64:	3b646a63          	bltu	s0,s6,0x1ff18
   1fb68:	3a8b0663          	beq	s6,s0,0x1ff14
   1fb6c:	fff98993          	add	s3,s3,-1
   1fb70:	000b8c13          	mv	s8,s7
   1fb74:	000b0493          	mv	s1,s6
   1fb78:	00000d13          	li	s10,0
   1fb7c:	01885c93          	srl	s9,a6,0x18
   1fb80:	00841413          	sll	s0,s0,0x8
   1fb84:	01045913          	srl	s2,s0,0x10
   1fb88:	008cecb3          	or	s9,s9,s0
   1fb8c:	00090593          	mv	a1,s2
   1fb90:	00048513          	mv	a0,s1
   1fb94:	010c9b13          	sll	s6,s9,0x10
   1fb98:	00881a93          	sll	s5,a6,0x8
   1fb9c:	010b5b13          	srl	s6,s6,0x10
   1fba0:	6d9010ef          	jal	0x21a78
   1fba4:	00050593          	mv	a1,a0
   1fba8:	00050413          	mv	s0,a0
   1fbac:	000b0513          	mv	a0,s6
   1fbb0:	69d010ef          	jal	0x21a4c
   1fbb4:	00050793          	mv	a5,a0
   1fbb8:	00090593          	mv	a1,s2
   1fbbc:	00048513          	mv	a0,s1
   1fbc0:	00078493          	mv	s1,a5
   1fbc4:	6fd010ef          	jal	0x21ac0
   1fbc8:	01051513          	sll	a0,a0,0x10
   1fbcc:	010c5793          	srl	a5,s8,0x10
   1fbd0:	00a7e7b3          	or	a5,a5,a0
   1fbd4:	0097fa63          	bgeu	a5,s1,0x1fbe8
   1fbd8:	00fc87b3          	add	a5,s9,a5
   1fbdc:	fff40713          	add	a4,s0,-1 # 0x7fffff
   1fbe0:	3b97fe63          	bgeu	a5,s9,0x1ff9c
   1fbe4:	00070413          	mv	s0,a4
   1fbe8:	409784b3          	sub	s1,a5,s1
   1fbec:	00090593          	mv	a1,s2
   1fbf0:	00048513          	mv	a0,s1
   1fbf4:	685010ef          	jal	0x21a78
   1fbf8:	00050593          	mv	a1,a0
   1fbfc:	00050b93          	mv	s7,a0
   1fc00:	000b0513          	mv	a0,s6
   1fc04:	649010ef          	jal	0x21a4c
   1fc08:	00050793          	mv	a5,a0
   1fc0c:	00090593          	mv	a1,s2
   1fc10:	00048513          	mv	a0,s1
   1fc14:	00078493          	mv	s1,a5
   1fc18:	6a9010ef          	jal	0x21ac0
   1fc1c:	010c1793          	sll	a5,s8,0x10
   1fc20:	01051513          	sll	a0,a0,0x10
   1fc24:	0107d793          	srl	a5,a5,0x10
   1fc28:	00a7e7b3          	or	a5,a5,a0
   1fc2c:	0097fa63          	bgeu	a5,s1,0x1fc40
   1fc30:	00fc87b3          	add	a5,s9,a5
   1fc34:	fffb8713          	add	a4,s7,-1
   1fc38:	3597fa63          	bgeu	a5,s9,0x1ff8c
   1fc3c:	00070b93          	mv	s7,a4
   1fc40:	00010337          	lui	t1,0x10
   1fc44:	01041413          	sll	s0,s0,0x10
   1fc48:	01746433          	or	s0,s0,s7
   1fc4c:	fff30d93          	add	s11,t1,-1 # 0xffff
   1fc50:	01b478b3          	and	a7,s0,s11
   1fc54:	01bafdb3          	and	s11,s5,s11
   1fc58:	40978bb3          	sub	s7,a5,s1
   1fc5c:	010adc13          	srl	s8,s5,0x10
   1fc60:	01045793          	srl	a5,s0,0x10
   1fc64:	00088513          	mv	a0,a7
   1fc68:	000d8593          	mv	a1,s11
   1fc6c:	5e1010ef          	jal	0x21a4c
   1fc70:	00050813          	mv	a6,a0
   1fc74:	000c0593          	mv	a1,s8
   1fc78:	00088513          	mv	a0,a7
   1fc7c:	5d1010ef          	jal	0x21a4c
   1fc80:	00050893          	mv	a7,a0
   1fc84:	000d8593          	mv	a1,s11
   1fc88:	00078513          	mv	a0,a5
   1fc8c:	5c1010ef          	jal	0x21a4c
   1fc90:	00050e13          	mv	t3,a0
   1fc94:	000c0593          	mv	a1,s8
   1fc98:	00078513          	mv	a0,a5
   1fc9c:	5b1010ef          	jal	0x21a4c
   1fca0:	01085793          	srl	a5,a6,0x10
   1fca4:	01c888b3          	add	a7,a7,t3
   1fca8:	011787b3          	add	a5,a5,a7
   1fcac:	01c7f463          	bgeu	a5,t3,0x1fcb4
   1fcb0:	00650533          	add	a0,a0,t1
   1fcb4:	00010637          	lui	a2,0x10
   1fcb8:	fff60613          	add	a2,a2,-1 # 0xffff
   1fcbc:	00c7f4b3          	and	s1,a5,a2
   1fcc0:	0107d693          	srl	a3,a5,0x10
   1fcc4:	01049493          	sll	s1,s1,0x10
   1fcc8:	00c87833          	and	a6,a6,a2
   1fccc:	00a687b3          	add	a5,a3,a0
   1fcd0:	010484b3          	add	s1,s1,a6
   1fcd4:	20fbea63          	bltu	s7,a5,0x1fee8
   1fcd8:	20fb8663          	beq	s7,a5,0x1fee4
   1fcdc:	409d04b3          	sub	s1,s10,s1
   1fce0:	40fb8bb3          	sub	s7,s7,a5
   1fce4:	009d3d33          	sltu	s10,s10,s1
   1fce8:	41ab8bb3          	sub	s7,s7,s10
   1fcec:	377c8a63          	beq	s9,s7,0x20060
   1fcf0:	00090593          	mv	a1,s2
   1fcf4:	000b8513          	mv	a0,s7
   1fcf8:	581010ef          	jal	0x21a78
   1fcfc:	00050593          	mv	a1,a0
   1fd00:	00a12623          	sw	a0,12(sp)
   1fd04:	00050d13          	mv	s10,a0
   1fd08:	000b0513          	mv	a0,s6
   1fd0c:	541010ef          	jal	0x21a4c
   1fd10:	00050793          	mv	a5,a0
   1fd14:	00090593          	mv	a1,s2
   1fd18:	000b8513          	mv	a0,s7
   1fd1c:	00078b93          	mv	s7,a5
   1fd20:	5a1010ef          	jal	0x21ac0
   1fd24:	01051513          	sll	a0,a0,0x10
   1fd28:	0104d793          	srl	a5,s1,0x10
   1fd2c:	00a7e7b3          	or	a5,a5,a0
   1fd30:	0377f063          	bgeu	a5,s7,0x1fd50
   1fd34:	00fc87b3          	add	a5,s9,a5
   1fd38:	fffd0693          	add	a3,s10,-1
   1fd3c:	3797e263          	bltu	a5,s9,0x200a0
   1fd40:	3777f063          	bgeu	a5,s7,0x200a0
   1fd44:	ffed0713          	add	a4,s10,-2
   1fd48:	00e12623          	sw	a4,12(sp)
   1fd4c:	019787b3          	add	a5,a5,s9
   1fd50:	41778bb3          	sub	s7,a5,s7
   1fd54:	00090593          	mv	a1,s2
   1fd58:	000b8513          	mv	a0,s7
   1fd5c:	51d010ef          	jal	0x21a78
   1fd60:	00050593          	mv	a1,a0
   1fd64:	00050d13          	mv	s10,a0
   1fd68:	000b0513          	mv	a0,s6
   1fd6c:	4e1010ef          	jal	0x21a4c
   1fd70:	00050793          	mv	a5,a0
   1fd74:	00090593          	mv	a1,s2
   1fd78:	000b8513          	mv	a0,s7
   1fd7c:	00078913          	mv	s2,a5
   1fd80:	01049493          	sll	s1,s1,0x10
   1fd84:	53d010ef          	jal	0x21ac0
   1fd88:	01051513          	sll	a0,a0,0x10
   1fd8c:	0104d493          	srl	s1,s1,0x10
   1fd90:	00a4e4b3          	or	s1,s1,a0
   1fd94:	0124fe63          	bgeu	s1,s2,0x1fdb0
   1fd98:	009c84b3          	add	s1,s9,s1
   1fd9c:	fffd0793          	add	a5,s10,-1
   1fda0:	3194e463          	bltu	s1,s9,0x200a8
   1fda4:	3124f263          	bgeu	s1,s2,0x200a8
   1fda8:	ffed0d13          	add	s10,s10,-2
   1fdac:	019484b3          	add	s1,s1,s9
   1fdb0:	00c12783          	lw	a5,12(sp)
   1fdb4:	412484b3          	sub	s1,s1,s2
   1fdb8:	000d8593          	mv	a1,s11
   1fdbc:	01079813          	sll	a6,a5,0x10
   1fdc0:	01a86833          	or	a6,a6,s10
   1fdc4:	01081313          	sll	t1,a6,0x10
   1fdc8:	01035313          	srl	t1,t1,0x10
   1fdcc:	01085793          	srl	a5,a6,0x10
   1fdd0:	00030513          	mv	a0,t1
   1fdd4:	479010ef          	jal	0x21a4c
   1fdd8:	00050893          	mv	a7,a0
   1fddc:	000c0593          	mv	a1,s8
   1fde0:	00030513          	mv	a0,t1
   1fde4:	469010ef          	jal	0x21a4c
   1fde8:	00050313          	mv	t1,a0
   1fdec:	000d8593          	mv	a1,s11
   1fdf0:	00078513          	mv	a0,a5
   1fdf4:	459010ef          	jal	0x21a4c
   1fdf8:	00050e13          	mv	t3,a0
   1fdfc:	000c0593          	mv	a1,s8
   1fe00:	00078513          	mv	a0,a5
   1fe04:	449010ef          	jal	0x21a4c
   1fe08:	0108d793          	srl	a5,a7,0x10
   1fe0c:	01c30333          	add	t1,t1,t3
   1fe10:	006787b3          	add	a5,a5,t1
   1fe14:	01c7f663          	bgeu	a5,t3,0x1fe20
   1fe18:	00010737          	lui	a4,0x10
   1fe1c:	00e50533          	add	a0,a0,a4
   1fe20:	000106b7          	lui	a3,0x10
   1fe24:	fff68693          	add	a3,a3,-1 # 0xffff
   1fe28:	0107d713          	srl	a4,a5,0x10
   1fe2c:	00d7f7b3          	and	a5,a5,a3
   1fe30:	01079793          	sll	a5,a5,0x10
   1fe34:	00d8f8b3          	and	a7,a7,a3
   1fe38:	00a70733          	add	a4,a4,a0
   1fe3c:	011787b3          	add	a5,a5,a7
   1fe40:	02e4e063          	bltu	s1,a4,0x1fe60
   1fe44:	00e48c63          	beq	s1,a4,0x1fe5c
   1fe48:	02412c83          	lw	s9,36(sp)
   1fe4c:	02012d03          	lw	s10,32(sp)
   1fe50:	01c12d83          	lw	s11,28(sp)
   1fe54:	00186813          	or	a6,a6,1
   1fe58:	c61ff06f          	j	0x1fab8
   1fe5c:	1c078a63          	beqz	a5,0x20030
   1fe60:	009c84b3          	add	s1,s9,s1
   1fe64:	fff80613          	add	a2,a6,-1
   1fe68:	00048693          	mv	a3,s1
   1fe6c:	1b94ec63          	bltu	s1,s9,0x20024
   1fe70:	24e4ea63          	bltu	s1,a4,0x200c4
   1fe74:	26e48863          	beq	s1,a4,0x200e4
   1fe78:	00060813          	mv	a6,a2
   1fe7c:	fcdff06f          	j	0x1fe48
   1fe80:	00100713          	li	a4,1
   1fe84:	b20790e3          	bnez	a5,0x1f9a4
   1fe88:	41e98793          	add	a5,s3,1054
   1fe8c:	00f816b3          	sll	a3,a6,a5
   1fe90:	00d036b3          	snez	a3,a3
   1fe94:	00f417b3          	sll	a5,s0,a5
   1fe98:	00f6e7b3          	or	a5,a3,a5
   1fe9c:	00e85833          	srl	a6,a6,a4
   1fea0:	00f86833          	or	a6,a6,a5
   1fea4:	00787793          	and	a5,a6,7
   1fea8:	00e45433          	srl	s0,s0,a4
   1feac:	02078063          	beqz	a5,0x1fecc
   1feb0:	00f87793          	and	a5,a6,15
   1feb4:	00400713          	li	a4,4
   1feb8:	00e78a63          	beq	a5,a4,0x1fecc
   1febc:	00480793          	add	a5,a6,4
   1fec0:	0107b833          	sltu	a6,a5,a6
   1fec4:	01040433          	add	s0,s0,a6
   1fec8:	00078813          	mv	a6,a5
   1fecc:	00841613          	sll	a2,s0,0x8
   1fed0:	00100793          	li	a5,1
   1fed4:	00000693          	li	a3,0
   1fed8:	00000713          	li	a4,0
   1fedc:	ae0640e3          	bltz	a2,0x1f9bc
   1fee0:	1280006f          	j	0x20008
   1fee4:	de9d7ce3          	bgeu	s10,s1,0x1fcdc
   1fee8:	015d06b3          	add	a3,s10,s5
   1feec:	01a6b633          	sltu	a2,a3,s10
   1fef0:	019605b3          	add	a1,a2,s9
   1fef4:	00bb8bb3          	add	s7,s7,a1
   1fef8:	00068d13          	mv	s10,a3
   1fefc:	fff40593          	add	a1,s0,-1
   1ff00:	077cfe63          	bgeu	s9,s7,0x1ff7c
   1ff04:	14fbe063          	bltu	s7,a5,0x20044
   1ff08:	13778c63          	beq	a5,s7,0x20040
   1ff0c:	00058413          	mv	s0,a1
   1ff10:	dcdff06f          	j	0x1fcdc
   1ff14:	c50bece3          	bltu	s7,a6,0x1fb6c
   1ff18:	01fb1c13          	sll	s8,s6,0x1f
   1ff1c:	001bd713          	srl	a4,s7,0x1
   1ff20:	001b5493          	srl	s1,s6,0x1
   1ff24:	00ec6c33          	or	s8,s8,a4
   1ff28:	01fb9d13          	sll	s10,s7,0x1f
   1ff2c:	c51ff06f          	j	0x1fb7c
   1ff30:	000a0513          	mv	a0,s4
   1ff34:	3f1010ef          	jal	0x21b24
   1ff38:	01550693          	add	a3,a0,21
   1ff3c:	01c00713          	li	a4,28
   1ff40:	02050793          	add	a5,a0,32
   1ff44:	a2d75ae3          	bge	a4,a3,0x1f978
   1ff48:	ff850513          	add	a0,a0,-8
   1ff4c:	00000813          	li	a6,0
   1ff50:	00aa1433          	sll	s0,s4,a0
   1ff54:	a41ff06f          	j	0x1f994
   1ff58:	3cd010ef          	jal	0x21b24
   1ff5c:	01550793          	add	a5,a0,21
   1ff60:	01c00693          	li	a3,28
   1ff64:	02050713          	add	a4,a0,32
   1ff68:	acf6dee3          	bge	a3,a5,0x1fa44
   1ff6c:	ff850493          	add	s1,a0,-8
   1ff70:	00941b33          	sll	s6,s0,s1
   1ff74:	00000b93          	li	s7,0
   1ff78:	ae9ff06f          	j	0x1fa60
   1ff7c:	f97c98e3          	bne	s9,s7,0x1ff0c
   1ff80:	f80602e3          	beqz	a2,0x1ff04
   1ff84:	00058413          	mv	s0,a1
   1ff88:	d55ff06f          	j	0x1fcdc
   1ff8c:	ca97f8e3          	bgeu	a5,s1,0x1fc3c
   1ff90:	ffeb8b93          	add	s7,s7,-2
   1ff94:	019787b3          	add	a5,a5,s9
   1ff98:	ca9ff06f          	j	0x1fc40
   1ff9c:	c497f4e3          	bgeu	a5,s1,0x1fbe4
   1ffa0:	ffe40413          	add	s0,s0,-2
   1ffa4:	019787b3          	add	a5,a5,s9
   1ffa8:	c41ff06f          	j	0x1fbe8
   1ffac:	01f00693          	li	a3,31
   1ffb0:	ece6dce3          	bge	a3,a4,0x1fe88
   1ffb4:	fe100693          	li	a3,-31
   1ffb8:	40f686b3          	sub	a3,a3,a5
   1ffbc:	02000793          	li	a5,32
   1ffc0:	00d456b3          	srl	a3,s0,a3
   1ffc4:	00f70863          	beq	a4,a5,0x1ffd4
   1ffc8:	43e98793          	add	a5,s3,1086
   1ffcc:	00f417b3          	sll	a5,s0,a5
   1ffd0:	00f86833          	or	a6,a6,a5
   1ffd4:	01003833          	snez	a6,a6
   1ffd8:	00d86833          	or	a6,a6,a3
   1ffdc:	00787713          	and	a4,a6,7
   1ffe0:	00000693          	li	a3,0
   1ffe4:	02070863          	beqz	a4,0x20014
   1ffe8:	00f87793          	and	a5,a6,15
   1ffec:	00400713          	li	a4,4
   1fff0:	00000413          	li	s0,0
   1fff4:	00e78a63          	beq	a5,a4,0x20008
   1fff8:	00480793          	add	a5,a6,4
   1fffc:	0107b833          	sltu	a6,a5,a6
   20000:	01003433          	snez	s0,a6
   20004:	00078813          	mv	a6,a5
   20008:	00941693          	sll	a3,s0,0x9
   2000c:	01d41713          	sll	a4,s0,0x1d
   20010:	00c6d693          	srl	a3,a3,0xc
   20014:	00385813          	srl	a6,a6,0x3
   20018:	00e86733          	or	a4,a6,a4
   2001c:	00000793          	li	a5,0
   20020:	99dff06f          	j	0x1f9bc
   20024:	00060813          	mv	a6,a2
   20028:	e2e690e3          	bne	a3,a4,0x1fe48
   2002c:	e1579ee3          	bne	a5,s5,0x1fe48
   20030:	02412c83          	lw	s9,36(sp)
   20034:	02012d03          	lw	s10,32(sp)
   20038:	01c12d83          	lw	s11,28(sp)
   2003c:	a7dff06f          	j	0x1fab8
   20040:	ec96f6e3          	bgeu	a3,s1,0x1ff0c
   20044:	00da86b3          	add	a3,s5,a3
   20048:	0156b633          	sltu	a2,a3,s5
   2004c:	01960633          	add	a2,a2,s9
   20050:	ffe40413          	add	s0,s0,-2
   20054:	00068d13          	mv	s10,a3
   20058:	00cb8bb3          	add	s7,s7,a2
   2005c:	c81ff06f          	j	0x1fcdc
   20060:	c0200713          	li	a4,-1022
   20064:	02412c83          	lw	s9,36(sp)
   20068:	02012d03          	lw	s10,32(sp)
   2006c:	01c12d83          	lw	s11,28(sp)
   20070:	3ff98793          	add	a5,s3,1023
   20074:	fff00813          	li	a6,-1
   20078:	e0e9c4e3          	blt	s3,a4,0x1fe80
   2007c:	00480713          	add	a4,a6,4
   20080:	01073833          	sltu	a6,a4,a6
   20084:	01040433          	add	s0,s0,a6
   20088:	00070813          	mv	a6,a4
   2008c:	a3dff06f          	j	0x1fac8
   20090:	00f87713          	and	a4,a6,15
   20094:	00400693          	li	a3,4
   20098:	a2d708e3          	beq	a4,a3,0x1fac8
   2009c:	fe1ff06f          	j	0x2007c
   200a0:	00d12623          	sw	a3,12(sp)
   200a4:	cadff06f          	j	0x1fd50
   200a8:	00078d13          	mv	s10,a5
   200ac:	d05ff06f          	j	0x1fdb0
   200b0:	00090a13          	mv	s4,s2
   200b4:	7ff00793          	li	a5,2047
   200b8:	00000693          	li	a3,0
   200bc:	00000713          	li	a4,0
   200c0:	8fdff06f          	j	0x1f9bc
   200c4:	001a9613          	sll	a2,s5,0x1
   200c8:	015636b3          	sltu	a3,a2,s5
   200cc:	019686b3          	add	a3,a3,s9
   200d0:	00d486b3          	add	a3,s1,a3
   200d4:	ffe80813          	add	a6,a6,-2
   200d8:	00060a93          	mv	s5,a2
   200dc:	f4e688e3          	beq	a3,a4,0x2002c
   200e0:	d69ff06f          	j	0x1fe48
   200e4:	fefae0e3          	bltu	s5,a5,0x200c4
   200e8:	00060813          	mv	a6,a2
   200ec:	f41ff06f          	j	0x2002c
   200f0:	0145d713          	srl	a4,a1,0x14
   200f4:	001007b7          	lui	a5,0x100
   200f8:	fff78793          	add	a5,a5,-1 # 0xfffff
   200fc:	0146d813          	srl	a6,a3,0x14
   20100:	7ff77713          	and	a4,a4,2047
   20104:	7ff00313          	li	t1,2047
   20108:	00b7fe33          	and	t3,a5,a1
   2010c:	00050893          	mv	a7,a0
   20110:	00d7f7b3          	and	a5,a5,a3
   20114:	01f5d593          	srl	a1,a1,0x1f
   20118:	7ff87813          	and	a6,a6,2047
   2011c:	01f6d693          	srl	a3,a3,0x1f
   20120:	00100513          	li	a0,1
   20124:	00670c63          	beq	a4,t1,0x2013c
   20128:	00680863          	beq	a6,t1,0x20138
   2012c:	01071463          	bne	a4,a6,0x20134
   20130:	02fe0663          	beq	t3,a5,0x2015c
   20134:	00008067          	ret
   20138:	00008067          	ret
   2013c:	fee81ce3          	bne	a6,a4,0x20134
   20140:	00fe67b3          	or	a5,t3,a5
   20144:	00c7e7b3          	or	a5,a5,a2
   20148:	0117e7b3          	or	a5,a5,a7
   2014c:	fe0794e3          	bnez	a5,0x20134
   20150:	40d585b3          	sub	a1,a1,a3
   20154:	00b03533          	snez	a0,a1
   20158:	00008067          	ret
   2015c:	fcc89ce3          	bne	a7,a2,0x20134
   20160:	00d58a63          	beq	a1,a3,0x20174
   20164:	fc0718e3          	bnez	a4,0x20134
   20168:	011e6e33          	or	t3,t3,a7
   2016c:	01c03533          	snez	a0,t3
   20170:	00008067          	ret
   20174:	00000513          	li	a0,0
   20178:	00008067          	ret
   2017c:	0145d893          	srl	a7,a1,0x14
   20180:	001007b7          	lui	a5,0x100
   20184:	fff78793          	add	a5,a5,-1 # 0xfffff
   20188:	0146d713          	srl	a4,a3,0x14
   2018c:	7ff8f893          	and	a7,a7,2047
   20190:	7ff00e13          	li	t3,2047
   20194:	00b7f333          	and	t1,a5,a1
   20198:	00050813          	mv	a6,a0
   2019c:	00050e93          	mv	t4,a0
   201a0:	00d7f7b3          	and	a5,a5,a3
   201a4:	01f5d593          	srl	a1,a1,0x1f
   201a8:	00060f13          	mv	t5,a2
   201ac:	7ff77513          	and	a0,a4,2047
   201b0:	01f6d693          	srl	a3,a3,0x1f
   201b4:	05c88863          	beq	a7,t3,0x20204
   201b8:	03c50463          	beq	a0,t3,0x201e0
   201bc:	06089a63          	bnez	a7,0x20230
   201c0:	01036833          	or	a6,t1,a6
   201c4:	06051063          	bnez	a0,0x20224
   201c8:	00c7e633          	or	a2,a5,a2
   201cc:	08060c63          	beqz	a2,0x20264
   201d0:	0a081263          	bnez	a6,0x20274
   201d4:	00100513          	li	a0,1
   201d8:	08068263          	beqz	a3,0x2025c
   201dc:	00008067          	ret
   201e0:	00c7e633          	or	a2,a5,a2
   201e4:	08061463          	bnez	a2,0x2026c
   201e8:	00089663          	bnez	a7,0x201f4
   201ec:	01036333          	or	t1,t1,a6
   201f0:	fe0302e3          	beqz	t1,0x201d4
   201f4:	06d58063          	beq	a1,a3,0x20254
   201f8:	06059263          	bnez	a1,0x2025c
   201fc:	00100513          	li	a0,1
   20200:	00008067          	ret
   20204:	01036333          	or	t1,t1,a6
   20208:	06031263          	bnez	t1,0x2026c
   2020c:	ff1516e3          	bne	a0,a7,0x201f8
   20210:	00c7e7b3          	or	a5,a5,a2
   20214:	04079c63          	bnez	a5,0x2026c
   20218:	fed590e3          	bne	a1,a3,0x201f8
   2021c:	00000513          	li	a0,0
   20220:	00008067          	ret
   20224:	fa0808e3          	beqz	a6,0x201d4
   20228:	fcd598e3          	bne	a1,a3,0x201f8
   2022c:	0280006f          	j	0x20254
   20230:	fc0504e3          	beqz	a0,0x201f8
   20234:	fcd592e3          	bne	a1,a3,0x201f8
   20238:	fd1540e3          	blt	a0,a7,0x201f8
   2023c:	00a8cc63          	blt	a7,a0,0x20254
   20240:	fa67ece3          	bltu	a5,t1,0x201f8
   20244:	00f31863          	bne	t1,a5,0x20254
   20248:	fbdf68e3          	bltu	t5,t4,0x201f8
   2024c:	00000513          	li	a0,0
   20250:	f9eef6e3          	bgeu	t4,t5,0x201dc
   20254:	00100513          	li	a0,1
   20258:	f80592e3          	bnez	a1,0x201dc
   2025c:	fff00513          	li	a0,-1
   20260:	00008067          	ret
   20264:	f8081ae3          	bnez	a6,0x201f8
   20268:	00008067          	ret
   2026c:	ffe00513          	li	a0,-2
   20270:	00008067          	ret
   20274:	fcd586e3          	beq	a1,a3,0x20240
   20278:	f81ff06f          	j	0x201f8
   2027c:	0145d893          	srl	a7,a1,0x14
   20280:	001007b7          	lui	a5,0x100
   20284:	fff78793          	add	a5,a5,-1 # 0xfffff
   20288:	0146d713          	srl	a4,a3,0x14
   2028c:	7ff8f893          	and	a7,a7,2047
   20290:	7ff00313          	li	t1,2047
   20294:	00b7fe33          	and	t3,a5,a1
   20298:	00050813          	mv	a6,a0
   2029c:	00050e93          	mv	t4,a0
   202a0:	00d7f7b3          	and	a5,a5,a3
   202a4:	01f5d593          	srl	a1,a1,0x1f
   202a8:	00060f13          	mv	t5,a2
   202ac:	7ff77513          	and	a0,a4,2047
   202b0:	01f6d693          	srl	a3,a3,0x1f
   202b4:	04688a63          	beq	a7,t1,0x20308
   202b8:	02650463          	beq	a0,t1,0x202e0
   202bc:	06089863          	bnez	a7,0x2032c
   202c0:	010e6833          	or	a6,t3,a6
   202c4:	08051e63          	bnez	a0,0x20360
   202c8:	00c7e633          	or	a2,a5,a2
   202cc:	0a060463          	beqz	a2,0x20374
   202d0:	0a081663          	bnez	a6,0x2037c
   202d4:	00100513          	li	a0,1
   202d8:	08068063          	beqz	a3,0x20358
   202dc:	00008067          	ret
   202e0:	00c7e633          	or	a2,a5,a2
   202e4:	00200513          	li	a0,2
   202e8:	fe061ae3          	bnez	a2,0x202dc
   202ec:	00089663          	bnez	a7,0x202f8
   202f0:	010e6e33          	or	t3,t3,a6
   202f4:	fe0e00e3          	beqz	t3,0x202d4
   202f8:	04d58c63          	beq	a1,a3,0x20350
   202fc:	04059e63          	bnez	a1,0x20358
   20300:	00100513          	li	a0,1
   20304:	00008067          	ret
   20308:	010e6e33          	or	t3,t3,a6
   2030c:	060e1063          	bnez	t3,0x2036c
   20310:	ff1516e3          	bne	a0,a7,0x202fc
   20314:	00c7e7b3          	or	a5,a5,a2
   20318:	00200513          	li	a0,2
   2031c:	fc0790e3          	bnez	a5,0x202dc
   20320:	fcd59ee3          	bne	a1,a3,0x202fc
   20324:	00000513          	li	a0,0
   20328:	00008067          	ret
   2032c:	fc0508e3          	beqz	a0,0x202fc
   20330:	fcd596e3          	bne	a1,a3,0x202fc
   20334:	fd1544e3          	blt	a0,a7,0x202fc
   20338:	00a8cc63          	blt	a7,a0,0x20350
   2033c:	fdc7e0e3          	bltu	a5,t3,0x202fc
   20340:	00fe1863          	bne	t3,a5,0x20350
   20344:	fbdf6ce3          	bltu	t5,t4,0x202fc
   20348:	00000513          	li	a0,0
   2034c:	f9eef8e3          	bgeu	t4,t5,0x202dc
   20350:	00100513          	li	a0,1
   20354:	f80594e3          	bnez	a1,0x202dc
   20358:	fff00513          	li	a0,-1
   2035c:	00008067          	ret
   20360:	f6080ae3          	beqz	a6,0x202d4
   20364:	f8d59ce3          	bne	a1,a3,0x202fc
   20368:	fe9ff06f          	j	0x20350
   2036c:	00200513          	li	a0,2
   20370:	00008067          	ret
   20374:	f80814e3          	bnez	a6,0x202fc
   20378:	00008067          	ret
   2037c:	fcd580e3          	beq	a1,a3,0x2033c
   20380:	f7dff06f          	j	0x202fc
   20384:	fd010113          	add	sp,sp,-48
   20388:	0145d793          	srl	a5,a1,0x14
   2038c:	02812423          	sw	s0,40(sp)
   20390:	02912223          	sw	s1,36(sp)
   20394:	03212023          	sw	s2,32(sp)
   20398:	01312e23          	sw	s3,28(sp)
   2039c:	01512a23          	sw	s5,20(sp)
   203a0:	00c59493          	sll	s1,a1,0xc
   203a4:	02112623          	sw	ra,44(sp)
   203a8:	01412c23          	sw	s4,24(sp)
   203ac:	01612823          	sw	s6,16(sp)
   203b0:	01712623          	sw	s7,12(sp)
   203b4:	01812423          	sw	s8,8(sp)
   203b8:	7ff7f793          	and	a5,a5,2047
   203bc:	00050413          	mv	s0,a0
   203c0:	00060a93          	mv	s5,a2
   203c4:	00068993          	mv	s3,a3
   203c8:	00c4d493          	srl	s1,s1,0xc
   203cc:	01f5d913          	srl	s2,a1,0x1f
   203d0:	4e078063          	beqz	a5,0x208b0
   203d4:	7ff00713          	li	a4,2047
   203d8:	0ae78663          	beq	a5,a4,0x20484
   203dc:	00349693          	sll	a3,s1,0x3
   203e0:	01d55713          	srl	a4,a0,0x1d
   203e4:	00d76733          	or	a4,a4,a3
   203e8:	008006b7          	lui	a3,0x800
   203ec:	00d764b3          	or	s1,a4,a3
   203f0:	00351a13          	sll	s4,a0,0x3
   203f4:	c0178c13          	add	s8,a5,-1023
   203f8:	00000b13          	li	s6,0
   203fc:	00000b93          	li	s7,0
   20400:	0149d793          	srl	a5,s3,0x14
   20404:	00c99713          	sll	a4,s3,0xc
   20408:	7ff7f793          	and	a5,a5,2047
   2040c:	000a8e13          	mv	t3,s5
   20410:	00c75413          	srl	s0,a4,0xc
   20414:	01f9d993          	srl	s3,s3,0x1f
   20418:	0a078063          	beqz	a5,0x204b8
   2041c:	7ff00713          	li	a4,2047
   20420:	14e78e63          	beq	a5,a4,0x2057c
   20424:	00341713          	sll	a4,s0,0x3
   20428:	01dad693          	srl	a3,s5,0x1d
   2042c:	00e6e6b3          	or	a3,a3,a4
   20430:	c0178793          	add	a5,a5,-1023
   20434:	00800737          	lui	a4,0x800
   20438:	00e6e433          	or	s0,a3,a4
   2043c:	003a9e13          	sll	t3,s5,0x3
   20440:	01878333          	add	t1,a5,s8
   20444:	00000693          	li	a3,0
   20448:	00a00793          	li	a5,10
   2044c:	00130893          	add	a7,t1,1
   20450:	0b67cc63          	blt	a5,s6,0x20508
   20454:	013945b3          	xor	a1,s2,s3
   20458:	00200793          	li	a5,2
   2045c:	00058813          	mv	a6,a1
   20460:	1567c663          	blt	a5,s6,0x205ac
   20464:	fffb0b13          	add	s6,s6,-1
   20468:	00100713          	li	a4,1
   2046c:	17676063          	bltu	a4,s6,0x205cc
   20470:	48f68663          	beq	a3,a5,0x208fc
   20474:	00040493          	mv	s1,s0
   20478:	000e0a13          	mv	s4,t3
   2047c:	00068b93          	mv	s7,a3
   20480:	09c0006f          	j	0x2051c
   20484:	00a4ea33          	or	s4,s1,a0
   20488:	480a1463          	bnez	s4,0x20910
   2048c:	0149d793          	srl	a5,s3,0x14
   20490:	00c99713          	sll	a4,s3,0xc
   20494:	7ff7f793          	and	a5,a5,2047
   20498:	00000493          	li	s1,0
   2049c:	00800b13          	li	s6,8
   204a0:	7ff00c13          	li	s8,2047
   204a4:	00200b93          	li	s7,2
   204a8:	000a8e13          	mv	t3,s5
   204ac:	00c75413          	srl	s0,a4,0xc
   204b0:	01f9d993          	srl	s3,s3,0x1f
   204b4:	f60794e3          	bnez	a5,0x2041c
   204b8:	015467b3          	or	a5,s0,s5
   204bc:	46078e63          	beqz	a5,0x20938
   204c0:	54040c63          	beqz	s0,0x20a18
   204c4:	00040513          	mv	a0,s0
   204c8:	65c010ef          	jal	0x21b24
   204cc:	00050313          	mv	t1,a0
   204d0:	ff550713          	add	a4,a0,-11
   204d4:	01d00793          	li	a5,29
   204d8:	ff830e13          	add	t3,t1,-8
   204dc:	40e787b3          	sub	a5,a5,a4
   204e0:	00fad7b3          	srl	a5,s5,a5
   204e4:	01c41733          	sll	a4,s0,t3
   204e8:	00e7e433          	or	s0,a5,a4
   204ec:	01ca9e33          	sll	t3,s5,t3
   204f0:	406c0333          	sub	t1,s8,t1
   204f4:	c0d30313          	add	t1,t1,-1011
   204f8:	00a00793          	li	a5,10
   204fc:	00000693          	li	a3,0
   20500:	00130893          	add	a7,t1,1
   20504:	f567d8e3          	bge	a5,s6,0x20454
   20508:	00090593          	mv	a1,s2
   2050c:	00200793          	li	a5,2
   20510:	3efb8663          	beq	s7,a5,0x208fc
   20514:	00300793          	li	a5,3
   20518:	54fb8863          	beq	s7,a5,0x20a68
   2051c:	00100793          	li	a5,1
   20520:	00058813          	mv	a6,a1
   20524:	52fb9663          	bne	s7,a5,0x20a50
   20528:	00000793          	li	a5,0
   2052c:	00000693          	li	a3,0
   20530:	00000713          	li	a4,0
   20534:	02c12083          	lw	ra,44(sp)
   20538:	02812403          	lw	s0,40(sp)
   2053c:	01479793          	sll	a5,a5,0x14
   20540:	00d7e7b3          	or	a5,a5,a3
   20544:	01f81813          	sll	a6,a6,0x1f
   20548:	0107e7b3          	or	a5,a5,a6
   2054c:	02412483          	lw	s1,36(sp)
   20550:	02012903          	lw	s2,32(sp)
   20554:	01c12983          	lw	s3,28(sp)
   20558:	01812a03          	lw	s4,24(sp)
   2055c:	01412a83          	lw	s5,20(sp)
   20560:	01012b03          	lw	s6,16(sp)
   20564:	00c12b83          	lw	s7,12(sp)
   20568:	00812c03          	lw	s8,8(sp)
   2056c:	00070513          	mv	a0,a4
   20570:	00078593          	mv	a1,a5
   20574:	03010113          	add	sp,sp,48
   20578:	00008067          	ret
   2057c:	01546733          	or	a4,s0,s5
   20580:	7ffc0313          	add	t1,s8,2047
   20584:	3c070663          	beqz	a4,0x20950
   20588:	00001737          	lui	a4,0x1
   2058c:	01394833          	xor	a6,s2,s3
   20590:	80070713          	add	a4,a4,-2048 # 0x800
   20594:	003b6b13          	or	s6,s6,3
   20598:	00a00693          	li	a3,10
   2059c:	00080593          	mv	a1,a6
   205a0:	00ec08b3          	add	a7,s8,a4
   205a4:	4366cc63          	blt	a3,s6,0x209dc
   205a8:	00300693          	li	a3,3
   205ac:	00100613          	li	a2,1
   205b0:	01661633          	sll	a2,a2,s6
   205b4:	53067713          	and	a4,a2,1328
   205b8:	f4071ae3          	bnez	a4,0x2050c
   205bc:	24067793          	and	a5,a2,576
   205c0:	48079063          	bnez	a5,0x20a40
   205c4:	08867613          	and	a2,a2,136
   205c8:	38061e63          	bnez	a2,0x20964
   205cc:	00010fb7          	lui	t6,0x10
   205d0:	ffff8293          	add	t0,t6,-1 # 0xffff
   205d4:	005a7f33          	and	t5,s4,t0
   205d8:	005e72b3          	and	t0,t3,t0
   205dc:	010a5a13          	srl	s4,s4,0x10
   205e0:	010e5e13          	srl	t3,t3,0x10
   205e4:	000f0513          	mv	a0,t5
   205e8:	00028593          	mv	a1,t0
   205ec:	460010ef          	jal	0x21a4c
   205f0:	00050713          	mv	a4,a0
   205f4:	000e0593          	mv	a1,t3
   205f8:	000f0513          	mv	a0,t5
   205fc:	450010ef          	jal	0x21a4c
   20600:	00050793          	mv	a5,a0
   20604:	00028593          	mv	a1,t0
   20608:	000a0513          	mv	a0,s4
   2060c:	440010ef          	jal	0x21a4c
   20610:	00050e93          	mv	t4,a0
   20614:	000e0593          	mv	a1,t3
   20618:	000a0513          	mv	a0,s4
   2061c:	430010ef          	jal	0x21a4c
   20620:	01d786b3          	add	a3,a5,t4
   20624:	01075393          	srl	t2,a4,0x10
   20628:	00d383b3          	add	t2,t2,a3
   2062c:	00050793          	mv	a5,a0
   20630:	01d3f463          	bgeu	t2,t4,0x20638
   20634:	01f507b3          	add	a5,a0,t6
   20638:	000109b7          	lui	s3,0x10
   2063c:	fff98913          	add	s2,s3,-1 # 0xffff
   20640:	0123feb3          	and	t4,t2,s2
   20644:	01277733          	and	a4,a4,s2
   20648:	010e9e93          	sll	t4,t4,0x10
   2064c:	01247933          	and	s2,s0,s2
   20650:	0103d393          	srl	t2,t2,0x10
   20654:	00ee8eb3          	add	t4,t4,a4
   20658:	01045413          	srl	s0,s0,0x10
   2065c:	000f0513          	mv	a0,t5
   20660:	00090593          	mv	a1,s2
   20664:	3e8010ef          	jal	0x21a4c
   20668:	00050f93          	mv	t6,a0
   2066c:	00040593          	mv	a1,s0
   20670:	000f0513          	mv	a0,t5
   20674:	3d8010ef          	jal	0x21a4c
   20678:	00050713          	mv	a4,a0
   2067c:	00090593          	mv	a1,s2
   20680:	000a0513          	mv	a0,s4
   20684:	3c8010ef          	jal	0x21a4c
   20688:	00050f13          	mv	t5,a0
   2068c:	00040593          	mv	a1,s0
   20690:	000a0513          	mv	a0,s4
   20694:	3b8010ef          	jal	0x21a4c
   20698:	010fd693          	srl	a3,t6,0x10
   2069c:	01e70733          	add	a4,a4,t5
   206a0:	00e686b3          	add	a3,a3,a4
   206a4:	01e6f463          	bgeu	a3,t5,0x206ac
   206a8:	01350533          	add	a0,a0,s3
   206ac:	00010a37          	lui	s4,0x10
   206b0:	fffa0f13          	add	t5,s4,-1 # 0xffff
   206b4:	01e6f733          	and	a4,a3,t5
   206b8:	01efffb3          	and	t6,t6,t5
   206bc:	01071713          	sll	a4,a4,0x10
   206c0:	01f70733          	add	a4,a4,t6
   206c4:	01e4ff33          	and	t5,s1,t5
   206c8:	0106d693          	srl	a3,a3,0x10
   206cc:	00a68fb3          	add	t6,a3,a0
   206d0:	00e383b3          	add	t2,t2,a4
   206d4:	0104d493          	srl	s1,s1,0x10
   206d8:	000f0513          	mv	a0,t5
   206dc:	00028593          	mv	a1,t0
   206e0:	36c010ef          	jal	0x21a4c
   206e4:	00050a93          	mv	s5,a0
   206e8:	000e0593          	mv	a1,t3
   206ec:	000f0513          	mv	a0,t5
   206f0:	35c010ef          	jal	0x21a4c
   206f4:	00050993          	mv	s3,a0
   206f8:	00028593          	mv	a1,t0
   206fc:	00048513          	mv	a0,s1
   20700:	34c010ef          	jal	0x21a4c
   20704:	00050293          	mv	t0,a0
   20708:	000e0593          	mv	a1,t3
   2070c:	00048513          	mv	a0,s1
   20710:	33c010ef          	jal	0x21a4c
   20714:	010ad613          	srl	a2,s5,0x10
   20718:	005989b3          	add	s3,s3,t0
   2071c:	01360633          	add	a2,a2,s3
   20720:	00567463          	bgeu	a2,t0,0x20728
   20724:	01450533          	add	a0,a0,s4
   20728:	00010a37          	lui	s4,0x10
   2072c:	fffa0693          	add	a3,s4,-1 # 0xffff
   20730:	00d672b3          	and	t0,a2,a3
   20734:	00dafab3          	and	s5,s5,a3
   20738:	01065613          	srl	a2,a2,0x10
   2073c:	01029293          	sll	t0,t0,0x10
   20740:	00a60e33          	add	t3,a2,a0
   20744:	015282b3          	add	t0,t0,s5
   20748:	000f0513          	mv	a0,t5
   2074c:	00090593          	mv	a1,s2
   20750:	2fc010ef          	jal	0x21a4c
   20754:	00050993          	mv	s3,a0
   20758:	00040593          	mv	a1,s0
   2075c:	000f0513          	mv	a0,t5
   20760:	2ec010ef          	jal	0x21a4c
   20764:	00050f13          	mv	t5,a0
   20768:	00090593          	mv	a1,s2
   2076c:	00048513          	mv	a0,s1
   20770:	2dc010ef          	jal	0x21a4c
   20774:	00050913          	mv	s2,a0
   20778:	00040593          	mv	a1,s0
   2077c:	00048513          	mv	a0,s1
   20780:	2cc010ef          	jal	0x21a4c
   20784:	012f06b3          	add	a3,t5,s2
   20788:	0109d593          	srl	a1,s3,0x10
   2078c:	00d58433          	add	s0,a1,a3
   20790:	00050f13          	mv	t5,a0
   20794:	01247463          	bgeu	s0,s2,0x2079c
   20798:	01450f33          	add	t5,a0,s4
   2079c:	00010637          	lui	a2,0x10
   207a0:	fff60613          	add	a2,a2,-1 # 0xffff
   207a4:	00c476b3          	and	a3,s0,a2
   207a8:	00c9f9b3          	and	s3,s3,a2
   207ac:	01069693          	sll	a3,a3,0x10
   207b0:	007787b3          	add	a5,a5,t2
   207b4:	013686b3          	add	a3,a3,s3
   207b8:	01f685b3          	add	a1,a3,t6
   207bc:	00e7b733          	sltu	a4,a5,a4
   207c0:	00e58733          	add	a4,a1,a4
   207c4:	005782b3          	add	t0,a5,t0
   207c8:	01c70633          	add	a2,a4,t3
   207cc:	00f2b7b3          	sltu	a5,t0,a5
   207d0:	00f607b3          	add	a5,a2,a5
   207d4:	00d5b6b3          	sltu	a3,a1,a3
   207d8:	00b735b3          	sltu	a1,a4,a1
   207dc:	00b6e6b3          	or	a3,a3,a1
   207e0:	00e63733          	sltu	a4,a2,a4
   207e4:	01045593          	srl	a1,s0,0x10
   207e8:	00c7b633          	sltu	a2,a5,a2
   207ec:	00b686b3          	add	a3,a3,a1
   207f0:	00929a13          	sll	s4,t0,0x9
   207f4:	00c76733          	or	a4,a4,a2
   207f8:	00d70733          	add	a4,a4,a3
   207fc:	01da6a33          	or	s4,s4,t4
   20800:	01e70733          	add	a4,a4,t5
   20804:	01403a33          	snez	s4,s4
   20808:	0172d293          	srl	t0,t0,0x17
   2080c:	00971713          	sll	a4,a4,0x9
   20810:	0177d693          	srl	a3,a5,0x17
   20814:	005a6a33          	or	s4,s4,t0
   20818:	00979793          	sll	a5,a5,0x9
   2081c:	00fa6a33          	or	s4,s4,a5
   20820:	00771793          	sll	a5,a4,0x7
   20824:	00d764b3          	or	s1,a4,a3
   20828:	0207d063          	bgez	a5,0x20848
   2082c:	001a5793          	srl	a5,s4,0x1
   20830:	001a7a13          	and	s4,s4,1
   20834:	01f49713          	sll	a4,s1,0x1f
   20838:	0147e7b3          	or	a5,a5,s4
   2083c:	00e7ea33          	or	s4,a5,a4
   20840:	0014d493          	srl	s1,s1,0x1
   20844:	00088313          	mv	t1,a7
   20848:	3ff30793          	add	a5,t1,1023
   2084c:	12f05663          	blez	a5,0x20978
   20850:	007a7713          	and	a4,s4,7
   20854:	02070063          	beqz	a4,0x20874
   20858:	00fa7713          	and	a4,s4,15
   2085c:	00400693          	li	a3,4
   20860:	00d70a63          	beq	a4,a3,0x20874
   20864:	004a0713          	add	a4,s4,4
   20868:	01473a33          	sltu	s4,a4,s4
   2086c:	014484b3          	add	s1,s1,s4
   20870:	00070a13          	mv	s4,a4
   20874:	00749713          	sll	a4,s1,0x7
   20878:	00075a63          	bgez	a4,0x2088c
   2087c:	ff0007b7          	lui	a5,0xff000
   20880:	fff78793          	add	a5,a5,-1 # 0xfeffffff
   20884:	00f4f4b3          	and	s1,s1,a5
   20888:	40030793          	add	a5,t1,1024
   2088c:	7fe00713          	li	a4,2046
   20890:	1cf74463          	blt	a4,a5,0x20a58
   20894:	003a5a13          	srl	s4,s4,0x3
   20898:	01d49713          	sll	a4,s1,0x1d
   2089c:	00949693          	sll	a3,s1,0x9
   208a0:	01476733          	or	a4,a4,s4
   208a4:	00c6d693          	srl	a3,a3,0xc
   208a8:	7ff7f793          	and	a5,a5,2047
   208ac:	c89ff06f          	j	0x20534
   208b0:	00a4ea33          	or	s4,s1,a0
   208b4:	060a0863          	beqz	s4,0x20924
   208b8:	12048e63          	beqz	s1,0x209f4
   208bc:	00048513          	mv	a0,s1
   208c0:	264010ef          	jal	0x21b24
   208c4:	00050713          	mv	a4,a0
   208c8:	ff550693          	add	a3,a0,-11
   208cc:	01d00793          	li	a5,29
   208d0:	ff870a13          	add	s4,a4,-8
   208d4:	40d787b3          	sub	a5,a5,a3
   208d8:	00f457b3          	srl	a5,s0,a5
   208dc:	014496b3          	sll	a3,s1,s4
   208e0:	00d7e4b3          	or	s1,a5,a3
   208e4:	01441a33          	sll	s4,s0,s4
   208e8:	c0d00793          	li	a5,-1011
   208ec:	40e78c33          	sub	s8,a5,a4
   208f0:	00000b13          	li	s6,0
   208f4:	00000b93          	li	s7,0
   208f8:	b09ff06f          	j	0x20400
   208fc:	00058813          	mv	a6,a1
   20900:	7ff00793          	li	a5,2047
   20904:	00000693          	li	a3,0
   20908:	00000713          	li	a4,0
   2090c:	c29ff06f          	j	0x20534
   20910:	00050a13          	mv	s4,a0
   20914:	00c00b13          	li	s6,12
   20918:	7ff00c13          	li	s8,2047
   2091c:	00300b93          	li	s7,3
   20920:	ae1ff06f          	j	0x20400
   20924:	00000493          	li	s1,0
   20928:	00400b13          	li	s6,4
   2092c:	00000c13          	li	s8,0
   20930:	00100b93          	li	s7,1
   20934:	acdff06f          	j	0x20400
   20938:	001b6b13          	or	s6,s6,1
   2093c:	000c0313          	mv	t1,s8
   20940:	00000413          	li	s0,0
   20944:	00000e13          	li	t3,0
   20948:	00100693          	li	a3,1
   2094c:	afdff06f          	j	0x20448
   20950:	002b6b13          	or	s6,s6,2
   20954:	00000413          	li	s0,0
   20958:	00000e13          	li	t3,0
   2095c:	00200693          	li	a3,2
   20960:	ae9ff06f          	j	0x20448
   20964:	00040493          	mv	s1,s0
   20968:	000e0a13          	mv	s4,t3
   2096c:	00068b93          	mv	s7,a3
   20970:	00098593          	mv	a1,s3
   20974:	b99ff06f          	j	0x2050c
   20978:	00100713          	li	a4,1
   2097c:	10079063          	bnez	a5,0x20a7c
   20980:	41e30313          	add	t1,t1,1054
   20984:	006a1633          	sll	a2,s4,t1
   20988:	00c03633          	snez	a2,a2
   2098c:	00649333          	sll	t1,s1,t1
   20990:	00ea5a33          	srl	s4,s4,a4
   20994:	00666633          	or	a2,a2,t1
   20998:	01466633          	or	a2,a2,s4
   2099c:	00767793          	and	a5,a2,7
   209a0:	00e4d5b3          	srl	a1,s1,a4
   209a4:	02078063          	beqz	a5,0x209c4
   209a8:	00f67793          	and	a5,a2,15
   209ac:	00400713          	li	a4,4
   209b0:	00e78a63          	beq	a5,a4,0x209c4
   209b4:	00460793          	add	a5,a2,4
   209b8:	00c7b633          	sltu	a2,a5,a2
   209bc:	00c585b3          	add	a1,a1,a2
   209c0:	00078613          	mv	a2,a5
   209c4:	00859513          	sll	a0,a1,0x8
   209c8:	00100793          	li	a5,1
   209cc:	00000693          	li	a3,0
   209d0:	00000713          	li	a4,0
   209d4:	b60540e3          	bltz	a0,0x20534
   209d8:	10c0006f          	j	0x20ae4
   209dc:	00f00713          	li	a4,15
   209e0:	12eb1063          	bne	s6,a4,0x20b00
   209e4:	00000813          	li	a6,0
   209e8:	000806b7          	lui	a3,0x80
   209ec:	00000713          	li	a4,0
   209f0:	b45ff06f          	j	0x20534
   209f4:	130010ef          	jal	0x21b24
   209f8:	01550693          	add	a3,a0,21
   209fc:	01c00793          	li	a5,28
   20a00:	02050713          	add	a4,a0,32
   20a04:	ecd7d4e3          	bge	a5,a3,0x208cc
   20a08:	ff850513          	add	a0,a0,-8
   20a0c:	00000a13          	li	s4,0
   20a10:	00a414b3          	sll	s1,s0,a0
   20a14:	ed5ff06f          	j	0x208e8
   20a18:	000a8513          	mv	a0,s5
   20a1c:	108010ef          	jal	0x21b24
   20a20:	01550713          	add	a4,a0,21
   20a24:	01c00793          	li	a5,28
   20a28:	02050313          	add	t1,a0,32
   20a2c:	aae7d4e3          	bge	a5,a4,0x204d4
   20a30:	ff850513          	add	a0,a0,-8
   20a34:	00000e13          	li	t3,0
   20a38:	00aa9433          	sll	s0,s5,a0
   20a3c:	ab5ff06f          	j	0x204f0
   20a40:	00000813          	li	a6,0
   20a44:	7ff00793          	li	a5,2047
   20a48:	000806b7          	lui	a3,0x80
   20a4c:	ae9ff06f          	j	0x20534
   20a50:	00088313          	mv	t1,a7
   20a54:	df5ff06f          	j	0x20848
   20a58:	7ff00793          	li	a5,2047
   20a5c:	00000693          	li	a3,0
   20a60:	00000713          	li	a4,0
   20a64:	ad1ff06f          	j	0x20534
   20a68:	00000813          	li	a6,0
   20a6c:	7ff00793          	li	a5,2047
   20a70:	000806b7          	lui	a3,0x80
   20a74:	00000713          	li	a4,0
   20a78:	abdff06f          	j	0x20534
   20a7c:	40f70733          	sub	a4,a4,a5
   20a80:	03800693          	li	a3,56
   20a84:	aae6c2e3          	blt	a3,a4,0x20528
   20a88:	01f00693          	li	a3,31
   20a8c:	eee6dae3          	bge	a3,a4,0x20980
   20a90:	fe100693          	li	a3,-31
   20a94:	40f687b3          	sub	a5,a3,a5
   20a98:	02000693          	li	a3,32
   20a9c:	00f4d7b3          	srl	a5,s1,a5
   20aa0:	00d70863          	beq	a4,a3,0x20ab0
   20aa4:	43e30313          	add	t1,t1,1086
   20aa8:	00649333          	sll	t1,s1,t1
   20aac:	006a6a33          	or	s4,s4,t1
   20ab0:	01403633          	snez	a2,s4
   20ab4:	00f66633          	or	a2,a2,a5
   20ab8:	00767713          	and	a4,a2,7
   20abc:	00000693          	li	a3,0
   20ac0:	02070863          	beqz	a4,0x20af0
   20ac4:	00f67793          	and	a5,a2,15
   20ac8:	00400713          	li	a4,4
   20acc:	00000593          	li	a1,0
   20ad0:	00e78a63          	beq	a5,a4,0x20ae4
   20ad4:	00460793          	add	a5,a2,4
   20ad8:	00c7b633          	sltu	a2,a5,a2
   20adc:	00c035b3          	snez	a1,a2
   20ae0:	00078613          	mv	a2,a5
   20ae4:	00959693          	sll	a3,a1,0x9
   20ae8:	01d59713          	sll	a4,a1,0x1d
   20aec:	00c6d693          	srl	a3,a3,0xc
   20af0:	00365613          	srl	a2,a2,0x3
   20af4:	00e66733          	or	a4,a2,a4
   20af8:	00000793          	li	a5,0
   20afc:	a39ff06f          	j	0x20534
   20b00:	00040493          	mv	s1,s0
   20b04:	000a8a13          	mv	s4,s5
   20b08:	00300b93          	li	s7,3
   20b0c:	00098593          	mv	a1,s3
   20b10:	9fdff06f          	j	0x2050c
   20b14:	001007b7          	lui	a5,0x100
   20b18:	fff78793          	add	a5,a5,-1 # 0xfffff
   20b1c:	fe010113          	add	sp,sp,-32
   20b20:	00b7f8b3          	and	a7,a5,a1
   20b24:	00d7f833          	and	a6,a5,a3
   20b28:	0146d793          	srl	a5,a3,0x14
   20b2c:	00389893          	sll	a7,a7,0x3
   20b30:	00812c23          	sw	s0,24(sp)
   20b34:	01312623          	sw	s3,12(sp)
   20b38:	01f5d413          	srl	s0,a1,0x1f
   20b3c:	0145d993          	srl	s3,a1,0x14
   20b40:	01d55713          	srl	a4,a0,0x1d
   20b44:	00381813          	sll	a6,a6,0x3
   20b48:	01d65593          	srl	a1,a2,0x1d
   20b4c:	00112e23          	sw	ra,28(sp)
   20b50:	00912a23          	sw	s1,20(sp)
   20b54:	01212823          	sw	s2,16(sp)
   20b58:	7ff7ff13          	and	t5,a5,2047
   20b5c:	7ff00313          	li	t1,2047
   20b60:	01176733          	or	a4,a4,a7
   20b64:	7ff9f993          	and	s3,s3,2047
   20b68:	00040e13          	mv	t3,s0
   20b6c:	00351893          	sll	a7,a0,0x3
   20b70:	01f6d693          	srl	a3,a3,0x1f
   20b74:	0105e5b3          	or	a1,a1,a6
   20b78:	00361e93          	sll	t4,a2,0x3
   20b7c:	206f0c63          	beq	t5,t1,0x20d94
   20b80:	0016c693          	xor	a3,a3,1
   20b84:	41e987b3          	sub	a5,s3,t5
   20b88:	16d40263          	beq	s0,a3,0x20cec
   20b8c:	00f05ae3          	blez	a5,0x213a0
   20b90:	240f0a63          	beqz	t5,0x20de4
   20b94:	3c698463          	beq	s3,t1,0x20f5c
   20b98:	03800693          	li	a3,56
   20b9c:	00100513          	li	a0,1
   20ba0:	02f6ce63          	blt	a3,a5,0x20bdc
   20ba4:	008006b7          	lui	a3,0x800
   20ba8:	00d5e5b3          	or	a1,a1,a3
   20bac:	01f00693          	li	a3,31
   20bb0:	4ef6c463          	blt	a3,a5,0x21098
   20bb4:	02000693          	li	a3,32
   20bb8:	40f686b3          	sub	a3,a3,a5
   20bbc:	00d59533          	sll	a0,a1,a3
   20bc0:	00fed633          	srl	a2,t4,a5
   20bc4:	00de96b3          	sll	a3,t4,a3
   20bc8:	00c56533          	or	a0,a0,a2
   20bcc:	00d036b3          	snez	a3,a3
   20bd0:	00f5d7b3          	srl	a5,a1,a5
   20bd4:	00d56533          	or	a0,a0,a3
   20bd8:	40f70733          	sub	a4,a4,a5
   20bdc:	40a88533          	sub	a0,a7,a0
   20be0:	00a8b633          	sltu	a2,a7,a0
   20be4:	00050493          	mv	s1,a0
   20be8:	40c70933          	sub	s2,a4,a2
   20bec:	00891793          	sll	a5,s2,0x8
   20bf0:	3407d863          	bgez	a5,0x20f40
   20bf4:	008007b7          	lui	a5,0x800
   20bf8:	fff78793          	add	a5,a5,-1 # 0x7fffff
   20bfc:	00f97933          	and	s2,s2,a5
   20c00:	2e090663          	beqz	s2,0x20eec
   20c04:	00090513          	mv	a0,s2
   20c08:	71d000ef          	jal	0x21b24
   20c0c:	ff850793          	add	a5,a0,-8
   20c10:	02000693          	li	a3,32
   20c14:	40f68733          	sub	a4,a3,a5
   20c18:	00e4d733          	srl	a4,s1,a4
   20c1c:	00f91933          	sll	s2,s2,a5
   20c20:	01276733          	or	a4,a4,s2
   20c24:	00f494b3          	sll	s1,s1,a5
   20c28:	3f37c463          	blt	a5,s3,0x21010
   20c2c:	413787b3          	sub	a5,a5,s3
   20c30:	00178793          	add	a5,a5,1
   20c34:	40f686b3          	sub	a3,a3,a5
   20c38:	00d49633          	sll	a2,s1,a3
   20c3c:	00f4d933          	srl	s2,s1,a5
   20c40:	00c03633          	snez	a2,a2
   20c44:	00c96633          	or	a2,s2,a2
   20c48:	00d716b3          	sll	a3,a4,a3
   20c4c:	00c6e4b3          	or	s1,a3,a2
   20c50:	00f75933          	srl	s2,a4,a5
   20c54:	00000993          	li	s3,0
   20c58:	0074f793          	and	a5,s1,7
   20c5c:	02078063          	beqz	a5,0x20c7c
   20c60:	00f4f793          	and	a5,s1,15
   20c64:	00400713          	li	a4,4
   20c68:	00e78a63          	beq	a5,a4,0x20c7c
   20c6c:	00448793          	add	a5,s1,4
   20c70:	0097b533          	sltu	a0,a5,s1
   20c74:	00a90933          	add	s2,s2,a0
   20c78:	00078493          	mv	s1,a5
   20c7c:	00891793          	sll	a5,s2,0x8
   20c80:	6c07d063          	bgez	a5,0x21340
   20c84:	00198793          	add	a5,s3,1
   20c88:	7ff00713          	li	a4,2047
   20c8c:	24e78663          	beq	a5,a4,0x20ed8
   20c90:	ff800737          	lui	a4,0xff800
   20c94:	fff70713          	add	a4,a4,-1 # 0xff7fffff
   20c98:	00e97733          	and	a4,s2,a4
   20c9c:	7ff7f793          	and	a5,a5,2047
   20ca0:	01d71813          	sll	a6,a4,0x1d
   20ca4:	0034d513          	srl	a0,s1,0x3
   20ca8:	00971713          	sll	a4,a4,0x9
   20cac:	00a86833          	or	a6,a6,a0
   20cb0:	00c75713          	srl	a4,a4,0xc
   20cb4:	00147e13          	and	t3,s0,1
   20cb8:	01c12083          	lw	ra,28(sp)
   20cbc:	01812403          	lw	s0,24(sp)
   20cc0:	01479793          	sll	a5,a5,0x14
   20cc4:	00e7e7b3          	or	a5,a5,a4
   20cc8:	01fe1713          	sll	a4,t3,0x1f
   20ccc:	00e7e7b3          	or	a5,a5,a4
   20cd0:	01412483          	lw	s1,20(sp)
   20cd4:	01012903          	lw	s2,16(sp)
   20cd8:	00c12983          	lw	s3,12(sp)
   20cdc:	00080513          	mv	a0,a6
   20ce0:	00078593          	mv	a1,a5
   20ce4:	02010113          	add	sp,sp,32
   20ce8:	00008067          	ret
   20cec:	70f05263          	blez	a5,0x213f0
   20cf0:	1c0f1663          	bnez	t5,0x20ebc
   20cf4:	01d5e6b3          	or	a3,a1,t4
   20cf8:	26068e63          	beqz	a3,0x20f74
   20cfc:	fff78693          	add	a3,a5,-1
   20d00:	46068863          	beqz	a3,0x21170
   20d04:	24678c63          	beq	a5,t1,0x20f5c
   20d08:	03800793          	li	a5,56
   20d0c:	00100913          	li	s2,1
   20d10:	02d7cc63          	blt	a5,a3,0x20d48
   20d14:	00068793          	mv	a5,a3
   20d18:	01f00693          	li	a3,31
   20d1c:	48f6ca63          	blt	a3,a5,0x211b0
   20d20:	02000693          	li	a3,32
   20d24:	40f686b3          	sub	a3,a3,a5
   20d28:	00d59933          	sll	s2,a1,a3
   20d2c:	00fed633          	srl	a2,t4,a5
   20d30:	00de96b3          	sll	a3,t4,a3
   20d34:	00c96933          	or	s2,s2,a2
   20d38:	00d036b3          	snez	a3,a3
   20d3c:	00f5d7b3          	srl	a5,a1,a5
   20d40:	00d96933          	or	s2,s2,a3
   20d44:	00f70733          	add	a4,a4,a5
   20d48:	01190633          	add	a2,s2,a7
   20d4c:	01263933          	sltu	s2,a2,s2
   20d50:	00060493          	mv	s1,a2
   20d54:	00e90933          	add	s2,s2,a4
   20d58:	00891793          	sll	a5,s2,0x8
   20d5c:	1e07d263          	bgez	a5,0x20f40
   20d60:	00198993          	add	s3,s3,1
   20d64:	7ff00793          	li	a5,2047
   20d68:	16f98863          	beq	s3,a5,0x20ed8
   20d6c:	ff8007b7          	lui	a5,0xff800
   20d70:	fff78793          	add	a5,a5,-1 # 0xff7fffff
   20d74:	0014f513          	and	a0,s1,1
   20d78:	00f977b3          	and	a5,s2,a5
   20d7c:	0014d713          	srl	a4,s1,0x1
   20d80:	00a76733          	or	a4,a4,a0
   20d84:	01f79513          	sll	a0,a5,0x1f
   20d88:	00e564b3          	or	s1,a0,a4
   20d8c:	0017d913          	srl	s2,a5,0x1
   20d90:	ec9ff06f          	j	0x20c58
   20d94:	01d5e833          	or	a6,a1,t4
   20d98:	80198313          	add	t1,s3,-2047
   20d9c:	06080863          	beqz	a6,0x20e0c
   20da0:	06d40a63          	beq	s0,a3,0x20e14
   20da4:	0e030463          	beqz	t1,0x20e8c
   20da8:	26098e63          	beqz	s3,0x21024
   20dac:	00361513          	sll	a0,a2,0x3
   20db0:	00355513          	srl	a0,a0,0x3
   20db4:	00068413          	mv	s0,a3
   20db8:	00058713          	mv	a4,a1
   20dbc:	01d71813          	sll	a6,a4,0x1d
   20dc0:	00a86833          	or	a6,a6,a0
   20dc4:	00375713          	srl	a4,a4,0x3
   20dc8:	01076733          	or	a4,a4,a6
   20dcc:	10070663          	beqz	a4,0x20ed8
   20dd0:	00000e13          	li	t3,0
   20dd4:	7ff00793          	li	a5,2047
   20dd8:	00080737          	lui	a4,0x80
   20ddc:	00000813          	li	a6,0
   20de0:	ed9ff06f          	j	0x20cb8
   20de4:	01d5e6b3          	or	a3,a1,t4
   20de8:	18068663          	beqz	a3,0x20f74
   20dec:	fff78693          	add	a3,a5,-1
   20df0:	3a068263          	beqz	a3,0x21194
   20df4:	16678463          	beq	a5,t1,0x20f5c
   20df8:	03800793          	li	a5,56
   20dfc:	00100513          	li	a0,1
   20e00:	dcd7cee3          	blt	a5,a3,0x20bdc
   20e04:	00068793          	mv	a5,a3
   20e08:	da5ff06f          	j	0x20bac
   20e0c:	0016c693          	xor	a3,a3,1
   20e10:	f8d41ae3          	bne	s0,a3,0x20da4
   20e14:	18030863          	beqz	t1,0x20fa4
   20e18:	2c099063          	bnez	s3,0x210d8
   20e1c:	7ff00793          	li	a5,2047
   20e20:	011766b3          	or	a3,a4,a7
   20e24:	48068863          	beqz	a3,0x212b4
   20e28:	fff78693          	add	a3,a5,-1
   20e2c:	34068263          	beqz	a3,0x21170
   20e30:	7ff00513          	li	a0,2047
   20e34:	2aa78263          	beq	a5,a0,0x210d8
   20e38:	03800793          	li	a5,56
   20e3c:	00100913          	li	s2,1
   20e40:	02d7ca63          	blt	a5,a3,0x20e74
   20e44:	01f00793          	li	a5,31
   20e48:	4cd7c663          	blt	a5,a3,0x21314
   20e4c:	02000793          	li	a5,32
   20e50:	40d787b3          	sub	a5,a5,a3
   20e54:	00f71933          	sll	s2,a4,a5
   20e58:	00d8d633          	srl	a2,a7,a3
   20e5c:	00f897b3          	sll	a5,a7,a5
   20e60:	00c96933          	or	s2,s2,a2
   20e64:	00f037b3          	snez	a5,a5
   20e68:	00d756b3          	srl	a3,a4,a3
   20e6c:	00f96933          	or	s2,s2,a5
   20e70:	00d585b3          	add	a1,a1,a3
   20e74:	01d90733          	add	a4,s2,t4
   20e78:	01273933          	sltu	s2,a4,s2
   20e7c:	00070493          	mv	s1,a4
   20e80:	00b90933          	add	s2,s2,a1
   20e84:	000f0993          	mv	s3,t5
   20e88:	ed1ff06f          	j	0x20d58
   20e8c:	00198793          	add	a5,s3,1
   20e90:	7fe7f793          	and	a5,a5,2046
   20e94:	14079463          	bnez	a5,0x20fdc
   20e98:	01d5e833          	or	a6,a1,t4
   20e9c:	011767b3          	or	a5,a4,a7
   20ea0:	2a099463          	bnez	s3,0x21148
   20ea4:	38078e63          	beqz	a5,0x21240
   20ea8:	3c081063          	bnez	a6,0x21268
   20eac:	00351513          	sll	a0,a0,0x3
   20eb0:	00355913          	srl	s2,a0,0x3
   20eb4:	00000793          	li	a5,0
   20eb8:	1140006f          	j	0x20fcc
   20ebc:	0a698063          	beq	s3,t1,0x20f5c
   20ec0:	03800693          	li	a3,56
   20ec4:	00100913          	li	s2,1
   20ec8:	e8f6c0e3          	blt	a3,a5,0x20d48
   20ecc:	008006b7          	lui	a3,0x800
   20ed0:	00d5e5b3          	or	a1,a1,a3
   20ed4:	e45ff06f          	j	0x20d18
   20ed8:	00147e13          	and	t3,s0,1
   20edc:	7ff00793          	li	a5,2047
   20ee0:	00000713          	li	a4,0
   20ee4:	00000813          	li	a6,0
   20ee8:	dd1ff06f          	j	0x20cb8
   20eec:	00048513          	mv	a0,s1
   20ef0:	435000ef          	jal	0x21b24
   20ef4:	01850793          	add	a5,a0,24
   20ef8:	01f00693          	li	a3,31
   20efc:	d0f6dae3          	bge	a3,a5,0x20c10
   20f00:	ff850713          	add	a4,a0,-8
   20f04:	00e49733          	sll	a4,s1,a4
   20f08:	1b37ce63          	blt	a5,s3,0x210c4
   20f0c:	413789b3          	sub	s3,a5,s3
   20f10:	00198793          	add	a5,s3,1
   20f14:	42f6de63          	bge	a3,a5,0x21350
   20f18:	fe198993          	add	s3,s3,-31
   20f1c:	02000693          	li	a3,32
   20f20:	013754b3          	srl	s1,a4,s3
   20f24:	00d78c63          	beq	a5,a3,0x20f3c
   20f28:	04000693          	li	a3,64
   20f2c:	40f687b3          	sub	a5,a3,a5
   20f30:	00f71733          	sll	a4,a4,a5
   20f34:	00e03733          	snez	a4,a4
   20f38:	00e4e4b3          	or	s1,s1,a4
   20f3c:	00000993          	li	s3,0
   20f40:	0074f793          	and	a5,s1,7
   20f44:	d0079ee3          	bnez	a5,0x20c60
   20f48:	00098793          	mv	a5,s3
   20f4c:	0034d513          	srl	a0,s1,0x3
   20f50:	00090713          	mv	a4,s2
   20f54:	0280006f          	j	0x20f7c
   20f58:	e6081ce3          	bnez	a6,0x20dd0
   20f5c:	00351513          	sll	a0,a0,0x3
   20f60:	01d71813          	sll	a6,a4,0x1d
   20f64:	00355513          	srl	a0,a0,0x3
   20f68:	00a86833          	or	a6,a6,a0
   20f6c:	00375713          	srl	a4,a4,0x3
   20f70:	e59ff06f          	j	0x20dc8
   20f74:	00351513          	sll	a0,a0,0x3
   20f78:	00355513          	srl	a0,a0,0x3
   20f7c:	01d71813          	sll	a6,a4,0x1d
   20f80:	7ff00693          	li	a3,2047
   20f84:	00a86833          	or	a6,a6,a0
   20f88:	00375713          	srl	a4,a4,0x3
   20f8c:	e2d78ee3          	beq	a5,a3,0x20dc8
   20f90:	00c71713          	sll	a4,a4,0xc
   20f94:	00c75713          	srl	a4,a4,0xc
   20f98:	7ff7f793          	and	a5,a5,2047
   20f9c:	00147e13          	and	t3,s0,1
   20fa0:	d19ff06f          	j	0x20cb8
   20fa4:	00198693          	add	a3,s3,1
   20fa8:	7fe6f793          	and	a5,a3,2046
   20fac:	12079e63          	bnez	a5,0x210e8
   20fb0:	011767b3          	or	a5,a4,a7
   20fb4:	24099a63          	bnez	s3,0x21208
   20fb8:	30078663          	beqz	a5,0x212c4
   20fbc:	01d5e7b3          	or	a5,a1,t4
   20fc0:	30079a63          	bnez	a5,0x212d4
   20fc4:	00351513          	sll	a0,a0,0x3
   20fc8:	00355913          	srl	s2,a0,0x3
   20fcc:	01d71813          	sll	a6,a4,0x1d
   20fd0:	01286833          	or	a6,a6,s2
   20fd4:	00375713          	srl	a4,a4,0x3
   20fd8:	fb9ff06f          	j	0x20f90
   20fdc:	41d88833          	sub	a6,a7,t4
   20fe0:	0108b7b3          	sltu	a5,a7,a6
   20fe4:	40b70933          	sub	s2,a4,a1
   20fe8:	40f90933          	sub	s2,s2,a5
   20fec:	00891793          	sll	a5,s2,0x8
   20ff0:	00080493          	mv	s1,a6
   20ff4:	1207c263          	bltz	a5,0x21118
   20ff8:	01286833          	or	a6,a6,s2
   20ffc:	c00812e3          	bnez	a6,0x20c00
   21000:	00000e13          	li	t3,0
   21004:	00000793          	li	a5,0
   21008:	00000713          	li	a4,0
   2100c:	cadff06f          	j	0x20cb8
   21010:	ff800937          	lui	s2,0xff800
   21014:	fff90913          	add	s2,s2,-1 # 0xff7fffff
   21018:	40f989b3          	sub	s3,s3,a5
   2101c:	01277933          	and	s2,a4,s2
   21020:	c39ff06f          	j	0x20c58
   21024:	7ff00793          	li	a5,2047
   21028:	01176533          	or	a0,a4,a7
   2102c:	10050463          	beqz	a0,0x21134
   21030:	fff78813          	add	a6,a5,-1
   21034:	1e080263          	beqz	a6,0x21218
   21038:	7ff00513          	li	a0,2047
   2103c:	d6a788e3          	beq	a5,a0,0x20dac
   21040:	03800793          	li	a5,56
   21044:	00068413          	mv	s0,a3
   21048:	00100513          	li	a0,1
   2104c:	0307ca63          	blt	a5,a6,0x21080
   21050:	01f00793          	li	a5,31
   21054:	1907c463          	blt	a5,a6,0x211dc
   21058:	02000793          	li	a5,32
   2105c:	410787b3          	sub	a5,a5,a6
   21060:	00f71533          	sll	a0,a4,a5
   21064:	0108d6b3          	srl	a3,a7,a6
   21068:	00f897b3          	sll	a5,a7,a5
   2106c:	00d56533          	or	a0,a0,a3
   21070:	00f037b3          	snez	a5,a5
   21074:	01075833          	srl	a6,a4,a6
   21078:	00f56533          	or	a0,a0,a5
   2107c:	410585b3          	sub	a1,a1,a6
   21080:	40ae8533          	sub	a0,t4,a0
   21084:	00aeb733          	sltu	a4,t4,a0
   21088:	00050493          	mv	s1,a0
   2108c:	40e58933          	sub	s2,a1,a4
   21090:	000f0993          	mv	s3,t5
   21094:	b59ff06f          	j	0x20bec
   21098:	fe078693          	add	a3,a5,-32
   2109c:	02000613          	li	a2,32
   210a0:	00d5d6b3          	srl	a3,a1,a3
   210a4:	00c78a63          	beq	a5,a2,0x210b8
   210a8:	04000613          	li	a2,64
   210ac:	40f607b3          	sub	a5,a2,a5
   210b0:	00f597b3          	sll	a5,a1,a5
   210b4:	00feeeb3          	or	t4,t4,a5
   210b8:	01d03533          	snez	a0,t4
   210bc:	00d56533          	or	a0,a0,a3
   210c0:	b1dff06f          	j	0x20bdc
   210c4:	ff8006b7          	lui	a3,0xff800
   210c8:	fff68693          	add	a3,a3,-1 # 0xff7fffff
   210cc:	40f987b3          	sub	a5,s3,a5
   210d0:	00d77733          	and	a4,a4,a3
   210d4:	ef9ff06f          	j	0x20fcc
   210d8:	00361513          	sll	a0,a2,0x3
   210dc:	00355513          	srl	a0,a0,0x3
   210e0:	00058713          	mv	a4,a1
   210e4:	cd9ff06f          	j	0x20dbc
   210e8:	7ff00793          	li	a5,2047
   210ec:	def686e3          	beq	a3,a5,0x20ed8
   210f0:	01d88eb3          	add	t4,a7,t4
   210f4:	011eb633          	sltu	a2,t4,a7
   210f8:	00b707b3          	add	a5,a4,a1
   210fc:	00c787b3          	add	a5,a5,a2
   21100:	01f79513          	sll	a0,a5,0x1f
   21104:	001ede93          	srl	t4,t4,0x1
   21108:	01d564b3          	or	s1,a0,t4
   2110c:	0017d913          	srl	s2,a5,0x1
   21110:	00068993          	mv	s3,a3
   21114:	b45ff06f          	j	0x20c58
   21118:	411e8633          	sub	a2,t4,a7
   2111c:	40e587b3          	sub	a5,a1,a4
   21120:	00ceb733          	sltu	a4,t4,a2
   21124:	00060493          	mv	s1,a2
   21128:	40e78933          	sub	s2,a5,a4
   2112c:	00068413          	mv	s0,a3
   21130:	ad1ff06f          	j	0x20c00
   21134:	00361613          	sll	a2,a2,0x3
   21138:	00365513          	srl	a0,a2,0x3
   2113c:	00068413          	mv	s0,a3
   21140:	00058713          	mv	a4,a1
   21144:	e39ff06f          	j	0x20f7c
   21148:	e00798e3          	bnez	a5,0x20f58
   2114c:	22080663          	beqz	a6,0x21378
   21150:	0035d713          	srl	a4,a1,0x3
   21154:	00361613          	sll	a2,a2,0x3
   21158:	01d59593          	sll	a1,a1,0x1d
   2115c:	00b76733          	or	a4,a4,a1
   21160:	00365613          	srl	a2,a2,0x3
   21164:	00c76733          	or	a4,a4,a2
   21168:	00068413          	mv	s0,a3
   2116c:	c61ff06f          	j	0x20dcc
   21170:	01d88eb3          	add	t4,a7,t4
   21174:	00b705b3          	add	a1,a4,a1
   21178:	011eb633          	sltu	a2,t4,a7
   2117c:	00c58933          	add	s2,a1,a2
   21180:	00891793          	sll	a5,s2,0x8
   21184:	000e8493          	mv	s1,t4
   21188:	0a07d863          	bgez	a5,0x21238
   2118c:	00200993          	li	s3,2
   21190:	bddff06f          	j	0x20d6c
   21194:	41d88eb3          	sub	t4,a7,t4
   21198:	40b705b3          	sub	a1,a4,a1
   2119c:	01d8b633          	sltu	a2,a7,t4
   211a0:	000e8493          	mv	s1,t4
   211a4:	40c58933          	sub	s2,a1,a2
   211a8:	00100993          	li	s3,1
   211ac:	a41ff06f          	j	0x20bec
   211b0:	fe078693          	add	a3,a5,-32
   211b4:	02000613          	li	a2,32
   211b8:	00d5d6b3          	srl	a3,a1,a3
   211bc:	00c78a63          	beq	a5,a2,0x211d0
   211c0:	04000613          	li	a2,64
   211c4:	40f607b3          	sub	a5,a2,a5
   211c8:	00f597b3          	sll	a5,a1,a5
   211cc:	00feeeb3          	or	t4,t4,a5
   211d0:	01d03933          	snez	s2,t4
   211d4:	00d96933          	or	s2,s2,a3
   211d8:	b71ff06f          	j	0x20d48
   211dc:	fe080793          	add	a5,a6,-32
   211e0:	02000693          	li	a3,32
   211e4:	00f757b3          	srl	a5,a4,a5
   211e8:	00d80a63          	beq	a6,a3,0x211fc
   211ec:	04000693          	li	a3,64
   211f0:	410686b3          	sub	a3,a3,a6
   211f4:	00d71733          	sll	a4,a4,a3
   211f8:	00e8e8b3          	or	a7,a7,a4
   211fc:	01103533          	snez	a0,a7
   21200:	00f56533          	or	a0,a0,a5
   21204:	e7dff06f          	j	0x21080
   21208:	ec0788e3          	beqz	a5,0x210d8
   2120c:	01d5eeb3          	or	t4,a1,t4
   21210:	bc0e90e3          	bnez	t4,0x20dd0
   21214:	d49ff06f          	j	0x20f5c
   21218:	411e8633          	sub	a2,t4,a7
   2121c:	40e585b3          	sub	a1,a1,a4
   21220:	00ceb733          	sltu	a4,t4,a2
   21224:	00060493          	mv	s1,a2
   21228:	40e58933          	sub	s2,a1,a4
   2122c:	00068413          	mv	s0,a3
   21230:	00100993          	li	s3,1
   21234:	9b9ff06f          	j	0x20bec
   21238:	00100793          	li	a5,1
   2123c:	d11ff06f          	j	0x20f4c
   21240:	dc0800e3          	beqz	a6,0x21000
   21244:	00361613          	sll	a2,a2,0x3
   21248:	00365793          	srl	a5,a2,0x3
   2124c:	01d59813          	sll	a6,a1,0x1d
   21250:	00959713          	sll	a4,a1,0x9
   21254:	00f86833          	or	a6,a6,a5
   21258:	00c75713          	srl	a4,a4,0xc
   2125c:	00068e13          	mv	t3,a3
   21260:	00000793          	li	a5,0
   21264:	a55ff06f          	j	0x20cb8
   21268:	41d88933          	sub	s2,a7,t4
   2126c:	0128b7b3          	sltu	a5,a7,s2
   21270:	40b70633          	sub	a2,a4,a1
   21274:	40f60633          	sub	a2,a2,a5
   21278:	00861793          	sll	a5,a2,0x8
   2127c:	0e07d263          	bgez	a5,0x21360
   21280:	411e8633          	sub	a2,t4,a7
   21284:	40e58733          	sub	a4,a1,a4
   21288:	00cebeb3          	sltu	t4,t4,a2
   2128c:	41d70733          	sub	a4,a4,t4
   21290:	00871793          	sll	a5,a4,0x8
   21294:	00060493          	mv	s1,a2
   21298:	1207de63          	bgez	a5,0x213d4
   2129c:	ff8007b7          	lui	a5,0xff800
   212a0:	fff78793          	add	a5,a5,-1 # 0xff7fffff
   212a4:	00f77733          	and	a4,a4,a5
   212a8:	00068413          	mv	s0,a3
   212ac:	00100793          	li	a5,1
   212b0:	9f1ff06f          	j	0x20ca0
   212b4:	00361613          	sll	a2,a2,0x3
   212b8:	00365513          	srl	a0,a2,0x3
   212bc:	00058713          	mv	a4,a1
   212c0:	cbdff06f          	j	0x20f7c
   212c4:	00361613          	sll	a2,a2,0x3
   212c8:	00365913          	srl	s2,a2,0x3
   212cc:	00058713          	mv	a4,a1
   212d0:	cfdff06f          	j	0x20fcc
   212d4:	01d886b3          	add	a3,a7,t4
   212d8:	00b707b3          	add	a5,a4,a1
   212dc:	0116b633          	sltu	a2,a3,a7
   212e0:	00c787b3          	add	a5,a5,a2
   212e4:	00879713          	sll	a4,a5,0x8
   212e8:	0036d813          	srl	a6,a3,0x3
   212ec:	08075e63          	bgez	a4,0x21388
   212f0:	ff800737          	lui	a4,0xff800
   212f4:	fff70713          	add	a4,a4,-1 # 0xff7fffff
   212f8:	00e7f7b3          	and	a5,a5,a4
   212fc:	01d79713          	sll	a4,a5,0x1d
   21300:	00979793          	sll	a5,a5,0x9
   21304:	01076833          	or	a6,a4,a6
   21308:	00c7d713          	srl	a4,a5,0xc
   2130c:	00100793          	li	a5,1
   21310:	9a9ff06f          	j	0x20cb8
   21314:	fe068793          	add	a5,a3,-32
   21318:	02000613          	li	a2,32
   2131c:	00f757b3          	srl	a5,a4,a5
   21320:	00c68a63          	beq	a3,a2,0x21334
   21324:	04000613          	li	a2,64
   21328:	40d606b3          	sub	a3,a2,a3
   2132c:	00d71733          	sll	a4,a4,a3
   21330:	00e8e8b3          	or	a7,a7,a4
   21334:	01103933          	snez	s2,a7
   21338:	00f96933          	or	s2,s2,a5
   2133c:	b39ff06f          	j	0x20e74
   21340:	0034d513          	srl	a0,s1,0x3
   21344:	00098793          	mv	a5,s3
   21348:	00090713          	mv	a4,s2
   2134c:	c31ff06f          	j	0x20f7c
   21350:	02000693          	li	a3,32
   21354:	40f686b3          	sub	a3,a3,a5
   21358:	00000613          	li	a2,0
   2135c:	8e9ff06f          	j	0x20c44
   21360:	00c96833          	or	a6,s2,a2
   21364:	c8080ee3          	beqz	a6,0x21000
   21368:	00395913          	srl	s2,s2,0x3
   2136c:	00000793          	li	a5,0
   21370:	00060713          	mv	a4,a2
   21374:	c59ff06f          	j	0x20fcc
   21378:	00000e13          	li	t3,0
   2137c:	7ff00793          	li	a5,2047
   21380:	00080737          	lui	a4,0x80
   21384:	935ff06f          	j	0x20cb8
   21388:	01d79713          	sll	a4,a5,0x1d
   2138c:	00979793          	sll	a5,a5,0x9
   21390:	01076833          	or	a6,a4,a6
   21394:	00c7d713          	srl	a4,a5,0xc
   21398:	00000793          	li	a5,0
   2139c:	91dff06f          	j	0x20cb8
   213a0:	ae0786e3          	beqz	a5,0x20e8c
   213a4:	413f0833          	sub	a6,t5,s3
   213a8:	00080793          	mv	a5,a6
   213ac:	c6098ee3          	beqz	s3,0x21028
   213b0:	03800793          	li	a5,56
   213b4:	0107ca63          	blt	a5,a6,0x213c8
   213b8:	008007b7          	lui	a5,0x800
   213bc:	00f76733          	or	a4,a4,a5
   213c0:	00068413          	mv	s0,a3
   213c4:	c8dff06f          	j	0x21050
   213c8:	00068413          	mv	s0,a3
   213cc:	00100513          	li	a0,1
   213d0:	cb1ff06f          	j	0x21080
   213d4:	01d71813          	sll	a6,a4,0x1d
   213d8:	00365613          	srl	a2,a2,0x3
   213dc:	00c86833          	or	a6,a6,a2
   213e0:	00375713          	srl	a4,a4,0x3
   213e4:	00000793          	li	a5,0
   213e8:	00068413          	mv	s0,a3
   213ec:	ba5ff06f          	j	0x20f90
   213f0:	ba078ae3          	beqz	a5,0x20fa4
   213f4:	413f06b3          	sub	a3,t5,s3
   213f8:	00099663          	bnez	s3,0x21404
   213fc:	00068793          	mv	a5,a3
   21400:	a21ff06f          	j	0x20e20
   21404:	03800793          	li	a5,56
   21408:	00100913          	li	s2,1
   2140c:	a6d7c4e3          	blt	a5,a3,0x20e74
   21410:	008007b7          	lui	a5,0x800
   21414:	00f76733          	or	a4,a4,a5
   21418:	a2dff06f          	j	0x20e44
   2141c:	0145d713          	srl	a4,a1,0x14
   21420:	001007b7          	lui	a5,0x100
   21424:	fff78793          	add	a5,a5,-1 # 0xfffff
   21428:	fff74713          	not	a4,a4
   2142c:	0146d813          	srl	a6,a3,0x14
   21430:	00b7f5b3          	and	a1,a5,a1
   21434:	00d7f7b3          	and	a5,a5,a3
   21438:	01571693          	sll	a3,a4,0x15
   2143c:	7ff87813          	and	a6,a6,2047
   21440:	02068063          	beqz	a3,0x21460
   21444:	7ff00713          	li	a4,2047
   21448:	00000513          	li	a0,0
   2144c:	00e80463          	beq	a6,a4,0x21454
   21450:	00008067          	ret
   21454:	00c7e7b3          	or	a5,a5,a2
   21458:	00f03533          	snez	a0,a5
   2145c:	00008067          	ret
   21460:	00a5e5b3          	or	a1,a1,a0
   21464:	00100513          	li	a0,1
   21468:	fc058ee3          	beqz	a1,0x21444
   2146c:	00008067          	ret
   21470:	0145d793          	srl	a5,a1,0x14
   21474:	001006b7          	lui	a3,0x100
   21478:	fff68713          	add	a4,a3,-1 # 0xfffff
   2147c:	7ff7f793          	and	a5,a5,2047
   21480:	3fe00613          	li	a2,1022
   21484:	00b77733          	and	a4,a4,a1
   21488:	01f5d593          	srl	a1,a1,0x1f
   2148c:	00f65e63          	bge	a2,a5,0x214a8
   21490:	41d00613          	li	a2,1053
   21494:	00f65e63          	bge	a2,a5,0x214b0
   21498:	80000537          	lui	a0,0x80000
   2149c:	fff50513          	add	a0,a0,-1 # 0x7fffffff
   214a0:	00a58533          	add	a0,a1,a0
   214a4:	00008067          	ret
   214a8:	00000513          	li	a0,0
   214ac:	00008067          	ret
   214b0:	43300613          	li	a2,1075
   214b4:	40f60633          	sub	a2,a2,a5
   214b8:	01f00813          	li	a6,31
   214bc:	00d76733          	or	a4,a4,a3
   214c0:	02c85063          	bge	a6,a2,0x214e0
   214c4:	41300693          	li	a3,1043
   214c8:	40f687b3          	sub	a5,a3,a5
   214cc:	00f75733          	srl	a4,a4,a5
   214d0:	40e00533          	neg	a0,a4
   214d4:	fc059ce3          	bnez	a1,0x214ac
   214d8:	00070513          	mv	a0,a4
   214dc:	00008067          	ret
   214e0:	bed78793          	add	a5,a5,-1043
   214e4:	00f71733          	sll	a4,a4,a5
   214e8:	00c55533          	srl	a0,a0,a2
   214ec:	00a76733          	or	a4,a4,a0
   214f0:	fe1ff06f          	j	0x214d0
   214f4:	ff010113          	add	sp,sp,-16
   214f8:	00112623          	sw	ra,12(sp)
   214fc:	00812423          	sw	s0,8(sp)
   21500:	00912223          	sw	s1,4(sp)
   21504:	04050a63          	beqz	a0,0x21558
   21508:	41f55713          	sra	a4,a0,0x1f
   2150c:	00a744b3          	xor	s1,a4,a0
   21510:	40e484b3          	sub	s1,s1,a4
   21514:	00050793          	mv	a5,a0
   21518:	00048513          	mv	a0,s1
   2151c:	01f7d413          	srl	s0,a5,0x1f
   21520:	604000ef          	jal	0x21b24
   21524:	41e00793          	li	a5,1054
   21528:	40a787b3          	sub	a5,a5,a0
   2152c:	00a00713          	li	a4,10
   21530:	7ff7f793          	and	a5,a5,2047
   21534:	06a74063          	blt	a4,a0,0x21594
   21538:	00b00713          	li	a4,11
   2153c:	40a70733          	sub	a4,a4,a0
   21540:	00e4d733          	srl	a4,s1,a4
   21544:	01550513          	add	a0,a0,21
   21548:	00c71713          	sll	a4,a4,0xc
   2154c:	00a494b3          	sll	s1,s1,a0
   21550:	00c75713          	srl	a4,a4,0xc
   21554:	0140006f          	j	0x21568
   21558:	00000413          	li	s0,0
   2155c:	00000793          	li	a5,0
   21560:	00000713          	li	a4,0
   21564:	00000493          	li	s1,0
   21568:	01479793          	sll	a5,a5,0x14
   2156c:	01f41413          	sll	s0,s0,0x1f
   21570:	00e7e7b3          	or	a5,a5,a4
   21574:	00c12083          	lw	ra,12(sp)
   21578:	0087e7b3          	or	a5,a5,s0
   2157c:	00812403          	lw	s0,8(sp)
   21580:	00048513          	mv	a0,s1
   21584:	00078593          	mv	a1,a5
   21588:	00412483          	lw	s1,4(sp)
   2158c:	01010113          	add	sp,sp,16
   21590:	00008067          	ret
   21594:	ff550513          	add	a0,a0,-11
   21598:	00a49733          	sll	a4,s1,a0
   2159c:	00c71713          	sll	a4,a4,0xc
   215a0:	00c75713          	srl	a4,a4,0xc
   215a4:	00000493          	li	s1,0
   215a8:	fc1ff06f          	j	0x21568
   215ac:	ff010113          	add	sp,sp,-16
   215b0:	00812423          	sw	s0,8(sp)
   215b4:	00112623          	sw	ra,12(sp)
   215b8:	00050413          	mv	s0,a0
   215bc:	04050c63          	beqz	a0,0x21614
   215c0:	564000ef          	jal	0x21b24
   215c4:	41e00793          	li	a5,1054
   215c8:	40a787b3          	sub	a5,a5,a0
   215cc:	00a00713          	li	a4,10
   215d0:	7ff7f793          	and	a5,a5,2047
   215d4:	06a74463          	blt	a4,a0,0x2163c
   215d8:	00b00713          	li	a4,11
   215dc:	40a70733          	sub	a4,a4,a0
   215e0:	01550513          	add	a0,a0,21
   215e4:	00e45733          	srl	a4,s0,a4
   215e8:	00a41433          	sll	s0,s0,a0
   215ec:	00c12083          	lw	ra,12(sp)
   215f0:	00040513          	mv	a0,s0
   215f4:	00c71713          	sll	a4,a4,0xc
   215f8:	00812403          	lw	s0,8(sp)
   215fc:	00c75713          	srl	a4,a4,0xc
   21600:	01479793          	sll	a5,a5,0x14
   21604:	00e7e7b3          	or	a5,a5,a4
   21608:	00078593          	mv	a1,a5
   2160c:	01010113          	add	sp,sp,16
   21610:	00008067          	ret
   21614:	00c12083          	lw	ra,12(sp)
   21618:	00040513          	mv	a0,s0
   2161c:	00000793          	li	a5,0
   21620:	00812403          	lw	s0,8(sp)
   21624:	00000713          	li	a4,0
   21628:	01479793          	sll	a5,a5,0x14
   2162c:	00e7e7b3          	or	a5,a5,a4
   21630:	00078593          	mv	a1,a5
   21634:	01010113          	add	sp,sp,16
   21638:	00008067          	ret
   2163c:	ff550513          	add	a0,a0,-11
   21640:	00a41733          	sll	a4,s0,a0
   21644:	00000413          	li	s0,0
   21648:	00c12083          	lw	ra,12(sp)
   2164c:	00040513          	mv	a0,s0
   21650:	00c71713          	sll	a4,a4,0xc
   21654:	00812403          	lw	s0,8(sp)
   21658:	00c75713          	srl	a4,a4,0xc
   2165c:	01479793          	sll	a5,a5,0x14
   21660:	00e7e7b3          	or	a5,a5,a4
   21664:	00078593          	mv	a1,a5
   21668:	01010113          	add	sp,sp,16
   2166c:	00008067          	ret
   21670:	00c52583          	lw	a1,12(a0)
   21674:	00852783          	lw	a5,8(a0)
   21678:	00052803          	lw	a6,0(a0)
   2167c:	00452683          	lw	a3,4(a0)
   21680:	01059613          	sll	a2,a1,0x10
   21684:	fe010113          	add	sp,sp,-32
   21688:	00159713          	sll	a4,a1,0x1
   2168c:	01065613          	srl	a2,a2,0x10
   21690:	00f12423          	sw	a5,8(sp)
   21694:	00b12623          	sw	a1,12(sp)
   21698:	00f12c23          	sw	a5,24(sp)
   2169c:	01012023          	sw	a6,0(sp)
   216a0:	00d12223          	sw	a3,4(sp)
   216a4:	01012823          	sw	a6,16(sp)
   216a8:	00d12a23          	sw	a3,20(sp)
   216ac:	00c12e23          	sw	a2,28(sp)
   216b0:	01175713          	srl	a4,a4,0x11
   216b4:	01f5d593          	srl	a1,a1,0x1f
   216b8:	01010893          	add	a7,sp,16
   216bc:	01c10793          	add	a5,sp,28
   216c0:	00361513          	sll	a0,a2,0x3
   216c4:	ffc7a603          	lw	a2,-4(a5)
   216c8:	ffc78793          	add	a5,a5,-4
   216cc:	01d65693          	srl	a3,a2,0x1d
   216d0:	00a6e6b3          	or	a3,a3,a0
   216d4:	00d7a223          	sw	a3,4(a5)
   216d8:	fef894e3          	bne	a7,a5,0x216c0
   216dc:	00170693          	add	a3,a4,1 # 0x80001
   216e0:	00381813          	sll	a6,a6,0x3
   216e4:	01169613          	sll	a2,a3,0x11
   216e8:	01012823          	sw	a6,16(sp)
   216ec:	01265613          	srl	a2,a2,0x12
   216f0:	04060263          	beqz	a2,0x21734
   216f4:	ffffc6b7          	lui	a3,0xffffc
   216f8:	40068693          	add	a3,a3,1024 # 0xffffc400
   216fc:	00d70733          	add	a4,a4,a3
   21700:	7fe00693          	li	a3,2046
   21704:	10e6d463          	bge	a3,a4,0x2180c
   21708:	7ff00793          	li	a5,2047
   2170c:	00000613          	li	a2,0
   21710:	00000693          	li	a3,0
   21714:	01479793          	sll	a5,a5,0x14
   21718:	01f59593          	sll	a1,a1,0x1f
   2171c:	00c7e7b3          	or	a5,a5,a2
   21720:	00b7e7b3          	or	a5,a5,a1
   21724:	00068513          	mv	a0,a3
   21728:	00078593          	mv	a1,a5
   2172c:	02010113          	add	sp,sp,32
   21730:	00008067          	ret
   21734:	01412603          	lw	a2,20(sp)
   21738:	01812883          	lw	a7,24(sp)
   2173c:	01c12503          	lw	a0,28(sp)
   21740:	011666b3          	or	a3,a2,a7
   21744:	00a6e6b3          	or	a3,a3,a0
   21748:	0106e6b3          	or	a3,a3,a6
   2174c:	04071463          	bnez	a4,0x21794
   21750:	14068263          	beqz	a3,0x21894
   21754:	00500693          	li	a3,5
   21758:	00000613          	li	a2,0
   2175c:	0036d793          	srl	a5,a3,0x3
   21760:	01d61693          	sll	a3,a2,0x1d
   21764:	00f6e6b3          	or	a3,a3,a5
   21768:	00961613          	sll	a2,a2,0x9
   2176c:	7ff77793          	and	a5,a4,2047
   21770:	00c65613          	srl	a2,a2,0xc
   21774:	01479793          	sll	a5,a5,0x14
   21778:	01f59593          	sll	a1,a1,0x1f
   2177c:	00c7e7b3          	or	a5,a5,a2
   21780:	00b7e7b3          	or	a5,a5,a1
   21784:	00068513          	mv	a0,a3
   21788:	00078593          	mv	a1,a5
   2178c:	02010113          	add	sp,sp,32
   21790:	00008067          	ret
   21794:	12068463          	beqz	a3,0x218bc
   21798:	01c8d793          	srl	a5,a7,0x1c
   2179c:	00451513          	sll	a0,a0,0x4
   217a0:	00a7e7b3          	or	a5,a5,a0
   217a4:	008006b7          	lui	a3,0x800
   217a8:	00d7f6b3          	and	a3,a5,a3
   217ac:	1c068263          	beqz	a3,0x21970
   217b0:	ff800737          	lui	a4,0xff800
   217b4:	01c65693          	srl	a3,a2,0x1c
   217b8:	00489893          	sll	a7,a7,0x4
   217bc:	fff70713          	add	a4,a4,-1 # 0xff7fffff
   217c0:	00e7f633          	and	a2,a5,a4
   217c4:	0116e6b3          	or	a3,a3,a7
   217c8:	004007b7          	lui	a5,0x400
   217cc:	00f66633          	or	a2,a2,a5
   217d0:	ff86f693          	and	a3,a3,-8
   217d4:	00000793          	li	a5,0
   217d8:	0036d713          	srl	a4,a3,0x3
   217dc:	01d61693          	sll	a3,a2,0x1d
   217e0:	00961613          	sll	a2,a2,0x9
   217e4:	00c65613          	srl	a2,a2,0xc
   217e8:	01479793          	sll	a5,a5,0x14
   217ec:	01f59593          	sll	a1,a1,0x1f
   217f0:	00c7e7b3          	or	a5,a5,a2
   217f4:	00e6e6b3          	or	a3,a3,a4
   217f8:	00b7e7b3          	or	a5,a5,a1
   217fc:	00068513          	mv	a0,a3
   21800:	00078593          	mv	a1,a5
   21804:	02010113          	add	sp,sp,32
   21808:	00008067          	ret
   2180c:	0ce05c63          	blez	a4,0x218e4
   21810:	01412783          	lw	a5,20(sp)
   21814:	01812503          	lw	a0,24(sp)
   21818:	01c12603          	lw	a2,28(sp)
   2181c:	00479693          	sll	a3,a5,0x4
   21820:	0106e6b3          	or	a3,a3,a6
   21824:	01c7d793          	srl	a5,a5,0x1c
   21828:	00451813          	sll	a6,a0,0x4
   2182c:	00461613          	sll	a2,a2,0x4
   21830:	01c55513          	srl	a0,a0,0x1c
   21834:	00d036b3          	snez	a3,a3
   21838:	0107e7b3          	or	a5,a5,a6
   2183c:	00a66633          	or	a2,a2,a0
   21840:	00f6e6b3          	or	a3,a3,a5
   21844:	0076f793          	and	a5,a3,7
   21848:	02078063          	beqz	a5,0x21868
   2184c:	00f6f793          	and	a5,a3,15
   21850:	00400513          	li	a0,4
   21854:	00a78a63          	beq	a5,a0,0x21868
   21858:	00468793          	add	a5,a3,4 # 0x800004
   2185c:	00d7b6b3          	sltu	a3,a5,a3
   21860:	00d60633          	add	a2,a2,a3
   21864:	00078693          	mv	a3,a5
   21868:	008007b7          	lui	a5,0x800
   2186c:	00f677b3          	and	a5,a2,a5
   21870:	ee0786e3          	beqz	a5,0x2175c
   21874:	00170713          	add	a4,a4,1
   21878:	7ff00793          	li	a5,2047
   2187c:	e8f706e3          	beq	a4,a5,0x21708
   21880:	ff8007b7          	lui	a5,0xff800
   21884:	fff78793          	add	a5,a5,-1 # 0xff7fffff
   21888:	00f67633          	and	a2,a2,a5
   2188c:	7ff77793          	and	a5,a4,2047
   21890:	f49ff06f          	j	0x217d8
   21894:	00000793          	li	a5,0
   21898:	00000613          	li	a2,0
   2189c:	01479793          	sll	a5,a5,0x14
   218a0:	01f59593          	sll	a1,a1,0x1f
   218a4:	00c7e7b3          	or	a5,a5,a2
   218a8:	00b7e7b3          	or	a5,a5,a1
   218ac:	00068513          	mv	a0,a3
   218b0:	00078593          	mv	a1,a5
   218b4:	02010113          	add	sp,sp,32
   218b8:	00008067          	ret
   218bc:	7ff00793          	li	a5,2047
   218c0:	00000613          	li	a2,0
   218c4:	01479793          	sll	a5,a5,0x14
   218c8:	01f59593          	sll	a1,a1,0x1f
   218cc:	00c7e7b3          	or	a5,a5,a2
   218d0:	00b7e7b3          	or	a5,a5,a1
   218d4:	00068513          	mv	a0,a3
   218d8:	00078593          	mv	a1,a5
   218dc:	02010113          	add	sp,sp,32
   218e0:	00008067          	ret
   218e4:	fcc00693          	li	a3,-52
   218e8:	08d74c63          	blt	a4,a3,0x21980
   218ec:	03d00693          	li	a3,61
   218f0:	40e686b3          	sub	a3,a3,a4
   218f4:	01c12703          	lw	a4,28(sp)
   218f8:	4056de13          	sra	t3,a3,0x5
   218fc:	00080eb7          	lui	t4,0x80
   21900:	00eeeeb3          	or	t4,t4,a4
   21904:	002e1513          	sll	a0,t3,0x2
   21908:	01d12e23          	sw	t4,28(sp)
   2190c:	01f6f693          	and	a3,a3,31
   21910:	00a88833          	add	a6,a7,a0
   21914:	00088613          	mv	a2,a7
   21918:	00000713          	li	a4,0
   2191c:	00062303          	lw	t1,0(a2)
   21920:	00460613          	add	a2,a2,4
   21924:	00676733          	or	a4,a4,t1
   21928:	fec81ae3          	bne	a6,a2,0x2191c
   2192c:	00300613          	li	a2,3
   21930:	41c60633          	sub	a2,a2,t3
   21934:	04069a63          	bnez	a3,0x21988
   21938:	00082803          	lw	a6,0(a6)
   2193c:	00168693          	add	a3,a3,1
   21940:	00478793          	add	a5,a5,4
   21944:	ff07ae23          	sw	a6,-4(a5)
   21948:	00d64e63          	blt	a2,a3,0x21964
   2194c:	00a78833          	add	a6,a5,a0
   21950:	00082803          	lw	a6,0(a6)
   21954:	00168693          	add	a3,a3,1
   21958:	00478793          	add	a5,a5,4
   2195c:	ff07ae23          	sw	a6,-4(a5)
   21960:	fed656e3          	bge	a2,a3,0x2194c
   21964:	00400793          	li	a5,4
   21968:	41c787b3          	sub	a5,a5,t3
   2196c:	0840006f          	j	0x219f0
   21970:	00000593          	li	a1,0
   21974:	7ff00793          	li	a5,2047
   21978:	00080637          	lui	a2,0x80
   2197c:	d99ff06f          	j	0x21714
   21980:	00000713          	li	a4,0
   21984:	dd1ff06f          	j	0x21754
   21988:	02050813          	add	a6,a0,32
   2198c:	00280833          	add	a6,a6,sp
   21990:	ff082803          	lw	a6,-16(a6)
   21994:	02000f13          	li	t5,32
   21998:	40df0f33          	sub	t5,t5,a3
   2199c:	01e81833          	sll	a6,a6,t5
   219a0:	01076733          	or	a4,a4,a6
   219a4:	08060e63          	beqz	a2,0x21a40
   219a8:	00261813          	sll	a6,a2,0x2
   219ac:	00f80fb3          	add	t6,a6,a5
   219b0:	00a88633          	add	a2,a7,a0
   219b4:	00062503          	lw	a0,0(a2) # 0x80000
   219b8:	00462303          	lw	t1,4(a2)
   219bc:	00478793          	add	a5,a5,4
   219c0:	00d55533          	srl	a0,a0,a3
   219c4:	01e31333          	sll	t1,t1,t5
   219c8:	00656533          	or	a0,a0,t1
   219cc:	fea7ae23          	sw	a0,-4(a5)
   219d0:	00460613          	add	a2,a2,4
   219d4:	feff90e3          	bne	t6,a5,0x219b4
   219d8:	00400793          	li	a5,4
   219dc:	41c787b3          	sub	a5,a5,t3
   219e0:	02080613          	add	a2,a6,32
   219e4:	00260633          	add	a2,a2,sp
   219e8:	00dedeb3          	srl	t4,t4,a3
   219ec:	ffd62823          	sw	t4,-16(a2)
   219f0:	00400693          	li	a3,4
   219f4:	40f686b3          	sub	a3,a3,a5
   219f8:	00269693          	sll	a3,a3,0x2
   219fc:	00279793          	sll	a5,a5,0x2
   21a00:	00800613          	li	a2,8
   21a04:	00f888b3          	add	a7,a7,a5
   21a08:	00c6ea63          	bltu	a3,a2,0x21a1c
   21a0c:	0008a023          	sw	zero,0(a7)
   21a10:	0008a223          	sw	zero,4(a7)
   21a14:	ff868693          	add	a3,a3,-8
   21a18:	00888893          	add	a7,a7,8
   21a1c:	00400793          	li	a5,4
   21a20:	00f6e463          	bltu	a3,a5,0x21a28
   21a24:	0008a023          	sw	zero,0(a7)
   21a28:	01012783          	lw	a5,16(sp)
   21a2c:	00e03733          	snez	a4,a4
   21a30:	01412603          	lw	a2,20(sp)
   21a34:	00f766b3          	or	a3,a4,a5
   21a38:	00000713          	li	a4,0
   21a3c:	e09ff06f          	j	0x21844
   21a40:	00100793          	li	a5,1
   21a44:	00000813          	li	a6,0
   21a48:	f99ff06f          	j	0x219e0
   21a4c:	00050613          	mv	a2,a0
   21a50:	00000513          	li	a0,0
   21a54:	0015f693          	and	a3,a1,1
   21a58:	00068463          	beqz	a3,0x21a60
   21a5c:	00c50533          	add	a0,a0,a2
   21a60:	0015d593          	srl	a1,a1,0x1
   21a64:	00161613          	sll	a2,a2,0x1
   21a68:	fe0596e3          	bnez	a1,0x21a54
   21a6c:	00008067          	ret
   21a70:	06054063          	bltz	a0,0x21ad0
   21a74:	0605c663          	bltz	a1,0x21ae0
   21a78:	00058613          	mv	a2,a1
   21a7c:	00050593          	mv	a1,a0
   21a80:	fff00513          	li	a0,-1
   21a84:	02060c63          	beqz	a2,0x21abc
   21a88:	00100693          	li	a3,1
   21a8c:	00b67a63          	bgeu	a2,a1,0x21aa0
   21a90:	00c05863          	blez	a2,0x21aa0
   21a94:	00161613          	sll	a2,a2,0x1
   21a98:	00169693          	sll	a3,a3,0x1
   21a9c:	feb66ae3          	bltu	a2,a1,0x21a90
   21aa0:	00000513          	li	a0,0
   21aa4:	00c5e663          	bltu	a1,a2,0x21ab0
   21aa8:	40c585b3          	sub	a1,a1,a2
   21aac:	00d56533          	or	a0,a0,a3
   21ab0:	0016d693          	srl	a3,a3,0x1
   21ab4:	00165613          	srl	a2,a2,0x1
   21ab8:	fe0696e3          	bnez	a3,0x21aa4
   21abc:	00008067          	ret
   21ac0:	00008293          	mv	t0,ra
   21ac4:	fb5ff0ef          	jal	0x21a78
   21ac8:	00058513          	mv	a0,a1
   21acc:	00028067          	jr	t0
   21ad0:	40a00533          	neg	a0,a0
   21ad4:	00b04863          	bgtz	a1,0x21ae4
   21ad8:	40b005b3          	neg	a1,a1
   21adc:	f9dff06f          	j	0x21a78
   21ae0:	40b005b3          	neg	a1,a1
   21ae4:	00008293          	mv	t0,ra
   21ae8:	f91ff0ef          	jal	0x21a78
   21aec:	40a00533          	neg	a0,a0
   21af0:	00028067          	jr	t0
   21af4:	00008293          	mv	t0,ra
   21af8:	0005ca63          	bltz	a1,0x21b0c
   21afc:	00054c63          	bltz	a0,0x21b14
   21b00:	f79ff0ef          	jal	0x21a78
   21b04:	00058513          	mv	a0,a1
   21b08:	00028067          	jr	t0
   21b0c:	40b005b3          	neg	a1,a1
   21b10:	fe0558e3          	bgez	a0,0x21b00
   21b14:	40a00533          	neg	a0,a0
   21b18:	f61ff0ef          	jal	0x21a78
   21b1c:	40b00533          	neg	a0,a1
   21b20:	00028067          	jr	t0
   21b24:	000107b7          	lui	a5,0x10
   21b28:	02f57a63          	bgeu	a0,a5,0x21b5c
   21b2c:	10053793          	sltiu	a5,a0,256
   21b30:	0017b793          	seqz	a5,a5
   21b34:	00379793          	sll	a5,a5,0x3
   21b38:	02000713          	li	a4,32
   21b3c:	40f70733          	sub	a4,a4,a5
   21b40:	00f55533          	srl	a0,a0,a5
   21b44:	00001797          	auipc	a5,0x1
   21b48:	de878793          	add	a5,a5,-536 # 0x2292c
   21b4c:	00a787b3          	add	a5,a5,a0
   21b50:	0007c503          	lbu	a0,0(a5)
   21b54:	40a70533          	sub	a0,a4,a0
   21b58:	00008067          	ret
   21b5c:	010007b7          	lui	a5,0x1000
   21b60:	02f57463          	bgeu	a0,a5,0x21b88
   21b64:	01000793          	li	a5,16
   21b68:	00f55533          	srl	a0,a0,a5
   21b6c:	00001797          	auipc	a5,0x1
   21b70:	dc078793          	add	a5,a5,-576 # 0x2292c
   21b74:	00a787b3          	add	a5,a5,a0
   21b78:	0007c503          	lbu	a0,0(a5)
   21b7c:	01000713          	li	a4,16
   21b80:	40a70533          	sub	a0,a4,a0
   21b84:	00008067          	ret
   21b88:	01800793          	li	a5,24
   21b8c:	00f55533          	srl	a0,a0,a5
   21b90:	00001797          	auipc	a5,0x1
   21b94:	d9c78793          	add	a5,a5,-612 # 0x2292c
   21b98:	00a787b3          	add	a5,a5,a0
   21b9c:	0007c503          	lbu	a0,0(a5)
   21ba0:	00800713          	li	a4,8
   21ba4:	40a70533          	sub	a0,a4,a0
   21ba8:	00008067          	ret
